
out.elf:     file format elf32-tradlittlemips


Disassembly of section .reset:

bd007000 <_reset>:
bd007000:	0f401c02 	jal	bd007008 <_startup>
bd007004:	00000000 	nop

bd007008 <_startup>:
bd007008:	401a6000 	mfc0	k0,c0_status
bd00700c:	7f5a04c0 	ext	k0,k0,0x13,0x1
bd007010:	13400005 	beqz	k0,bd007028 <_no_nmi>
bd007014:	00000000 	nop
bd007018:	3c1a9d01 	lui	k0,0x9d01
bd00701c:	275a4fd8 	addiu	k0,k0,20440
bd007020:	03400008 	jr	k0
bd007024:	00000000 	nop

bd007028 <_no_nmi>:
bd007028:	3c1da001 	lui	sp,0xa001
bd00702c:	27bdfff0 	addiu	sp,sp,-16
bd007030:	3c1ca000 	lui	gp,0xa000
bd007034:	279c7ff0 	addiu	gp,gp,32752
bd007038:	3c089d01 	lui	t0,0x9d01
bd00703c:	25085070 	addiu	t0,t0,20592
bd007040:	0100f809 	jalr	t0
bd007044:	00000000 	nop

bd007048 <_start_bss_init>:
bd007048:	3c08a000 	lui	t0,0xa000
bd00704c:	2508000c 	addiu	t0,t0,12
bd007050:	3c09a001 	lui	t1,0xa001
bd007054:	25299fcc 	addiu	t1,t1,-24628
bd007058:	10000003 	b	bd007068 <_bss_check>
bd00705c:	00000000 	nop

bd007060 <_bss_init>:
bd007060:	ad000000 	sw	zero,0(t0)
bd007064:	25080004 	addiu	t0,t0,4

bd007068 <_bss_check>:
bd007068:	0109082b 	sltu	at,t0,t1
bd00706c:	1420fffc 	bnez	at,bd007060 <_bss_init>
bd007070:	00000000 	nop
bd007074:	3c089d01 	lui	t0,0x9d01
bd007078:	25084d30 	addiu	t0,t0,19760
bd00707c:	0100f809 	jalr	t0
bd007080:	00000000 	nop
bd007084:	3c090000 	lui	t1,0x0
bd007088:	25290000 	addiu	t1,t1,0
bd00708c:	11200010 	beqz	t1,bd0070d0 <_ramfunc_done>
bd007090:	00000000 	nop
bd007094:	3c090001 	lui	t1,0x1
bd007098:	25290000 	addiu	t1,t1,0
bd00709c:	3c0abf88 	lui	t2,0xbf88
bd0070a0:	254a2010 	addiu	t2,t2,8208
bd0070a4:	ad490000 	sw	t1,0(t2)
bd0070a8:	3c090001 	lui	t1,0x1
bd0070ac:	25290000 	addiu	t1,t1,0
bd0070b0:	3c0abf88 	lui	t2,0xbf88
bd0070b4:	254a2020 	addiu	t2,t2,8224
bd0070b8:	ad490000 	sw	t1,0(t2)
bd0070bc:	3c090001 	lui	t1,0x1
bd0070c0:	25290000 	addiu	t1,t1,0
bd0070c4:	3c0abf88 	lui	t2,0xbf88
bd0070c8:	254a2030 	addiu	t2,t2,8240
bd0070cc:	ad490000 	sw	t1,0(t2)

bd0070d0 <_ramfunc_done>:
bd0070d0:	40804800 	mtc0	zero,c0_count
bd0070d4:	240affff 	li	t2,-1
bd0070d8:	408a5800 	mtc0	t2,c0_compare
bd0070dc:	3c080040 	lui	t0,0x40
bd0070e0:	400a6000 	mfc0	t2,c0_status
bd0070e4:	010a5025 	or	t2,t0,t2
bd0070e8:	408a6000 	mtc0	t2,c0_status
bd0070ec:	3c099d00 	lui	t1,0x9d00
bd0070f0:	25296000 	addiu	t1,t1,24576
bd0070f4:	000000c0 	ehb
bd0070f8:	40897801 	mtc0	t1,c0_ebase
bd0070fc:	3c090000 	lui	t1,0x0
bd007100:	25290001 	addiu	t1,t1,1
bd007104:	240a0000 	li	t2,0
bd007108:	7d2a4944 	ins	t2,t1,0x5,0x5
bd00710c:	408a6001 	mtc0	t2,c0_intctl
bd007110:	3c090080 	lui	t1,0x80
bd007114:	40896800 	mtc0	t1,c0_cause
bd007118:	40088000 	mfc0	t0,c0_config
bd00711c:	7d090580 	ext	t1,t0,0x16,0x1
bd007120:	00094c40 	sll	t1,t1,0x11
bd007124:	40086000 	mfc0	t0,c0_status
bd007128:	3c010058 	lui	at,0x58
bd00712c:	01014024 	and	t0,t0,at
bd007130:	01284025 	or	t0,t1,t0
bd007134:	40886000 	mtc0	t0,c0_status
bd007138:	000000c0 	ehb
bd00713c:	3c089d01 	lui	t0,0x9d01
bd007140:	25085078 	addiu	t0,t0,20600
bd007144:	0100f809 	jalr	t0
bd007148:	00000000 	nop
bd00714c:	40086000 	mfc0	t0,c0_status
bd007150:	3c01ffbf 	lui	at,0xffbf
bd007154:	3421ffff 	ori	at,at,0xffff
bd007158:	01014024 	and	t0,t0,at
bd00715c:	40886000 	mtc0	t0,c0_status
bd007160:	30840000 	andi	a0,a0,0x0
bd007164:	30a50000 	andi	a1,a1,0x0
bd007168:	3c089d01 	lui	t0,0x9d01
bd00716c:	250842ac 	addiu	t0,t0,17068
bd007170:	01000008 	jr	t0
bd007174:	00000000 	nop

Disassembly of section .bev_excpt:

bfc07380 <_bev_exception>:
bfc07380:	3c1a9d01 	lui	k0,0x9d01
bfc07384:	275a448c 	addiu	k0,k0,17548
bfc07388:	03400008 	jr	k0
bfc0738c:	00000000 	nop

Disassembly of section .app_excpt:

9d006180 <_gen_exception>:
9d006180:	3c1a9d01 	lui	k0,0x9d01
9d006184:	275a25f4 	addiu	k0,k0,9716
9d006188:	03400008 	jr	k0
9d00618c:	00000000 	nop

Disassembly of section .vector_0:

9d006200 <__vector_dispatch_0>:
9d006200:	0b405147 	j	9d01451c <_DefaultInterrupt>
9d006204:	00000000 	nop

Disassembly of section .vector_1:

9d006220 <__vector_dispatch_1>:
9d006220:	0b405147 	j	9d01451c <_DefaultInterrupt>
9d006224:	00000000 	nop

Disassembly of section .vector_2:

9d006240 <__vector_dispatch_2>:
9d006240:	0b405147 	j	9d01451c <_DefaultInterrupt>
9d006244:	00000000 	nop

Disassembly of section .vector_3:

9d006260 <__vector_dispatch_3>:
9d006260:	0b405147 	j	9d01451c <_DefaultInterrupt>
9d006264:	00000000 	nop

Disassembly of section .vector_4:

9d006280 <__vector_dispatch_4>:
9d006280:	0b405147 	j	9d01451c <_DefaultInterrupt>
9d006284:	00000000 	nop

Disassembly of section .vector_5:

9d0062a0 <__vector_dispatch_5>:
9d0062a0:	0b405147 	j	9d01451c <_DefaultInterrupt>
9d0062a4:	00000000 	nop

Disassembly of section .vector_6:

9d0062c0 <__vector_dispatch_6>:
9d0062c0:	0b405147 	j	9d01451c <_DefaultInterrupt>
9d0062c4:	00000000 	nop

Disassembly of section .vector_7:

9d0062e0 <__vector_dispatch_7>:
9d0062e0:	0b405147 	j	9d01451c <_DefaultInterrupt>
9d0062e4:	00000000 	nop

Disassembly of section .vector_8:

9d006300 <__vector_dispatch_8>:
9d006300:	0b4023fd 	j	9d008ff4 <current_controller>
9d006304:	00000000 	nop

Disassembly of section .vector_9:

9d006320 <__vector_dispatch_9>:
9d006320:	0b405147 	j	9d01451c <_DefaultInterrupt>
9d006324:	00000000 	nop

Disassembly of section .vector_10:

9d006340 <__vector_dispatch_10>:
9d006340:	0b405147 	j	9d01451c <_DefaultInterrupt>
9d006344:	00000000 	nop

Disassembly of section .vector_11:

9d006360 <__vector_dispatch_11>:
9d006360:	0b405147 	j	9d01451c <_DefaultInterrupt>
9d006364:	00000000 	nop

Disassembly of section .vector_12:

9d006380 <__vector_dispatch_12>:
9d006380:	0b405147 	j	9d01451c <_DefaultInterrupt>
9d006384:	00000000 	nop

Disassembly of section .vector_13:

9d0063a0 <__vector_dispatch_13>:
9d0063a0:	0b405147 	j	9d01451c <_DefaultInterrupt>
9d0063a4:	00000000 	nop

Disassembly of section .vector_14:

9d0063c0 <__vector_dispatch_14>:
9d0063c0:	0b405147 	j	9d01451c <_DefaultInterrupt>
9d0063c4:	00000000 	nop

Disassembly of section .vector_15:

9d0063e0 <__vector_dispatch_15>:
9d0063e0:	0b405147 	j	9d01451c <_DefaultInterrupt>
9d0063e4:	00000000 	nop

Disassembly of section .vector_16:

9d006400 <__vector_dispatch_16>:
9d006400:	0b403264 	j	9d00c990 <position_controller>
9d006404:	00000000 	nop

Disassembly of section .vector_17:

9d006420 <__vector_dispatch_17>:
9d006420:	0b405147 	j	9d01451c <_DefaultInterrupt>
9d006424:	00000000 	nop

Disassembly of section .vector_18:

9d006440 <__vector_dispatch_18>:
9d006440:	0b405147 	j	9d01451c <_DefaultInterrupt>
9d006444:	00000000 	nop

Disassembly of section .vector_19:

9d006460 <__vector_dispatch_19>:
9d006460:	0b405147 	j	9d01451c <_DefaultInterrupt>
9d006464:	00000000 	nop

Disassembly of section .vector_20:

9d006480 <__vector_dispatch_20>:
9d006480:	0b405147 	j	9d01451c <_DefaultInterrupt>
9d006484:	00000000 	nop

Disassembly of section .vector_21:

9d0064a0 <__vector_dispatch_21>:
9d0064a0:	0b405147 	j	9d01451c <_DefaultInterrupt>
9d0064a4:	00000000 	nop

Disassembly of section .vector_22:

9d0064c0 <__vector_dispatch_22>:
9d0064c0:	0b405147 	j	9d01451c <_DefaultInterrupt>
9d0064c4:	00000000 	nop

Disassembly of section .vector_23:

9d0064e0 <__vector_dispatch_23>:
9d0064e0:	0b405147 	j	9d01451c <_DefaultInterrupt>
9d0064e4:	00000000 	nop

Disassembly of section .vector_24:

9d006500 <__vector_dispatch_24>:
9d006500:	0b405147 	j	9d01451c <_DefaultInterrupt>
9d006504:	00000000 	nop

Disassembly of section .vector_25:

9d006520 <__vector_dispatch_25>:
9d006520:	0b405147 	j	9d01451c <_DefaultInterrupt>
9d006524:	00000000 	nop

Disassembly of section .vector_26:

9d006540 <__vector_dispatch_26>:
9d006540:	0b405147 	j	9d01451c <_DefaultInterrupt>
9d006544:	00000000 	nop

Disassembly of section .vector_27:

9d006560 <__vector_dispatch_27>:
9d006560:	0b405147 	j	9d01451c <_DefaultInterrupt>
9d006564:	00000000 	nop

Disassembly of section .vector_28:

9d006580 <__vector_dispatch_28>:
9d006580:	0b405147 	j	9d01451c <_DefaultInterrupt>
9d006584:	00000000 	nop

Disassembly of section .vector_29:

9d0065a0 <__vector_dispatch_29>:
9d0065a0:	0b405147 	j	9d01451c <_DefaultInterrupt>
9d0065a4:	00000000 	nop

Disassembly of section .vector_30:

9d0065c0 <__vector_dispatch_30>:
9d0065c0:	0b405147 	j	9d01451c <_DefaultInterrupt>
9d0065c4:	00000000 	nop

Disassembly of section .vector_31:

9d0065e0 <__vector_dispatch_31>:
9d0065e0:	0b405147 	j	9d01451c <_DefaultInterrupt>
9d0065e4:	00000000 	nop

Disassembly of section .vector_32:

9d006600 <__vector_dispatch_32>:
9d006600:	0b405147 	j	9d01451c <_DefaultInterrupt>
9d006604:	00000000 	nop

Disassembly of section .vector_33:

9d006620 <__vector_dispatch_33>:
9d006620:	0b405147 	j	9d01451c <_DefaultInterrupt>
9d006624:	00000000 	nop

Disassembly of section .vector_34:

9d006640 <__vector_dispatch_34>:
9d006640:	0b405147 	j	9d01451c <_DefaultInterrupt>
9d006644:	00000000 	nop

Disassembly of section .vector_35:

9d006660 <__vector_dispatch_35>:
9d006660:	0b405147 	j	9d01451c <_DefaultInterrupt>
9d006664:	00000000 	nop

Disassembly of section .vector_36:

9d006680 <__vector_dispatch_36>:
9d006680:	0b405147 	j	9d01451c <_DefaultInterrupt>
9d006684:	00000000 	nop

Disassembly of section .vector_37:

9d0066a0 <__vector_dispatch_37>:
9d0066a0:	0b40395b 	j	9d00e56c <InterruptUart2Handler>
9d0066a4:	00000000 	nop

Disassembly of section .vector_38:

9d0066c0 <__vector_dispatch_38>:
9d0066c0:	0b405147 	j	9d01451c <_DefaultInterrupt>
9d0066c4:	00000000 	nop

Disassembly of section .vector_39:

9d0066e0 <__vector_dispatch_39>:
9d0066e0:	0b405147 	j	9d01451c <_DefaultInterrupt>
9d0066e4:	00000000 	nop

Disassembly of section .vector_40:

9d006700 <__vector_dispatch_40>:
9d006700:	0b405147 	j	9d01451c <_DefaultInterrupt>
9d006704:	00000000 	nop

Disassembly of section .vector_41:

9d006720 <__vector_dispatch_41>:
9d006720:	0b405147 	j	9d01451c <_DefaultInterrupt>
9d006724:	00000000 	nop

Disassembly of section .vector_42:

9d006740 <__vector_dispatch_42>:
9d006740:	0b405147 	j	9d01451c <_DefaultInterrupt>
9d006744:	00000000 	nop

Disassembly of section .vector_43:

9d006760 <__vector_dispatch_43>:
9d006760:	0b405147 	j	9d01451c <_DefaultInterrupt>
9d006764:	00000000 	nop

Disassembly of section .rodata:

9d007490 <.rodata>:
9d007490:	32433249 	andi	v1,s2,0x3249
9d007494:	73614d20 	0x73614d20
9d007498:	3a726574 	xori	s2,s3,0x6574
9d00749c:	69616620 	0x69616620
9d0074a0:	2064656c 	addi	a0,v1,25964
9d0074a4:	72206f74 	0x72206f74
9d0074a8:	69656365 	0x69656365
9d0074ac:	41206576 	0x41206576
9d0074b0:	0a0d4b43 	j	98352d0c <_bmxdudba_address+0x98342d0c>
9d0074b4:	00000000 	nop
9d0074b8:	00000000 	nop
9d0074bc:	40080000 	mfc0	t0,c0_index
9d0074c0:	0d0a6625 	jal	94299894 <_bmxdudba_address+0x94289894>
9d0074c4:	0c000000 	jal	90000000 <_bmxdudba_address+0x8fff0000>
9d0074c8:	0d0a6425 	jal	94299094 <_bmxdudba_address+0x94289094>
9d0074cc:	0c000000 	jal	90000000 <_bmxdudba_address+0x8fff0000>
9d0074d0:	00006425 	0x6425
9d0074d4:	00006625 	0x6625
9d0074d8:	0a0d6425 	j	98359094 <_bmxdudba_address+0x98349094>
9d0074dc:	0c000000 	jal	90000000 <_bmxdudba_address+0x8fff0000>
9d0074e0:	25206425 	addiu	zero,t1,25637
9d0074e4:	000a0d66 	0xa0d66
9d0074e8:	25206625 	addiu	zero,t1,26149
9d0074ec:	000a0d66 	0xa0d66
9d0074f0:	0a0d6625 	j	98359894 <_bmxdudba_address+0x98349894>
9d0074f4:	0c000000 	jal	90000000 <_bmxdudba_address+0x8fff0000>
9d0074f8:	42c80000 	c0	0xc80000
9d0074fc:	c2c80000 	ll	t0,0(s6)
9d007500:	42200000 	c0	0x200000
9d007504:	43480000 	c0	0x1480000
9d007508:	45160000 	bc1fl	$fcc5,9d00750c <__vector_dispatch_43+0xdac>
9d00750c:	00000000 	nop
9d007510:	00000000 	nop
9d007514:	40590000 	cfc0	t9,c0_index
9d007518:	00000000 	nop
9d00751c:	40a25a00 	0x40a25a00
9d007520:	47ae147b 	c1	0x1ae147b
9d007524:	3f947ae1 	0x3f947ae1
9d007528:	00000061 	0x61
9d00752c:	00006425 	0x6425
9d007530:	00000062 	0x62
9d007534:	00000000 	nop
9d007538:	a98c55e4 	swl	t4,21988(t4)
9d00753c:	4022aaaa 	0x4022aaaa
9d007540:	42c80000 	c0	0xc80000
9d007544:	c2c80000 	ll	t0,0(s6)
9d007548:	00464e49 	0x464e49
9d00754c:	00666e69 	0x666e69
9d007550:	004e414e 	0x4e414e
9d007554:	006e616e 	0x6e616e
9d007558:	00000000 	nop
9d00755c:	3ff00000 	0x3ff00000
9d007560:	00000000 	nop
9d007564:	40240000 	0x40240000
9d007568:	00000000 	nop
9d00756c:	43500000 	c0	0x1500000
9d007570:	00000000 	nop
9d007574:	40140000 	mfc0	s4,c0_index
9d007578:	6c696e28 	0x6c696e28
9d00757c:	00000029 	0x29
9d007580:	00666e69 	0x666e69
9d007584:	006e616e 	0x6e616e
9d007588:	69666e69 	0x69666e69
9d00758c:	7974696e 	0x7974696e
9d007590:	00000000 	nop
9d007594:	006e616e 	0x6e616e
9d007598:	ffffffff 	sdc3	$31,-1(ra)
9d00759c:	7fefffff 	0x7fefffff
9d0075a0:	00000000 	nop
9d0075a4:	00100000 	sll	zero,s0,0x0
9d0075a8:	00000000 	nop
9d0075ac:	41cdcd65 	0x41cdcd65
9d0075b0:	00000000 	nop
9d0075b4:	3ff00000 	0x3ff00000
9d0075b8:	00000000 	nop
9d0075bc:	3fd00000 	0x3fd00000
9d0075c0:	00000000 	nop
9d0075c4:	3fe80000 	0x3fe80000
9d0075c8:	00000000 	nop
9d0075cc:	3fe00000 	0x3fe00000
9d0075d0:	00000000 	nop
9d0075d4:	43400000 	c0	0x1400000
9d0075d8:	00000000 	nop
9d0075dc:	fff00000 	sdc3	$16,0(ra)
9d0075e0:	ffffffff 	sdc3	$31,-1(ra)
9d0075e4:	7ff7ffff 	0x7ff7ffff
9d0075e8:	00000000 	nop
9d0075ec:	7ff00000 	ext	s0,ra,0x0,0x1
9d0075f0:	00000000 	nop
9d0075f4:	3fb00000 	0x3fb00000
9d0075f8:	00000000 	nop
9d0075fc:	c08ff000 	ll	t7,-4096(a0)
9d007600:	00000000 	nop
9d007604:	3ff00000 	0x3ff00000
9d007608:	00000000 	nop
9d00760c:	3fe00000 	0x3fe00000
9d007610:	30773b76 	andi	s7,v1,0x3b76
9d007614:	7fde42d1 	pick.ph	t0,s8,s8
9d007618:	00000000 	nop
9d00761c:	43e00000 	c0	0x1e00000
9d007620:	00000000 	nop
9d007624:	c3e00000 	ll	zero,0(ra)
9d007628:	f0000000 	0xf0000000
9d00762c:	341fffff 	li	ra,0xffff
9d007630:	00000000 	nop
9d007634:	07f00000 	bltzal	ra,9d007638 <__vector_dispatch_43+0xed8>
9d007638:	00000000 	nop
9d00763c:	7fe00000 	ext	zero,ra,0x0,0x1
9d007640:	00000000 	nop
9d007644:	03600000 	0x3600000
9d007648:	00000000 	nop
9d00764c:	41f00000 	0x41f00000
9d007650:	00000000 	nop
9d007654:	41f00000 	0x41f00000

Disassembly of section ._debug_exception:

bfc00480 <__DbgExecReturn>:
bfc00480:	409bf800 	mtc0	k1,c0_desave
bfc00484:	000000c0 	ehb
bfc00488:	3c1b9d01 	lui	k1,0x9d01
bfc0048c:	277b45f4 	addiu	k1,k1,17908
bfc00490:	13600002 	beqz	k1,bfc0049c <__DbgExecReturn+0x1c>
bfc00494:	00000000 	nop
bfc00498:	409bc000 	mtc0	k1,c0_depc
bfc0049c:	401bf800 	mfc0	k1,c0_desave
bfc004a0:	000000c0 	ehb
bfc004a4:	4200001f 	deret
bfc004a8:	00000000 	nop

Disassembly of section .text.decfloat:

9d007658 <decfloat>:
9d007658:	27bdfdb0 	addiu	sp,sp,-592
9d00765c:	afb30234 	sw	s3,564(sp)
9d007660:	afb1022c 	sw	s1,556(sp)
9d007664:	afb00228 	sw	s0,552(sp)
9d007668:	afbf024c 	sw	ra,588(sp)
9d00766c:	afbe0248 	sw	s8,584(sp)
9d007670:	afb70244 	sw	s7,580(sp)
9d007674:	afb60240 	sw	s6,576(sp)
9d007678:	afb5023c 	sw	s5,572(sp)
9d00767c:	afb40238 	sw	s4,568(sp)
9d007680:	afb20230 	sw	s2,560(sp)
9d007684:	00808825 	move	s1,a0
9d007688:	00a01025 	move	v0,a1
9d00768c:	afa60258 	sw	a2,600(sp)
9d007690:	afa7025c 	sw	a3,604(sp)
9d007694:	00009825 	move	s3,zero
9d007698:	24100030 	li	s0,48
9d00769c:	1050004c 	beq	v0,s0,9d0077d0 <decfloat+0x178>
9d0076a0:	2403002e 	li	v1,46
9d0076a4:	1443006d 	bne	v0,v1,9d00785c <decfloat+0x204>
9d0076a8:	00009025 	move	s2,zero
9d0076ac:	8e22003c 	lw	v0,60(s1)
9d0076b0:	8e23004c 	lw	v1,76(s1)
9d0076b4:	0043182b 	sltu	v1,v0,v1
9d0076b8:	10600052 	beqz	v1,9d007804 <decfloat+0x1ac>
9d0076bc:	24430001 	addiu	v1,v0,1
9d0076c0:	ae23003c 	sw	v1,60(s1)
9d0076c4:	90420000 	lbu	v0,0(v0)
9d0076c8:	00008025 	move	s0,zero
9d0076cc:	0000a025 	move	s4,zero
9d0076d0:	24150030 	li	s5,48
9d0076d4:	1055004f 	beq	v0,s5,9d007814 <decfloat+0x1bc>
9d0076d8:	24120001 	li	s2,1
9d0076dc:	afa00010 	sw	zero,16(sp)
9d0076e0:	0000b825 	move	s7,zero
9d0076e4:	0000f025 	move	s8,zero
9d0076e8:	00003025 	move	a2,zero
9d0076ec:	0000b025 	move	s6,zero
9d0076f0:	0000a825 	move	s5,zero
9d0076f4:	2407002e 	li	a3,46
9d0076f8:	24090030 	li	t1,48
9d0076fc:	240a0009 	li	t2,9
9d007700:	244bffd0 	addiu	t3,v0,-48
9d007704:	2d64000a 	sltiu	a0,t3,10
9d007708:	14800057 	bnez	a0,9d007868 <decfloat+0x210>
9d00770c:	00000000 	nop
9d007710:	10470057 	beq	v0,a3,9d007870 <decfloat+0x218>
9d007714:	00000000 	nop
9d007718:	03d2800a 	movz	s0,s8,s2
9d00771c:	00d2a00a 	movz	s4,a2,s2
9d007720:	1260030c 	beqz	s3,9d008354 <decfloat+0xcfc>
9d007724:	34430020 	ori	v1,v0,0x20
9d007728:	24040065 	li	a0,101
9d00772c:	14640326 	bne	v1,a0,9d0083c8 <decfloat+0xd70>
9d007730:	8fa50264 	lw	a1,612(sp)
9d007734:	02202025 	move	a0,s1
9d007738:	0f403d07 	jal	9d00f41c <scanexp>
9d00773c:	afa60210 	sw	a2,528(sp)
9d007740:	1440000e 	bnez	v0,9d00777c <decfloat+0x124>
9d007744:	8fa60210 	lw	a2,528(sp)
9d007748:	3c048000 	lui	a0,0x8000
9d00774c:	5464000c 	bnel	v1,a0,9d007780 <decfloat+0x128>
9d007750:	02021021 	addu	v0,s0,v0
9d007754:	8fa30264 	lw	v1,612(sp)
9d007758:	1060030b 	beqz	v1,9d008388 <decfloat+0xd30>
9d00775c:	00002825 	move	a1,zero
9d007760:	8e24004c 	lw	a0,76(s1)
9d007764:	10800005 	beqz	a0,9d00777c <decfloat+0x124>
9d007768:	00001825 	move	v1,zero
9d00776c:	8e23003c 	lw	v1,60(s1)
9d007770:	2463ffff 	addiu	v1,v1,-1
9d007774:	ae23003c 	sw	v1,60(s1)
9d007778:	00401825 	move	v1,v0
9d00777c:	02021021 	addu	v0,s0,v0
9d007780:	0050202b 	sltu	a0,v0,s0
9d007784:	0283a021 	addu	s4,s4,v1
9d007788:	00408025 	move	s0,v0
9d00778c:	0094a021 	addu	s4,a0,s4
9d007790:	8fa40260 	lw	a0,608(sp)
9d007794:	8fb10010 	lw	s1,16(sp)
9d007798:	0f404ec2 	jal	9d013b08 <__floatsidf>
9d00779c:	afa60210 	sw	a2,528(sp)
9d0077a0:	00409025 	move	s2,v0
9d0077a4:	00609825 	move	s3,v1
9d0077a8:	16200065 	bnez	s1,9d007940 <decfloat+0x2e8>
9d0077ac:	8fa60210 	lw	a2,528(sp)
9d0077b0:	00003025 	move	a2,zero
9d0077b4:	00003825 	move	a3,zero
9d0077b8:	00402025 	move	a0,v0
9d0077bc:	00602825 	move	a1,v1
9d0077c0:	0f403b8f 	jal	9d00ee3c <__muldf3>
9d0077c4:	00000000 	nop
9d0077c8:	100002f4 	b	9d00839c <decfloat+0xd44>
9d0077cc:	8fbf024c 	lw	ra,588(sp)
9d0077d0:	8e22003c 	lw	v0,60(s1)
9d0077d4:	8e23004c 	lw	v1,76(s1)
9d0077d8:	0043182b 	sltu	v1,v0,v1
9d0077dc:	10600005 	beqz	v1,9d0077f4 <decfloat+0x19c>
9d0077e0:	24430001 	addiu	v1,v0,1
9d0077e4:	ae23003c 	sw	v1,60(s1)
9d0077e8:	90420000 	lbu	v0,0(v0)
9d0077ec:	1000ffab 	b	9d00769c <decfloat+0x44>
9d0077f0:	24130001 	li	s3,1
9d0077f4:	0f404aa5 	jal	9d012a94 <__shgetc>
9d0077f8:	02202025 	move	a0,s1
9d0077fc:	1000ffa7 	b	9d00769c <decfloat+0x44>
9d007800:	24130001 	li	s3,1
9d007804:	0f404aa5 	jal	9d012a94 <__shgetc>
9d007808:	02202025 	move	a0,s1
9d00780c:	1000ffaf 	b	9d0076cc <decfloat+0x74>
9d007810:	00008025 	move	s0,zero
9d007814:	8e22003c 	lw	v0,60(s1)
9d007818:	8e23004c 	lw	v1,76(s1)
9d00781c:	0043182b 	sltu	v1,v0,v1
9d007820:	1060000a 	beqz	v1,9d00784c <decfloat+0x1f4>
9d007824:	24430001 	addiu	v1,v0,1
9d007828:	ae23003c 	sw	v1,60(s1)
9d00782c:	90420000 	lbu	v0,0(v0)
9d007830:	2604ffff 	addiu	a0,s0,-1
9d007834:	0090182b 	sltu	v1,a0,s0
9d007838:	2694ffff 	addiu	s4,s4,-1
9d00783c:	00808025 	move	s0,a0
9d007840:	0074a021 	addu	s4,v1,s4
9d007844:	1000ffa3 	b	9d0076d4 <decfloat+0x7c>
9d007848:	24130001 	li	s3,1
9d00784c:	0f404aa5 	jal	9d012a94 <__shgetc>
9d007850:	02202025 	move	a0,s1
9d007854:	1000fff7 	b	9d007834 <decfloat+0x1dc>
9d007858:	2604ffff 	addiu	a0,s0,-1
9d00785c:	00008025 	move	s0,zero
9d007860:	1000ff9e 	b	9d0076dc <decfloat+0x84>
9d007864:	0000a025 	move	s4,zero
9d007868:	1447000d 	bne	v0,a3,9d0078a0 <decfloat+0x248>
9d00786c:	27c40001 	addiu	a0,s8,1
9d007870:	16400031 	bnez	s2,9d007938 <decfloat+0x2e0>
9d007874:	24120001 	li	s2,1
9d007878:	03c08025 	move	s0,s8
9d00787c:	00c0a025 	move	s4,a2
9d007880:	8e22003c 	lw	v0,60(s1)
9d007884:	8e24004c 	lw	a0,76(s1)
9d007888:	0044202b 	sltu	a0,v0,a0
9d00788c:	10800022 	beqz	a0,9d007918 <decfloat+0x2c0>
9d007890:	24440001 	addiu	a0,v0,1
9d007894:	ae24003c 	sw	a0,60(s1)
9d007898:	1000ff99 	b	9d007700 <decfloat+0xa8>
9d00789c:	90420000 	lbu	v0,0(v0)
9d0078a0:	009e282b 	sltu	a1,a0,s8
9d0078a4:	0080f025 	move	s8,a0
9d0078a8:	2ac4007d 	slti	a0,s6,125
9d0078ac:	10800014 	beqz	a0,9d007900 <decfloat+0x2a8>
9d0078b0:	00a63021 	addu	a2,a1,a2
9d0078b4:	38420030 	xori	v0,v0,0x30
9d0078b8:	03c2b80b 	movn	s7,s8,v0
9d0078bc:	12a00007 	beqz	s5,9d0078dc <decfloat+0x284>
9d0078c0:	00161080 	sll	v0,s6,0x2
9d0078c4:	27a30010 	addiu	v1,sp,16
9d0078c8:	00622021 	addu	a0,v1,v0
9d0078cc:	8c840000 	lw	a0,0(a0)
9d0078d0:	2405000a 	li	a1,10
9d0078d4:	70a41802 	mul	v1,a1,a0
9d0078d8:	006b5821 	addu	t3,v1,t3
9d0078dc:	27a30010 	addiu	v1,sp,16
9d0078e0:	00621021 	addu	v0,v1,v0
9d0078e4:	26b50001 	addiu	s5,s5,1
9d0078e8:	ac4b0000 	sw	t3,0(v0)
9d0078ec:	16aaffe4 	bne	s5,t2,9d007880 <decfloat+0x228>
9d0078f0:	24130001 	li	s3,1
9d0078f4:	26d60001 	addiu	s6,s6,1
9d0078f8:	1000ffe1 	b	9d007880 <decfloat+0x228>
9d0078fc:	0000a825 	move	s5,zero
9d007900:	1049ffdf 	beq	v0,t1,9d007880 <decfloat+0x228>
9d007904:	8fa20200 	lw	v0,512(sp)
9d007908:	2417045c 	li	s7,1116
9d00790c:	34420001 	ori	v0,v0,0x1
9d007910:	1000ffdb 	b	9d007880 <decfloat+0x228>
9d007914:	afa20200 	sw	v0,512(sp)
9d007918:	02202025 	move	a0,s1
9d00791c:	0f404aa5 	jal	9d012a94 <__shgetc>
9d007920:	afa60210 	sw	a2,528(sp)
9d007924:	240a0009 	li	t2,9
9d007928:	24090030 	li	t1,48
9d00792c:	2407002e 	li	a3,46
9d007930:	1000ff73 	b	9d007700 <decfloat+0xa8>
9d007934:	8fa60210 	lw	a2,528(sp)
9d007938:	1000ff79 	b	9d007720 <decfloat+0xc8>
9d00793c:	2402002e 	li	v0,46
9d007940:	17d00016 	bne	s8,s0,9d00799c <decfloat+0x344>
9d007944:	8fa2025c 	lw	v0,604(sp)
9d007948:	14d40015 	bne	a2,s4,9d0079a0 <decfloat+0x348>
9d00794c:	8fa3025c 	lw	v1,604(sp)
9d007950:	1e800014 	bgtz	s4,9d0079a4 <decfloat+0x34c>
9d007954:	000217c2 	srl	v0,v0,0x1f
9d007958:	16800003 	bnez	s4,9d007968 <decfloat+0x310>
9d00795c:	2e02000a 	sltiu	v0,s0,10
9d007960:	1040000f 	beqz	v0,9d0079a0 <decfloat+0x348>
9d007964:	8fa2025c 	lw	v0,604(sp)
9d007968:	8fa20258 	lw	v0,600(sp)
9d00796c:	2842001f 	slti	v0,v0,31
9d007970:	10400005 	beqz	v0,9d007988 <decfloat+0x330>
9d007974:	00000000 	nop
9d007978:	8fa20258 	lw	v0,600(sp)
9d00797c:	00511006 	srlv	v0,s1,v0
9d007980:	54400006 	bnezl	v0,9d00799c <decfloat+0x344>
9d007984:	8fa2025c 	lw	v0,604(sp)
9d007988:	0f4051b0 	jal	9d0146c0 <__floatunsidf>
9d00798c:	02202025 	move	a0,s1
9d007990:	02403025 	move	a2,s2
9d007994:	1000ff88 	b	9d0077b8 <decfloat+0x160>
9d007998:	02603825 	move	a3,s3
9d00799c:	8fa3025c 	lw	v1,604(sp)
9d0079a0:	000217c2 	srl	v0,v0,0x1f
9d0079a4:	00431021 	addu	v0,v0,v1
9d0079a8:	00021043 	sra	v0,v0,0x1
9d0079ac:	00021023 	negu	v0,v0
9d0079b0:	00021fc3 	sra	v1,v0,0x1f
9d0079b4:	0074202a 	slt	a0,v1,s4
9d0079b8:	54800006 	bnezl	a0,9d0079d4 <decfloat+0x37c>
9d0079bc:	3c109d00 	lui	s0,0x9d00
9d0079c0:	1683000f 	bne	s4,v1,9d007a00 <decfloat+0x3a8>
9d0079c4:	0050102b 	sltu	v0,v0,s0
9d0079c8:	5040000e 	beqzl	v0,9d007a04 <decfloat+0x3ac>
9d0079cc:	8fa2025c 	lw	v0,604(sp)
9d0079d0:	3c109d00 	lui	s0,0x9d00
9d0079d4:	8e067598 	lw	a2,30104(s0)
9d0079d8:	8e07759c 	lw	a3,30108(s0)
9d0079dc:	3c02a001 	lui	v0,0xa001
9d0079e0:	24030022 	li	v1,34
9d0079e4:	ac43a378 	sw	v1,-23688(v0)
9d0079e8:	02402025 	move	a0,s2
9d0079ec:	0f403b8f 	jal	9d00ee3c <__muldf3>
9d0079f0:	02602825 	move	a1,s3
9d0079f4:	8e067598 	lw	a2,30104(s0)
9d0079f8:	1000ff6f 	b	9d0077b8 <decfloat+0x160>
9d0079fc:	8e07759c 	lw	a3,30108(s0)
9d007a00:	8fa2025c 	lw	v0,604(sp)
9d007a04:	2442ff96 	addiu	v0,v0,-106
9d007a08:	00021fc3 	sra	v1,v0,0x1f
9d007a0c:	0283202a 	slt	a0,s4,v1
9d007a10:	54800006 	bnezl	a0,9d007a2c <decfloat+0x3d4>
9d007a14:	3c109d00 	lui	s0,0x9d00
9d007a18:	1474000f 	bne	v1,s4,9d007a58 <decfloat+0x400>
9d007a1c:	0202102b 	sltu	v0,s0,v0
9d007a20:	1040000d 	beqz	v0,9d007a58 <decfloat+0x400>
9d007a24:	00000000 	nop
9d007a28:	3c109d00 	lui	s0,0x9d00
9d007a2c:	8e0675a0 	lw	a2,30112(s0)
9d007a30:	8e0775a4 	lw	a3,30116(s0)
9d007a34:	3c02a001 	lui	v0,0xa001
9d007a38:	24030022 	li	v1,34
9d007a3c:	ac43a378 	sw	v1,-23688(v0)
9d007a40:	02402025 	move	a0,s2
9d007a44:	0f403b8f 	jal	9d00ee3c <__muldf3>
9d007a48:	02602825 	move	a1,s3
9d007a4c:	8e0675a0 	lw	a2,30112(s0)
9d007a50:	1000ff59 	b	9d0077b8 <decfloat+0x160>
9d007a54:	8e0775a4 	lw	a3,30116(s0)
9d007a58:	12a00008 	beqz	s5,9d007a7c <decfloat+0x424>
9d007a5c:	00161080 	sll	v0,s6,0x2
9d007a60:	27a30010 	addiu	v1,sp,16
9d007a64:	00621021 	addu	v0,v1,v0
9d007a68:	2404000a 	li	a0,10
9d007a6c:	2aa30009 	slti	v1,s5,9
9d007a70:	54600027 	bnezl	v1,9d007b10 <decfloat+0x4b8>
9d007a74:	8c430000 	lw	v1,0(v0)
9d007a78:	26d60001 	addiu	s6,s6,1
9d007a7c:	2ae20009 	slti	v0,s7,9
9d007a80:	10400047 	beqz	v0,9d007ba0 <decfloat+0x548>
9d007a84:	0200a025 	move	s4,s0
9d007a88:	0217b82a 	slt	s7,s0,s7
9d007a8c:	16e00044 	bnez	s7,9d007ba0 <decfloat+0x548>
9d007a90:	2a020012 	slti	v0,s0,18
9d007a94:	10400042 	beqz	v0,9d007ba0 <decfloat+0x548>
9d007a98:	24020009 	li	v0,9
9d007a9c:	1202ffba 	beq	s0,v0,9d007988 <decfloat+0x330>
9d007aa0:	8fb10010 	lw	s1,16(sp)
9d007aa4:	2a020009 	slti	v0,s0,9
9d007aa8:	5040001d 	beqzl	v0,9d007b20 <decfloat+0x4c8>
9d007aac:	2602fff7 	addiu	v0,s0,-9
9d007ab0:	0f4051b0 	jal	9d0146c0 <__floatunsidf>
9d007ab4:	02202025 	move	a0,s1
9d007ab8:	00602825 	move	a1,v1
9d007abc:	02403025 	move	a2,s2
9d007ac0:	02603825 	move	a3,s3
9d007ac4:	0f403b8f 	jal	9d00ee3c <__muldf3>
9d007ac8:	00402025 	move	a0,v0
9d007acc:	00409025 	move	s2,v0
9d007ad0:	24020008 	li	v0,8
9d007ad4:	00508023 	subu	s0,v0,s0
9d007ad8:	3c029d01 	lui	v0,0x9d01
9d007adc:	24424afc 	addiu	v0,v0,19196
9d007ae0:	00108080 	sll	s0,s0,0x2
9d007ae4:	02028021 	addu	s0,s0,v0
9d007ae8:	8e040000 	lw	a0,0(s0)
9d007aec:	0f404ec2 	jal	9d013b08 <__floatsidf>
9d007af0:	00609825 	move	s3,v1
9d007af4:	00403025 	move	a2,v0
9d007af8:	00603825 	move	a3,v1
9d007afc:	02402025 	move	a0,s2
9d007b00:	0f403136 	jal	9d00c4d8 <__divdf3>
9d007b04:	02602825 	move	a1,s3
9d007b08:	10000224 	b	9d00839c <decfloat+0xd44>
9d007b0c:	8fbf024c 	lw	ra,588(sp)
9d007b10:	26b50001 	addiu	s5,s5,1
9d007b14:	70641802 	mul	v1,v1,a0
9d007b18:	1000ffd4 	b	9d007a6c <decfloat+0x414>
9d007b1c:	ac430000 	sw	v1,0(v0)
9d007b20:	00021880 	sll	v1,v0,0x2
9d007b24:	00431023 	subu	v0,v0,v1
9d007b28:	8fa30258 	lw	v1,600(sp)
9d007b2c:	00431021 	addu	v0,v0,v1
9d007b30:	2843001f 	slti	v1,v0,31
9d007b34:	50600005 	beqzl	v1,9d007b4c <decfloat+0x4f4>
9d007b38:	2610fff6 	addiu	s0,s0,-10
9d007b3c:	00511006 	srlv	v0,s1,v0
9d007b40:	54400018 	bnezl	v0,9d007ba4 <decfloat+0x54c>
9d007b44:	26c3ffff 	addiu	v1,s6,-1
9d007b48:	2610fff6 	addiu	s0,s0,-10
9d007b4c:	3c029d01 	lui	v0,0x9d01
9d007b50:	24424afc 	addiu	v0,v0,19196
9d007b54:	00108080 	sll	s0,s0,0x2
9d007b58:	02028021 	addu	s0,s0,v0
9d007b5c:	0f404ec2 	jal	9d013b08 <__floatsidf>
9d007b60:	8e040000 	lw	a0,0(s0)
9d007b64:	02202025 	move	a0,s1
9d007b68:	0040a025 	move	s4,v0
9d007b6c:	0f4051b0 	jal	9d0146c0 <__floatunsidf>
9d007b70:	0060a825 	move	s5,v1
9d007b74:	00402025 	move	a0,v0
9d007b78:	02403025 	move	a2,s2
9d007b7c:	02603825 	move	a3,s3
9d007b80:	0f403b8f 	jal	9d00ee3c <__muldf3>
9d007b84:	00602825 	move	a1,v1
9d007b88:	00403025 	move	a2,v0
9d007b8c:	00603825 	move	a3,v1
9d007b90:	02802025 	move	a0,s4
9d007b94:	1000ff0a 	b	9d0077c0 <decfloat+0x168>
9d007b98:	02a02825 	move	a1,s5
9d007b9c:	0060b025 	move	s6,v1
9d007ba0:	26c3ffff 	addiu	v1,s6,-1
9d007ba4:	00031080 	sll	v0,v1,0x2
9d007ba8:	27a40010 	addiu	a0,sp,16
9d007bac:	00821021 	addu	v0,a0,v0
9d007bb0:	8c420000 	lw	v0,0(v0)
9d007bb4:	1040fff9 	beqz	v0,9d007b9c <decfloat+0x544>
9d007bb8:	24090009 	li	t1,9
9d007bbc:	0209001a 	div	zero,s0,t1
9d007bc0:	012001f4 	teq	t1,zero,0x7
9d007bc4:	00004810 	mfhi	t1
9d007bc8:	1120001c 	beqz	t1,9d007c3c <decfloat+0x5e4>
9d007bcc:	3c0c0089 	lui	t4,0x89
9d007bd0:	06020001 	bltzl	s0,9d007bd8 <decfloat+0x580>
9d007bd4:	25290009 	addiu	t1,t1,9
9d007bd8:	24020008 	li	v0,8
9d007bdc:	00491023 	subu	v0,v0,t1
9d007be0:	3c039d01 	lui	v1,0x9d01
9d007be4:	24634afc 	addiu	v1,v1,19196
9d007be8:	00021080 	sll	v0,v0,0x2
9d007bec:	00431021 	addu	v0,v0,v1
9d007bf0:	8c460000 	lw	a2,0(v0)
9d007bf4:	3c073b9a 	lui	a3,0x3b9a
9d007bf8:	27a50010 	addiu	a1,sp,16
9d007bfc:	00001825 	move	v1,zero
9d007c00:	00005025 	move	t2,zero
9d007c04:	00002025 	move	a0,zero
9d007c08:	34e7ca00 	ori	a3,a3,0xca00
9d007c0c:	54960052 	bnel	a0,s6,9d007d58 <decfloat+0x700>
9d007c10:	8ca20000 	lw	v0,0(a1)
9d007c14:	10600005 	beqz	v1,9d007c2c <decfloat+0x5d4>
9d007c18:	00161080 	sll	v0,s6,0x2
9d007c1c:	27a40010 	addiu	a0,sp,16
9d007c20:	00821021 	addu	v0,a0,v0
9d007c24:	ac430000 	sw	v1,0(v0)
9d007c28:	26d60001 	addiu	s6,s6,1
9d007c2c:	0289a023 	subu	s4,s4,t1
9d007c30:	26940009 	addiu	s4,s4,9
9d007c34:	01404825 	move	t1,t2
9d007c38:	3c0c0089 	lui	t4,0x89
9d007c3c:	3c103b9a 	lui	s0,0x3b9a
9d007c40:	3c0d3b9a 	lui	t5,0x3b9a
9d007c44:	0000b825 	move	s7,zero
9d007c48:	240e0012 	li	t6,18
9d007c4c:	258c705f 	addiu	t4,t4,28767
9d007c50:	3610ca00 	ori	s0,s0,0xca00
9d007c54:	00008825 	move	s1,zero
9d007c58:	35adca01 	ori	t5,t5,0xca01
9d007c5c:	2a820012 	slti	v0,s4,18
9d007c60:	14400050 	bnez	v0,9d007da4 <decfloat+0x74c>
9d007c64:	26d5ffff 	addiu	s5,s6,-1
9d007c68:	168e0007 	bne	s4,t6,9d007c88 <decfloat+0x630>
9d007c6c:	00091080 	sll	v0,t1,0x2
9d007c70:	27a30010 	addiu	v1,sp,16
9d007c74:	00621021 	addu	v0,v1,v0
9d007c78:	8c420000 	lw	v0,0(v0)
9d007c7c:	004c102b 	sltu	v0,v0,t4
9d007c80:	14400049 	bnez	v0,9d007da8 <decfloat+0x750>
9d007c84:	32b5007f 	andi	s5,s5,0x7f
9d007c88:	3c040089 	lui	a0,0x89
9d007c8c:	3c050f2f 	lui	a1,0xf2f
9d007c90:	3c063b9a 	lui	a2,0x3b9a
9d007c94:	240a0012 	li	t2,18
9d007c98:	2484705f 	addiu	a0,a0,28767
9d007c9c:	24a50a00 	addiu	a1,a1,2560
9d007ca0:	24070001 	li	a3,1
9d007ca4:	240b0009 	li	t3,9
9d007ca8:	34c6ca00 	ori	a2,a2,0xca00
9d007cac:	11360012 	beq	t1,s6,9d007cf8 <decfloat+0x6a0>
9d007cb0:	27a30010 	addiu	v1,sp,16
9d007cb4:	00091080 	sll	v0,t1,0x2
9d007cb8:	00621021 	addu	v0,v1,v0
9d007cbc:	8c420000 	lw	v0,0(v0)
9d007cc0:	0044182b 	sltu	v1,v0,a0
9d007cc4:	1460000c 	bnez	v1,9d007cf8 <decfloat+0x6a0>
9d007cc8:	00000000 	nop
9d007ccc:	1444000c 	bne	v0,a0,9d007d00 <decfloat+0x6a8>
9d007cd0:	25220001 	addiu	v0,t1,1
9d007cd4:	3042007f 	andi	v0,v0,0x7f
9d007cd8:	12c20007 	beq	s6,v0,9d007cf8 <decfloat+0x6a0>
9d007cdc:	00021080 	sll	v0,v0,0x2
9d007ce0:	27a30010 	addiu	v1,sp,16
9d007ce4:	00621021 	addu	v0,v1,v0
9d007ce8:	8c420000 	lw	v0,0(v0)
9d007cec:	0045102b 	sltu	v0,v0,a1
9d007cf0:	10400004 	beqz	v0,9d007d04 <decfloat+0x6ac>
9d007cf4:	2a83001c 	slti	v1,s4,28
9d007cf8:	128a0093 	beq	s4,t2,9d007f48 <decfloat+0x8f0>
9d007cfc:	00000000 	nop
9d007d00:	2a83001c 	slti	v1,s4,28
9d007d04:	01601025 	move	v0,t3
9d007d08:	00e3100b 	movn	v0,a3,v1
9d007d0c:	0047c004 	sllv	t8,a3,v0
9d007d10:	00401825 	move	v1,v0
9d007d14:	0046c807 	srav	t9,a2,v0
9d007d18:	2718ffff 	addiu	t8,t8,-1
9d007d1c:	01201025 	move	v0,t1
9d007d20:	00006025 	move	t4,zero
9d007d24:	5456006d 	bnel	v0,s6,9d007edc <decfloat+0x884>
9d007d28:	00027080 	sll	t6,v0,0x2
9d007d2c:	11800008 	beqz	t4,9d007d50 <decfloat+0x6f8>
9d007d30:	26c20001 	addiu	v0,s6,1
9d007d34:	3042007f 	andi	v0,v0,0x7f
9d007d38:	1049007a 	beq	v0,t1,9d007f24 <decfloat+0x8cc>
9d007d3c:	00164080 	sll	t0,s6,0x2
9d007d40:	27ad0010 	addiu	t5,sp,16
9d007d44:	01a84021 	addu	t0,t5,t0
9d007d48:	ad0c0000 	sw	t4,0(t0)
9d007d4c:	0040b025 	move	s6,v0
9d007d50:	1000ffd6 	b	9d007cac <decfloat+0x654>
9d007d54:	02e3b821 	addu	s7,s7,v1
9d007d58:	248b0001 	addiu	t3,a0,1
9d007d5c:	0046001b 	divu	zero,v0,a2
9d007d60:	00c001f4 	teq	a2,zero,0x7
9d007d64:	00001012 	mflo	v0
9d007d68:	00431021 	addu	v0,v0,v1
9d007d6c:	148a0005 	bne	a0,t2,9d007d84 <decfloat+0x72c>
9d007d70:	00006010 	mfhi	t4
9d007d74:	14400003 	bnez	v0,9d007d84 <decfloat+0x72c>
9d007d78:	00000000 	nop
9d007d7c:	316a007f 	andi	t2,t3,0x7f
9d007d80:	2694fff7 	addiu	s4,s4,-9
9d007d84:	00e6001a 	div	zero,a3,a2
9d007d88:	00c001f4 	teq	a2,zero,0x7
9d007d8c:	aca20000 	sw	v0,0(a1)
9d007d90:	01602025 	move	a0,t3
9d007d94:	24a50004 	addiu	a1,a1,4
9d007d98:	00001012 	mflo	v0
9d007d9c:	1000ff9b 	b	9d007c0c <decfloat+0x5b4>
9d007da0:	704c1802 	mul	v1,v0,t4
9d007da4:	32b5007f 	andi	s5,s5,0x7f
9d007da8:	00005025 	move	t2,zero
9d007dac:	00155880 	sll	t3,s5,0x2
9d007db0:	27a20010 	addiu	v0,sp,16
9d007db4:	004b1021 	addu	v0,v0,t3
9d007db8:	8c5e0000 	lw	s8,0(v0)
9d007dbc:	001e10c2 	srl	v0,s8,0x3
9d007dc0:	001ef740 	sll	s8,s8,0x1d
9d007dc4:	03ca7821 	addu	t7,s8,t2
9d007dc8:	01fef02b 	sltu	s8,t7,s8
9d007dcc:	03c2f021 	addu	s8,s8,v0
9d007dd0:	17c00003 	bnez	s8,9d007de0 <decfloat+0x788>
9d007dd4:	01ed102b 	sltu	v0,t7,t5
9d007dd8:	14400024 	bnez	v0,9d007e6c <decfloat+0x814>
9d007ddc:	01e01025 	move	v0,t7
9d007de0:	01e02025 	move	a0,t7
9d007de4:	02003025 	move	a2,s0
9d007de8:	02203825 	move	a3,s1
9d007dec:	03c02825 	move	a1,s8
9d007df0:	afab0220 	sw	t3,544(sp)
9d007df4:	afa90218 	sw	t1,536(sp)
9d007df8:	0f4039b2 	jal	9d00e6c8 <__udivdi3>
9d007dfc:	afaf0214 	sw	t7,532(sp)
9d007e00:	8faf0214 	lw	t7,532(sp)
9d007e04:	02003025 	move	a2,s0
9d007e08:	02203825 	move	a3,s1
9d007e0c:	01e02025 	move	a0,t7
9d007e10:	03c02825 	move	a1,s8
9d007e14:	0f403aa1 	jal	9d00ea84 <__umoddi3>
9d007e18:	afa20210 	sw	v0,528(sp)
9d007e1c:	3c030089 	lui	v1,0x89
9d007e20:	8faa0210 	lw	t2,528(sp)
9d007e24:	8fa90218 	lw	t1,536(sp)
9d007e28:	8fab0220 	lw	t3,544(sp)
9d007e2c:	346c705f 	ori	t4,v1,0x705f
9d007e30:	3c033b9a 	lui	v1,0x3b9a
9d007e34:	240e0012 	li	t6,18
9d007e38:	346dca01 	ori	t5,v1,0xca01
9d007e3c:	27a30010 	addiu	v1,sp,16
9d007e40:	006b5821 	addu	t3,v1,t3
9d007e44:	26c3ffff 	addiu	v1,s6,-1
9d007e48:	3063007f 	andi	v1,v1,0x7f
9d007e4c:	14750009 	bne	v1,s5,9d007e74 <decfloat+0x81c>
9d007e50:	ad620000 	sw	v0,0(t3)
9d007e54:	52a90009 	beql	s5,t1,9d007e7c <decfloat+0x824>
9d007e58:	01201825 	move	v1,t1
9d007e5c:	02a2b00a 	movz	s6,s5,v0
9d007e60:	26b5ffff 	addiu	s5,s5,-1
9d007e64:	1000ffd1 	b	9d007dac <decfloat+0x754>
9d007e68:	32b5007f 	andi	s5,s5,0x7f
9d007e6c:	1000fff3 	b	9d007e3c <decfloat+0x7e4>
9d007e70:	00005025 	move	t2,zero
9d007e74:	56a9fffb 	bnel	s5,t1,9d007e64 <decfloat+0x80c>
9d007e78:	26b5ffff 	addiu	s5,s5,-1
9d007e7c:	5140ff77 	beqzl	t2,9d007c5c <decfloat+0x604>
9d007e80:	26f7ffe3 	addiu	s7,s7,-29
9d007e84:	2529ffff 	addiu	t1,t1,-1
9d007e88:	3129007f 	andi	t1,t1,0x7f
9d007e8c:	16c9000c 	bne	s6,t1,9d007ec0 <decfloat+0x868>
9d007e90:	2462ffff 	addiu	v0,v1,-1
9d007e94:	3042007f 	andi	v0,v0,0x7f
9d007e98:	27a40010 	addiu	a0,sp,16
9d007e9c:	00021080 	sll	v0,v0,0x2
9d007ea0:	00032880 	sll	a1,v1,0x2
9d007ea4:	00821021 	addu	v0,a0,v0
9d007ea8:	00852821 	addu	a1,a0,a1
9d007eac:	8ca50000 	lw	a1,0(a1)
9d007eb0:	8c440000 	lw	a0,0(v0)
9d007eb4:	0060b025 	move	s6,v1
9d007eb8:	00852025 	or	a0,a0,a1
9d007ebc:	ac440000 	sw	a0,0(v0)
9d007ec0:	00091080 	sll	v0,t1,0x2
9d007ec4:	27a30010 	addiu	v1,sp,16
9d007ec8:	00621021 	addu	v0,v1,v0
9d007ecc:	26940009 	addiu	s4,s4,9
9d007ed0:	ac4a0000 	sw	t2,0(v0)
9d007ed4:	1000ff61 	b	9d007c5c <decfloat+0x604>
9d007ed8:	26f7ffe3 	addiu	s7,s7,-29
9d007edc:	27a80010 	addiu	t0,sp,16
9d007ee0:	010e6821 	addu	t5,t0,t6
9d007ee4:	8dad0000 	lw	t5,0(t5)
9d007ee8:	006d7806 	srlv	t7,t5,v1
9d007eec:	01ec6021 	addu	t4,t7,t4
9d007ef0:	14490005 	bne	v0,t1,9d007f08 <decfloat+0x8b0>
9d007ef4:	244f0001 	addiu	t7,v0,1
9d007ef8:	55800004 	bnezl	t4,9d007f0c <decfloat+0x8b4>
9d007efc:	27a20010 	addiu	v0,sp,16
9d007f00:	31e9007f 	andi	t1,t7,0x7f
9d007f04:	2694fff7 	addiu	s4,s4,-9
9d007f08:	27a20010 	addiu	v0,sp,16
9d007f0c:	004e7021 	addu	t6,v0,t6
9d007f10:	adcc0000 	sw	t4,0(t6)
9d007f14:	030d6024 	and	t4,t8,t5
9d007f18:	71996002 	mul	t4,t4,t9
9d007f1c:	1000ff81 	b	9d007d24 <decfloat+0x6cc>
9d007f20:	31e2007f 	andi	v0,t7,0x7f
9d007f24:	26c2ffff 	addiu	v0,s6,-1
9d007f28:	3042007f 	andi	v0,v0,0x7f
9d007f2c:	00021080 	sll	v0,v0,0x2
9d007f30:	27a80010 	addiu	t0,sp,16
9d007f34:	01021021 	addu	v0,t0,v0
9d007f38:	8c4c0000 	lw	t4,0(v0)
9d007f3c:	358c0001 	ori	t4,t4,0x1
9d007f40:	1000ff83 	b	9d007d50 <decfloat+0x6f8>
9d007f44:	ac4c0000 	sw	t4,0(v0)
9d007f48:	15360007 	bne	t1,s6,9d007f68 <decfloat+0x910>
9d007f4c:	25340001 	addiu	s4,t1,1
9d007f50:	3296007f 	andi	s6,s4,0x7f
9d007f54:	26c2ffff 	addiu	v0,s6,-1
9d007f58:	00021080 	sll	v0,v0,0x2
9d007f5c:	27a30010 	addiu	v1,sp,16
9d007f60:	00621021 	addu	v0,v1,v0
9d007f64:	ac400000 	sw	zero,0(v0)
9d007f68:	00091080 	sll	v0,t1,0x2
9d007f6c:	27a30010 	addiu	v1,sp,16
9d007f70:	00621021 	addu	v0,v1,v0
9d007f74:	8c440000 	lw	a0,0(v0)
9d007f78:	afa90210 	sw	t1,528(sp)
9d007f7c:	0f4051b0 	jal	9d0146c0 <__floatunsidf>
9d007f80:	3294007f 	andi	s4,s4,0x7f
9d007f84:	00402025 	move	a0,v0
9d007f88:	00602825 	move	a1,v1
9d007f8c:	00003025 	move	a2,zero
9d007f90:	0f4036bb 	jal	9d00daec <__adddf3>
9d007f94:	00003825 	move	a3,zero
9d007f98:	00402025 	move	a0,v0
9d007f9c:	00602825 	move	a1,v1
9d007fa0:	16d40008 	bne	s6,s4,9d007fc4 <decfloat+0x96c>
9d007fa4:	8fa90210 	lw	t1,528(sp)
9d007fa8:	26c80001 	addiu	t0,s6,1
9d007fac:	3116007f 	andi	s6,t0,0x7f
9d007fb0:	26c3ffff 	addiu	v1,s6,-1
9d007fb4:	00031880 	sll	v1,v1,0x2
9d007fb8:	27a20010 	addiu	v0,sp,16
9d007fbc:	00431821 	addu	v1,v0,v1
9d007fc0:	ac600000 	sw	zero,0(v1)
9d007fc4:	3c029d00 	lui	v0,0x9d00
9d007fc8:	8c4675a8 	lw	a2,30120(v0)
9d007fcc:	8c4775ac 	lw	a3,30124(v0)
9d007fd0:	afa90210 	sw	t1,528(sp)
9d007fd4:	0f403b8f 	jal	9d00ee3c <__muldf3>
9d007fd8:	0014a080 	sll	s4,s4,0x2
9d007fdc:	00408025 	move	s0,v0
9d007fe0:	27a20010 	addiu	v0,sp,16
9d007fe4:	0054a021 	addu	s4,v0,s4
9d007fe8:	8e840000 	lw	a0,0(s4)
9d007fec:	0f4051b0 	jal	9d0146c0 <__floatunsidf>
9d007ff0:	00608825 	move	s1,v1
9d007ff4:	00402025 	move	a0,v0
9d007ff8:	02003025 	move	a2,s0
9d007ffc:	02203825 	move	a3,s1
9d008000:	0f4036bb 	jal	9d00daec <__adddf3>
9d008004:	00602825 	move	a1,v1
9d008008:	00403025 	move	a2,v0
9d00800c:	00603825 	move	a3,v1
9d008010:	02402025 	move	a0,s2
9d008014:	0f403b8f 	jal	9d00ee3c <__muldf3>
9d008018:	02602825 	move	a1,s3
9d00801c:	0060a825 	move	s5,v1
9d008020:	8fa3025c 	lw	v1,604(sp)
9d008024:	0040a025 	move	s4,v0
9d008028:	26e20035 	addiu	v0,s7,53
9d00802c:	00431023 	subu	v0,v0,v1
9d008030:	8fa30258 	lw	v1,600(sp)
9d008034:	afa20214 	sw	v0,532(sp)
9d008038:	0043102a 	slt	v0,v0,v1
9d00803c:	104000b3 	beqz	v0,9d00830c <decfloat+0xcb4>
9d008040:	8fa90210 	lw	t1,528(sp)
9d008044:	8fa20214 	lw	v0,532(sp)
9d008048:	044200b3 	bltzl	v0,9d008318 <decfloat+0xcc0>
9d00804c:	24020001 	li	v0,1
9d008050:	0040f025 	move	s8,v0
9d008054:	24020001 	li	v0,1
9d008058:	afa20210 	sw	v0,528(sp)
9d00805c:	2bc20035 	slti	v0,s8,53
9d008060:	afa00218 	sw	zero,536(sp)
9d008064:	afa0021c 	sw	zero,540(sp)
9d008068:	00008025 	move	s0,zero
9d00806c:	1040002a 	beqz	v0,9d008118 <decfloat+0xac0>
9d008070:	00008825 	move	s1,zero
9d008074:	3c029d00 	lui	v0,0x9d00
9d008078:	8c5075b0 	lw	s0,30128(v0)
9d00807c:	8c5175b4 	lw	s1,30132(v0)
9d008080:	24060069 	li	a2,105
9d008084:	02002025 	move	a0,s0
9d008088:	02202825 	move	a1,s1
9d00808c:	00de3023 	subu	a2,a2,s8
9d008090:	0f404908 	jal	9d012420 <scalbn>
9d008094:	afa90220 	sw	t1,544(sp)
9d008098:	00402025 	move	a0,v0
9d00809c:	02a03825 	move	a3,s5
9d0080a0:	02803025 	move	a2,s4
9d0080a4:	0f4052e8 	jal	9d014ba0 <copysignl>
9d0080a8:	00602825 	move	a1,v1
9d0080ac:	24060035 	li	a2,53
9d0080b0:	02002025 	move	a0,s0
9d0080b4:	02202825 	move	a1,s1
9d0080b8:	00de3023 	subu	a2,a2,s8
9d0080bc:	afa20218 	sw	v0,536(sp)
9d0080c0:	0f404908 	jal	9d012420 <scalbn>
9d0080c4:	afa3021c 	sw	v1,540(sp)
9d0080c8:	00403025 	move	a2,v0
9d0080cc:	02802025 	move	a0,s4
9d0080d0:	02a02825 	move	a1,s5
9d0080d4:	0f403db4 	jal	9d00f6d0 <dpfmod>
9d0080d8:	00603825 	move	a3,v1
9d0080dc:	00403025 	move	a2,v0
9d0080e0:	02802025 	move	a0,s4
9d0080e4:	02a02825 	move	a1,s5
9d0080e8:	00603825 	move	a3,v1
9d0080ec:	00408025 	move	s0,v0
9d0080f0:	0f4036b9 	jal	9d00dae4 <__subdf3>
9d0080f4:	00608825 	move	s1,v1
9d0080f8:	8fa40218 	lw	a0,536(sp)
9d0080fc:	8fa5021c 	lw	a1,540(sp)
9d008100:	00403025 	move	a2,v0
9d008104:	0f4036bb 	jal	9d00daec <__adddf3>
9d008108:	00603825 	move	a3,v1
9d00810c:	8fa90220 	lw	t1,544(sp)
9d008110:	0040a025 	move	s4,v0
9d008114:	0060a825 	move	s5,v1
9d008118:	25220002 	addiu	v0,t1,2
9d00811c:	3042007f 	andi	v0,v0,0x7f
9d008120:	10560034 	beq	v0,s6,9d0081f4 <decfloat+0xb9c>
9d008124:	27a30010 	addiu	v1,sp,16
9d008128:	00021080 	sll	v0,v0,0x2
9d00812c:	00621021 	addu	v0,v1,v0
9d008130:	8c430000 	lw	v1,0(v0)
9d008134:	3c021dcd 	lui	v0,0x1dcd
9d008138:	24426500 	addiu	v0,v0,25856
9d00813c:	0062202b 	sltu	a0,v1,v0
9d008140:	10800078 	beqz	a0,9d008324 <decfloat+0xccc>
9d008144:	00000000 	nop
9d008148:	14600004 	bnez	v1,9d00815c <decfloat+0xb04>
9d00814c:	25290003 	addiu	t1,t1,3
9d008150:	3129007f 	andi	t1,t1,0x7f
9d008154:	1136000f 	beq	t1,s6,9d008194 <decfloat+0xb3c>
9d008158:	24020035 	li	v0,53
9d00815c:	3c029d00 	lui	v0,0x9d00
9d008160:	8c4675b8 	lw	a2,30136(v0)
9d008164:	8c4775bc 	lw	a3,30140(v0)
9d008168:	02402025 	move	a0,s2
9d00816c:	0f403b8f 	jal	9d00ee3c <__muldf3>
9d008170:	02602825 	move	a1,s3
9d008174:	00403025 	move	a2,v0
9d008178:	02002025 	move	a0,s0
9d00817c:	02202825 	move	a1,s1
9d008180:	0f4036bb 	jal	9d00daec <__adddf3>
9d008184:	00603825 	move	a3,v1
9d008188:	00408025 	move	s0,v0
9d00818c:	00608825 	move	s1,v1
9d008190:	24020035 	li	v0,53
9d008194:	005e1023 	subu	v0,v0,s8
9d008198:	28420002 	slti	v0,v0,2
9d00819c:	14400015 	bnez	v0,9d0081f4 <decfloat+0xb9c>
9d0081a0:	3c029d00 	lui	v0,0x9d00
9d0081a4:	8c5275b0 	lw	s2,30128(v0)
9d0081a8:	8c5375b4 	lw	s3,30132(v0)
9d0081ac:	02002025 	move	a0,s0
9d0081b0:	02403025 	move	a2,s2
9d0081b4:	02603825 	move	a3,s3
9d0081b8:	0f403db4 	jal	9d00f6d0 <dpfmod>
9d0081bc:	02202825 	move	a1,s1
9d0081c0:	00402025 	move	a0,v0
9d0081c4:	00003025 	move	a2,zero
9d0081c8:	00003825 	move	a3,zero
9d0081cc:	0f404657 	jal	9d01195c <__eqdf2>
9d0081d0:	00602825 	move	a1,v1
9d0081d4:	14400007 	bnez	v0,9d0081f4 <decfloat+0xb9c>
9d0081d8:	02002025 	move	a0,s0
9d0081dc:	02202825 	move	a1,s1
9d0081e0:	02403025 	move	a2,s2
9d0081e4:	0f4036bb 	jal	9d00daec <__adddf3>
9d0081e8:	02603825 	move	a3,s3
9d0081ec:	00408025 	move	s0,v0
9d0081f0:	00608825 	move	s1,v1
9d0081f4:	8fa2025c 	lw	v0,604(sp)
9d0081f8:	8fa30258 	lw	v1,600(sp)
9d0081fc:	02003025 	move	a2,s0
9d008200:	00021023 	negu	v0,v0
9d008204:	02203825 	move	a3,s1
9d008208:	02802025 	move	a0,s4
9d00820c:	02a02825 	move	a1,s5
9d008210:	0f4036bb 	jal	9d00daec <__adddf3>
9d008214:	0043b023 	subu	s6,v0,v1
9d008218:	8fa60218 	lw	a2,536(sp)
9d00821c:	8fa7021c 	lw	a3,540(sp)
9d008220:	00402025 	move	a0,v0
9d008224:	0f4036b9 	jal	9d00dae4 <__subdf3>
9d008228:	00602825 	move	a1,v1
9d00822c:	00409025 	move	s2,v0
9d008230:	26e20035 	addiu	v0,s7,53
9d008234:	00609825 	move	s3,v1
9d008238:	7c42f000 	ext	v0,v0,0x0,0x1f
9d00823c:	26c3ffff 	addiu	v1,s6,-1
9d008240:	0043102a 	slt	v0,v0,v1
9d008244:	1440002c 	bnez	v0,9d0082f8 <decfloat+0xca0>
9d008248:	02e03025 	move	a2,s7
9d00824c:	02402025 	move	a0,s2
9d008250:	0f4053dc 	jal	9d014f70 <fabsl>
9d008254:	02602825 	move	a1,s3
9d008258:	3c049d00 	lui	a0,0x9d00
9d00825c:	8c8675d0 	lw	a2,30160(a0)
9d008260:	8c8775d4 	lw	a3,30164(a0)
9d008264:	00602825 	move	a1,v1
9d008268:	0f404657 	jal	9d01195c <__eqdf2>
9d00826c:	00402025 	move	a0,v0
9d008270:	0440000f 	bltz	v0,9d0082b0 <decfloat+0xc58>
9d008274:	8fa20210 	lw	v0,528(sp)
9d008278:	10400004 	beqz	v0,9d00828c <decfloat+0xc34>
9d00827c:	8fa20214 	lw	v0,532(sp)
9d008280:	005ef026 	xor	s8,v0,s8
9d008284:	001e102b 	sltu	v0,zero,s8
9d008288:	afa20210 	sw	v0,528(sp)
9d00828c:	3c029d00 	lui	v0,0x9d00
9d008290:	8c4675c8 	lw	a2,30152(v0)
9d008294:	8c4775cc 	lw	a3,30156(v0)
9d008298:	02402025 	move	a0,s2
9d00829c:	0f403b8f 	jal	9d00ee3c <__muldf3>
9d0082a0:	02602825 	move	a1,s3
9d0082a4:	00409025 	move	s2,v0
9d0082a8:	00609825 	move	s3,v1
9d0082ac:	26f70001 	addiu	s7,s7,1
9d0082b0:	26e20034 	addiu	v0,s7,52
9d0082b4:	26d60003 	addiu	s6,s6,3
9d0082b8:	0056b02a 	slt	s6,v0,s6
9d0082bc:	12c0000b 	beqz	s6,9d0082ec <decfloat+0xc94>
9d0082c0:	3c02a001 	lui	v0,0xa001
9d0082c4:	8fa20210 	lw	v0,528(sp)
9d0082c8:	1040000a 	beqz	v0,9d0082f4 <decfloat+0xc9c>
9d0082cc:	00003025 	move	a2,zero
9d0082d0:	00003825 	move	a3,zero
9d0082d4:	02002025 	move	a0,s0
9d0082d8:	0f404657 	jal	9d01195c <__eqdf2>
9d0082dc:	02202825 	move	a1,s1
9d0082e0:	10400005 	beqz	v0,9d0082f8 <decfloat+0xca0>
9d0082e4:	02e03025 	move	a2,s7
9d0082e8:	3c02a001 	lui	v0,0xa001
9d0082ec:	24030022 	li	v1,34
9d0082f0:	ac43a378 	sw	v1,-23688(v0)
9d0082f4:	02e03025 	move	a2,s7
9d0082f8:	02402025 	move	a0,s2
9d0082fc:	0f4053e3 	jal	9d014f8c <scalbnl>
9d008300:	02602825 	move	a1,s3
9d008304:	10000025 	b	9d00839c <decfloat+0xd44>
9d008308:	8fbf024c 	lw	ra,588(sp)
9d00830c:	8fbe0258 	lw	s8,600(sp)
9d008310:	1000ff52 	b	9d00805c <decfloat+0xa04>
9d008314:	afa00210 	sw	zero,528(sp)
9d008318:	afa20210 	sw	v0,528(sp)
9d00831c:	1000ff55 	b	9d008074 <decfloat+0xa1c>
9d008320:	0000f025 	move	s8,zero
9d008324:	10620005 	beq	v1,v0,9d00833c <decfloat+0xce4>
9d008328:	25290003 	addiu	t1,t1,3
9d00832c:	3c029d00 	lui	v0,0x9d00
9d008330:	8c4675c0 	lw	a2,30144(v0)
9d008334:	1000ff8c 	b	9d008168 <decfloat+0xb10>
9d008338:	8c4775c4 	lw	a3,30148(v0)
9d00833c:	3129007f 	andi	t1,t1,0x7f
9d008340:	1536fffa 	bne	t1,s6,9d00832c <decfloat+0xcd4>
9d008344:	3c029d00 	lui	v0,0x9d00
9d008348:	8c4675c8 	lw	a2,30152(v0)
9d00834c:	1000ff86 	b	9d008168 <decfloat+0xb10>
9d008350:	8c4775cc 	lw	a3,30156(v0)
9d008354:	04400009 	bltz	v0,9d00837c <decfloat+0xd24>
9d008358:	3c02a001 	lui	v0,0xa001
9d00835c:	8e22004c 	lw	v0,76(s1)
9d008360:	10400004 	beqz	v0,9d008374 <decfloat+0xd1c>
9d008364:	00000000 	nop
9d008368:	8e22003c 	lw	v0,60(s1)
9d00836c:	2442ffff 	addiu	v0,v0,-1
9d008370:	ae22003c 	sw	v0,60(s1)
9d008374:	1660fd06 	bnez	s3,9d007790 <decfloat+0x138>
9d008378:	3c02a001 	lui	v0,0xa001
9d00837c:	24030016 	li	v1,22
9d008380:	ac43a378 	sw	v1,-23688(v0)
9d008384:	00002825 	move	a1,zero
9d008388:	0f4052c7 	jal	9d014b1c <__shlim>
9d00838c:	02202025 	move	a0,s1
9d008390:	00001025 	move	v0,zero
9d008394:	00001825 	move	v1,zero
9d008398:	8fbf024c 	lw	ra,588(sp)
9d00839c:	8fbe0248 	lw	s8,584(sp)
9d0083a0:	8fb70244 	lw	s7,580(sp)
9d0083a4:	8fb60240 	lw	s6,576(sp)
9d0083a8:	8fb5023c 	lw	s5,572(sp)
9d0083ac:	8fb40238 	lw	s4,568(sp)
9d0083b0:	8fb30234 	lw	s3,564(sp)
9d0083b4:	8fb20230 	lw	s2,560(sp)
9d0083b8:	8fb1022c 	lw	s1,556(sp)
9d0083bc:	8fb00228 	lw	s0,552(sp)
9d0083c0:	03e00008 	jr	ra
9d0083c4:	27bd0250 	addiu	sp,sp,592
9d0083c8:	0441ffe4 	bgez	v0,9d00835c <decfloat+0xd04>
9d0083cc:	8fa40260 	lw	a0,608(sp)
9d0083d0:	1000fcf1 	b	9d007798 <decfloat+0x140>
9d0083d4:	8fb10010 	lw	s1,16(sp)

Disassembly of section .text.__floatscan:

9d0083d8 <__floatscan>:
9d0083d8:	2ca70003 	sltiu	a3,a1,3
9d0083dc:	00001025 	move	v0,zero
9d0083e0:	10e00302 	beqz	a3,9d008fec <__floatscan+0xc14>
9d0083e4:	00001825 	move	v1,zero
9d0083e8:	3c029d01 	lui	v0,0x9d01
9d0083ec:	24424af8 	addiu	v0,v0,19192
9d0083f0:	00a21021 	addu	v0,a1,v0
9d0083f4:	80420000 	lb	v0,0(v0)
9d0083f8:	27bdff80 	addiu	sp,sp,-128
9d0083fc:	00052840 	sll	a1,a1,0x1
9d008400:	afa20024 	sw	v0,36(sp)
9d008404:	3c029d01 	lui	v0,0x9d01
9d008408:	24424af0 	addiu	v0,v0,19184
9d00840c:	00a22821 	addu	a1,a1,v0
9d008410:	84a20000 	lh	v0,0(a1)
9d008414:	afb70074 	sw	s7,116(sp)
9d008418:	afb60070 	sw	s6,112(sp)
9d00841c:	afb00058 	sw	s0,88(sp)
9d008420:	afbf007c 	sw	ra,124(sp)
9d008424:	afbe0078 	sw	s8,120(sp)
9d008428:	afb5006c 	sw	s5,108(sp)
9d00842c:	afb40068 	sw	s4,104(sp)
9d008430:	afb30064 	sw	s3,100(sp)
9d008434:	afb20060 	sw	s2,96(sp)
9d008438:	afb1005c 	sw	s1,92(sp)
9d00843c:	00c0b025 	move	s6,a2
9d008440:	0080b825 	move	s7,a0
9d008444:	afa20018 	sw	v0,24(sp)
9d008448:	24100020 	li	s0,32
9d00844c:	8ee2003c 	lw	v0,60(s7)
9d008450:	8ee3004c 	lw	v1,76(s7)
9d008454:	0043182b 	sltu	v1,v0,v1
9d008458:	10600037 	beqz	v1,9d008538 <__floatscan+0x160>
9d00845c:	24430001 	addiu	v1,v0,1
9d008460:	aee3003c 	sw	v1,60(s7)
9d008464:	90520000 	lbu	s2,0(v0)
9d008468:	1250fff8 	beq	s2,s0,9d00844c <__floatscan+0x74>
9d00846c:	2642fff7 	addiu	v0,s2,-9
9d008470:	2c420005 	sltiu	v0,v0,5
9d008474:	1440fff5 	bnez	v0,9d00844c <__floatscan+0x74>
9d008478:	2402002b 	li	v0,43
9d00847c:	12420005 	beq	s2,v0,9d008494 <__floatscan+0xbc>
9d008480:	00001025 	move	v0,zero
9d008484:	2402002d 	li	v0,45
9d008488:	1642000b 	bne	s2,v0,9d0084b8 <__floatscan+0xe0>
9d00848c:	24110001 	li	s1,1
9d008490:	24020002 	li	v0,2
9d008494:	24110001 	li	s1,1
9d008498:	02228823 	subu	s1,s1,v0
9d00849c:	8ee3004c 	lw	v1,76(s7)
9d0084a0:	8ee2003c 	lw	v0,60(s7)
9d0084a4:	0043182b 	sltu	v1,v0,v1
9d0084a8:	10600027 	beqz	v1,9d008548 <__floatscan+0x170>
9d0084ac:	24430001 	addiu	v1,v0,1
9d0084b0:	aee3003c 	sw	v1,60(s7)
9d0084b4:	90520000 	lbu	s2,0(v0)
9d0084b8:	3c139d00 	lui	s3,0x9d00
9d0084bc:	00008025 	move	s0,zero
9d0084c0:	26737588 	addiu	s3,s3,30088
9d0084c4:	24140007 	li	s4,7
9d0084c8:	24150008 	li	s5,8
9d0084cc:	02701821 	addu	v1,s3,s0
9d0084d0:	80630000 	lb	v1,0(v1)
9d0084d4:	36420020 	ori	v0,s2,0x20
9d0084d8:	1043001f 	beq	v0,v1,9d008558 <__floatscan+0x180>
9d0084dc:	24020003 	li	v0,3
9d0084e0:	12020005 	beq	s0,v0,9d0084f8 <__floatscan+0x120>
9d0084e4:	2e020004 	sltiu	v0,s0,4
9d0084e8:	1440003d 	bnez	v0,9d0085e0 <__floatscan+0x208>
9d0084ec:	00000000 	nop
9d0084f0:	52c000f9 	beqzl	s6,9d0088d8 <__floatscan+0x500>
9d0084f4:	8ee2004c 	lw	v0,76(s7)
9d0084f8:	8ee3004c 	lw	v1,76(s7)
9d0084fc:	10600004 	beqz	v1,9d008510 <__floatscan+0x138>
9d008500:	00000000 	nop
9d008504:	8ee2003c 	lw	v0,60(s7)
9d008508:	2442ffff 	addiu	v0,v0,-1
9d00850c:	aee2003c 	sw	v0,60(s7)
9d008510:	12c0001d 	beqz	s6,9d008588 <__floatscan+0x1b0>
9d008514:	24040003 	li	a0,3
9d008518:	1204001c 	beq	s0,a0,9d00858c <__floatscan+0x1b4>
9d00851c:	2402ffff 	li	v0,-1
9d008520:	1060fffd 	beqz	v1,9d008518 <__floatscan+0x140>
9d008524:	2610ffff 	addiu	s0,s0,-1
9d008528:	8ee2003c 	lw	v0,60(s7)
9d00852c:	2442ffff 	addiu	v0,v0,-1
9d008530:	1000fff9 	b	9d008518 <__floatscan+0x140>
9d008534:	aee2003c 	sw	v0,60(s7)
9d008538:	0f404aa5 	jal	9d012a94 <__shgetc>
9d00853c:	02e02025 	move	a0,s7
9d008540:	1000ffc9 	b	9d008468 <__floatscan+0x90>
9d008544:	00409025 	move	s2,v0
9d008548:	0f404aa5 	jal	9d012a94 <__shgetc>
9d00854c:	02e02025 	move	a0,s7
9d008550:	1000ffd9 	b	9d0084b8 <__floatscan+0xe0>
9d008554:	00409025 	move	s2,v0
9d008558:	52140009 	beql	s0,s4,9d008580 <__floatscan+0x1a8>
9d00855c:	26100001 	addiu	s0,s0,1
9d008560:	8ee2003c 	lw	v0,60(s7)
9d008564:	8ee3004c 	lw	v1,76(s7)
9d008568:	0043182b 	sltu	v1,v0,v1
9d00856c:	10600018 	beqz	v1,9d0085d0 <__floatscan+0x1f8>
9d008570:	24430001 	addiu	v1,v0,1
9d008574:	aee3003c 	sw	v1,60(s7)
9d008578:	90520000 	lbu	s2,0(v0)
9d00857c:	26100001 	addiu	s0,s0,1
9d008580:	1615ffd3 	bne	s0,s5,9d0084d0 <__floatscan+0xf8>
9d008584:	02701821 	addu	v1,s3,s0
9d008588:	2402ffff 	li	v0,-1
9d00858c:	1222028c 	beq	s1,v0,9d008fc0 <__floatscan+0xbe8>
9d008590:	3c029d00 	lui	v0,0x9d00
9d008594:	3c029d00 	lui	v0,0x9d00
9d008598:	8c4375ec 	lw	v1,30188(v0)
9d00859c:	8c4275e8 	lw	v0,30184(v0)
9d0085a0:	8fbf007c 	lw	ra,124(sp)
9d0085a4:	8fbe0078 	lw	s8,120(sp)
9d0085a8:	8fb70074 	lw	s7,116(sp)
9d0085ac:	8fb60070 	lw	s6,112(sp)
9d0085b0:	8fb5006c 	lw	s5,108(sp)
9d0085b4:	8fb40068 	lw	s4,104(sp)
9d0085b8:	8fb30064 	lw	s3,100(sp)
9d0085bc:	8fb20060 	lw	s2,96(sp)
9d0085c0:	8fb1005c 	lw	s1,92(sp)
9d0085c4:	8fb00058 	lw	s0,88(sp)
9d0085c8:	03e00008 	jr	ra
9d0085cc:	27bd0080 	addiu	sp,sp,128
9d0085d0:	0f404aa5 	jal	9d012a94 <__shgetc>
9d0085d4:	02e02025 	move	a0,s7
9d0085d8:	1000ffe8 	b	9d00857c <__floatscan+0x1a4>
9d0085dc:	00409025 	move	s2,v0
9d0085e0:	160000bc 	bnez	s0,9d0088d4 <__floatscan+0x4fc>
9d0085e4:	3c139d00 	lui	s3,0x9d00
9d0085e8:	26737594 	addiu	s3,s3,30100
9d0085ec:	24140002 	li	s4,2
9d0085f0:	24150003 	li	s5,3
9d0085f4:	02701821 	addu	v1,s3,s0
9d0085f8:	80630000 	lb	v1,0(v1)
9d0085fc:	36420020 	ori	v0,s2,0x20
9d008600:	10430055 	beq	v0,v1,9d008758 <__floatscan+0x380>
9d008604:	00000000 	nop
9d008608:	160000b2 	bnez	s0,9d0088d4 <__floatscan+0x4fc>
9d00860c:	8fa20024 	lw	v0,36(sp)
9d008610:	afa20020 	sw	v0,32(sp)
9d008614:	24020030 	li	v0,48
9d008618:	16420261 	bne	s2,v0,9d008fa0 <__floatscan+0xbc8>
9d00861c:	8fa70018 	lw	a3,24(sp)
9d008620:	8ee2003c 	lw	v0,60(s7)
9d008624:	8ee3004c 	lw	v1,76(s7)
9d008628:	0043182b 	sltu	v1,v0,v1
9d00862c:	106000b0 	beqz	v1,9d0088f0 <__floatscan+0x518>
9d008630:	00000000 	nop
9d008634:	24430001 	addiu	v1,v0,1
9d008638:	aee3003c 	sw	v1,60(s7)
9d00863c:	90420000 	lbu	v0,0(v0)
9d008640:	34420020 	ori	v0,v0,0x20
9d008644:	24040078 	li	a0,120
9d008648:	1444024f 	bne	v0,a0,9d008f88 <__floatscan+0xbb0>
9d00864c:	8ee3004c 	lw	v1,76(s7)
9d008650:	8ee2003c 	lw	v0,60(s7)
9d008654:	0043182b 	sltu	v1,v0,v1
9d008658:	106000a9 	beqz	v1,9d008900 <__floatscan+0x528>
9d00865c:	00000000 	nop
9d008660:	24430001 	addiu	v1,v0,1
9d008664:	aee3003c 	sw	v1,60(s7)
9d008668:	90420000 	lbu	v0,0(v0)
9d00866c:	00001825 	move	v1,zero
9d008670:	24120030 	li	s2,48
9d008674:	105200a6 	beq	v0,s2,9d008910 <__floatscan+0x538>
9d008678:	2404002e 	li	a0,46
9d00867c:	104400b2 	beq	v0,a0,9d008948 <__floatscan+0x570>
9d008680:	0000f025 	move	s8,zero
9d008684:	00006025 	move	t4,zero
9d008688:	00006825 	move	t5,zero
9d00868c:	3c049d00 	lui	a0,0x9d00
9d008690:	8c8675b0 	lw	a2,30128(a0)
9d008694:	8c8775b4 	lw	a3,30132(a0)
9d008698:	afa40034 	sw	a0,52(sp)
9d00869c:	3c049d00 	lui	a0,0x9d00
9d0086a0:	8c8575cc 	lw	a1,30156(a0)
9d0086a4:	8c8475c8 	lw	a0,30152(a0)
9d0086a8:	0000a025 	move	s4,zero
9d0086ac:	afa5003c 	sw	a1,60(sp)
9d0086b0:	afa40038 	sw	a0,56(sp)
9d0086b4:	3c049d00 	lui	a0,0x9d00
9d0086b8:	8c8575f4 	lw	a1,30196(a0)
9d0086bc:	8c8475f0 	lw	a0,30192(a0)
9d0086c0:	0000a825 	move	s5,zero
9d0086c4:	afa00030 	sw	zero,48(sp)
9d0086c8:	afa60028 	sw	a2,40(sp)
9d0086cc:	afa7002c 	sw	a3,44(sp)
9d0086d0:	00009025 	move	s2,zero
9d0086d4:	00009825 	move	s3,zero
9d0086d8:	afa40040 	sw	a0,64(sp)
9d0086dc:	afa50044 	sw	a1,68(sp)
9d0086e0:	244effd0 	addiu	t6,v0,-48
9d0086e4:	2dc4000a 	sltiu	a0,t6,10
9d0086e8:	148000bd 	bnez	a0,9d0089e0 <__floatscan+0x608>
9d0086ec:	34440020 	ori	a0,v0,0x20
9d0086f0:	2484ff9f 	addiu	a0,a0,-97
9d0086f4:	2c840006 	sltiu	a0,a0,6
9d0086f8:	148000b9 	bnez	a0,9d0089e0 <__floatscan+0x608>
9d0086fc:	2404002e 	li	a0,46
9d008700:	104400ba 	beq	v0,a0,9d0089ec <__floatscan+0x614>
9d008704:	00000000 	nop
9d008708:	5460011f 	bnezl	v1,9d008b88 <__floatscan+0x7b0>
9d00870c:	028df00a 	movz	s8,s4,t5
9d008710:	8ee2004c 	lw	v0,76(s7)
9d008714:	1040022d 	beqz	v0,9d008fcc <__floatscan+0xbf4>
9d008718:	00000000 	nop
9d00871c:	12c00113 	beqz	s6,9d008b6c <__floatscan+0x794>
9d008720:	8ee2003c 	lw	v0,60(s7)
9d008724:	55a00002 	bnezl	t5,9d008730 <__floatscan+0x358>
9d008728:	2442fffd 	addiu	v0,v0,-3
9d00872c:	2442fffe 	addiu	v0,v0,-2
9d008730:	aee2003c 	sw	v0,60(s7)
9d008734:	0f404ec2 	jal	9d013b08 <__floatsidf>
9d008738:	02202025 	move	a0,s1
9d00873c:	00003025 	move	a2,zero
9d008740:	00003825 	move	a3,zero
9d008744:	00402025 	move	a0,v0
9d008748:	0f403b8f 	jal	9d00ee3c <__muldf3>
9d00874c:	00602825 	move	a1,v1
9d008750:	1000ff94 	b	9d0085a4 <__floatscan+0x1cc>
9d008754:	8fbf007c 	lw	ra,124(sp)
9d008758:	52140009 	beql	s0,s4,9d008780 <__floatscan+0x3a8>
9d00875c:	26100001 	addiu	s0,s0,1
9d008760:	8ee2003c 	lw	v0,60(s7)
9d008764:	8ee3004c 	lw	v1,76(s7)
9d008768:	0043182b 	sltu	v1,v0,v1
9d00876c:	1060000f 	beqz	v1,9d0087ac <__floatscan+0x3d4>
9d008770:	24430001 	addiu	v1,v0,1
9d008774:	aee3003c 	sw	v1,60(s7)
9d008778:	90520000 	lbu	s2,0(v0)
9d00877c:	26100001 	addiu	s0,s0,1
9d008780:	1615ff9d 	bne	s0,s5,9d0085f8 <__floatscan+0x220>
9d008784:	02701821 	addu	v1,s3,s0
9d008788:	8ee3003c 	lw	v1,60(s7)
9d00878c:	8ee2004c 	lw	v0,76(s7)
9d008790:	0062102b 	sltu	v0,v1,v0
9d008794:	54400009 	bnezl	v0,9d0087bc <__floatscan+0x3e4>
9d008798:	24620001 	addiu	v0,v1,1
9d00879c:	0f404aa5 	jal	9d012a94 <__shgetc>
9d0087a0:	02e02025 	move	a0,s7
9d0087a4:	10000008 	b	9d0087c8 <__floatscan+0x3f0>
9d0087a8:	38420028 	xori	v0,v0,0x28
9d0087ac:	0f404aa5 	jal	9d012a94 <__shgetc>
9d0087b0:	02e02025 	move	a0,s7
9d0087b4:	1000fff1 	b	9d00877c <__floatscan+0x3a4>
9d0087b8:	00409025 	move	s2,v0
9d0087bc:	aee2003c 	sw	v0,60(s7)
9d0087c0:	90620000 	lbu	v0,0(v1)
9d0087c4:	38420028 	xori	v0,v0,0x28
9d0087c8:	0002102b 	sltu	v0,zero,v0
9d0087cc:	1040000b 	beqz	v0,9d0087fc <__floatscan+0x424>
9d0087d0:	24100001 	li	s0,1
9d0087d4:	8ee2004c 	lw	v0,76(s7)
9d0087d8:	54400005 	bnezl	v0,9d0087f0 <__floatscan+0x418>
9d0087dc:	8ee2003c 	lw	v0,60(s7)
9d0087e0:	3c029d00 	lui	v0,0x9d00
9d0087e4:	8c4375e4 	lw	v1,30180(v0)
9d0087e8:	1000ff6d 	b	9d0085a0 <__floatscan+0x1c8>
9d0087ec:	8c4275e0 	lw	v0,30176(v0)
9d0087f0:	2442ffff 	addiu	v0,v0,-1
9d0087f4:	1000fffa 	b	9d0087e0 <__floatscan+0x408>
9d0087f8:	aee2003c 	sw	v0,60(s7)
9d0087fc:	2411ffdf 	li	s1,-33
9d008800:	2412005f 	li	s2,95
9d008804:	8ee2003c 	lw	v0,60(s7)
9d008808:	8ee3004c 	lw	v1,76(s7)
9d00880c:	0043182b 	sltu	v1,v0,v1
9d008810:	10600010 	beqz	v1,9d008854 <__floatscan+0x47c>
9d008814:	00000000 	nop
9d008818:	24430001 	addiu	v1,v0,1
9d00881c:	aee3003c 	sw	v1,60(s7)
9d008820:	90420000 	lbu	v0,0(v0)
9d008824:	2443ffd0 	addiu	v1,v0,-48
9d008828:	2c63000a 	sltiu	v1,v1,10
9d00882c:	14600007 	bnez	v1,9d00884c <__floatscan+0x474>
9d008830:	00511824 	and	v1,v0,s1
9d008834:	2463ffbf 	addiu	v1,v1,-65
9d008838:	2c63001a 	sltiu	v1,v1,26
9d00883c:	5460fff1 	bnezl	v1,9d008804 <__floatscan+0x42c>
9d008840:	26100001 	addiu	s0,s0,1
9d008844:	14520007 	bne	v0,s2,9d008864 <__floatscan+0x48c>
9d008848:	24030029 	li	v1,41
9d00884c:	1000ffed 	b	9d008804 <__floatscan+0x42c>
9d008850:	26100001 	addiu	s0,s0,1
9d008854:	0f404aa5 	jal	9d012a94 <__shgetc>
9d008858:	02e02025 	move	a0,s7
9d00885c:	1000fff2 	b	9d008828 <__floatscan+0x450>
9d008860:	2443ffd0 	addiu	v1,v0,-48
9d008864:	1043ffdf 	beq	v0,v1,9d0087e4 <__floatscan+0x40c>
9d008868:	3c029d00 	lui	v0,0x9d00
9d00886c:	8ee3004c 	lw	v1,76(s7)
9d008870:	10600004 	beqz	v1,9d008884 <__floatscan+0x4ac>
9d008874:	00000000 	nop
9d008878:	8ee2003c 	lw	v0,60(s7)
9d00887c:	2442ffff 	addiu	v0,v0,-1
9d008880:	aee2003c 	sw	v0,60(s7)
9d008884:	16c0000f 	bnez	s6,9d0088c4 <__floatscan+0x4ec>
9d008888:	00000000 	nop
9d00888c:	3c02a001 	lui	v0,0xa001
9d008890:	24030016 	li	v1,22
9d008894:	ac43a378 	sw	v1,-23688(v0)
9d008898:	00002825 	move	a1,zero
9d00889c:	0f4052c7 	jal	9d014b1c <__shlim>
9d0088a0:	02e02025 	move	a0,s7
9d0088a4:	00001025 	move	v0,zero
9d0088a8:	1000ff3d 	b	9d0085a0 <__floatscan+0x1c8>
9d0088ac:	00001825 	move	v1,zero
9d0088b0:	10600004 	beqz	v1,9d0088c4 <__floatscan+0x4ec>
9d0088b4:	2610ffff 	addiu	s0,s0,-1
9d0088b8:	8ee2003c 	lw	v0,60(s7)
9d0088bc:	2442ffff 	addiu	v0,v0,-1
9d0088c0:	aee2003c 	sw	v0,60(s7)
9d0088c4:	1600fffa 	bnez	s0,9d0088b0 <__floatscan+0x4d8>
9d0088c8:	3c029d00 	lui	v0,0x9d00
9d0088cc:	1000ffc6 	b	9d0087e8 <__floatscan+0x410>
9d0088d0:	8c4375e4 	lw	v1,30180(v0)
9d0088d4:	8ee2004c 	lw	v0,76(s7)
9d0088d8:	5040ffed 	beqzl	v0,9d008890 <__floatscan+0x4b8>
9d0088dc:	3c02a001 	lui	v0,0xa001
9d0088e0:	8ee2003c 	lw	v0,60(s7)
9d0088e4:	2442ffff 	addiu	v0,v0,-1
9d0088e8:	1000ffe8 	b	9d00888c <__floatscan+0x4b4>
9d0088ec:	aee2003c 	sw	v0,60(s7)
9d0088f0:	0f404aa5 	jal	9d012a94 <__shgetc>
9d0088f4:	02e02025 	move	a0,s7
9d0088f8:	1000ff52 	b	9d008644 <__floatscan+0x26c>
9d0088fc:	34420020 	ori	v0,v0,0x20
9d008900:	0f404aa5 	jal	9d012a94 <__shgetc>
9d008904:	02e02025 	move	a0,s7
9d008908:	1000ff59 	b	9d008670 <__floatscan+0x298>
9d00890c:	00001825 	move	v1,zero
9d008910:	8ee2003c 	lw	v0,60(s7)
9d008914:	8ee3004c 	lw	v1,76(s7)
9d008918:	0043182b 	sltu	v1,v0,v1
9d00891c:	10600006 	beqz	v1,9d008938 <__floatscan+0x560>
9d008920:	00000000 	nop
9d008924:	24430001 	addiu	v1,v0,1
9d008928:	aee3003c 	sw	v1,60(s7)
9d00892c:	90420000 	lbu	v0,0(v0)
9d008930:	1000ff50 	b	9d008674 <__floatscan+0x29c>
9d008934:	24030001 	li	v1,1
9d008938:	0f404aa5 	jal	9d012a94 <__shgetc>
9d00893c:	02e02025 	move	a0,s7
9d008940:	1000ff4c 	b	9d008674 <__floatscan+0x29c>
9d008944:	24030001 	li	v1,1
9d008948:	8ee2003c 	lw	v0,60(s7)
9d00894c:	8ee4004c 	lw	a0,76(s7)
9d008950:	0044202b 	sltu	a0,v0,a0
9d008954:	1080000a 	beqz	a0,9d008980 <__floatscan+0x5a8>
9d008958:	24440001 	addiu	a0,v0,1
9d00895c:	aee4003c 	sw	a0,60(s7)
9d008960:	90420000 	lbu	v0,0(v0)
9d008964:	0000f025 	move	s8,zero
9d008968:	00006025 	move	t4,zero
9d00896c:	24120030 	li	s2,48
9d008970:	10520008 	beq	v0,s2,9d008994 <__floatscan+0x5bc>
9d008974:	240d0001 	li	t5,1
9d008978:	1000ff45 	b	9d008690 <__floatscan+0x2b8>
9d00897c:	3c049d00 	lui	a0,0x9d00
9d008980:	02e02025 	move	a0,s7
9d008984:	0f404aa5 	jal	9d012a94 <__shgetc>
9d008988:	afa30028 	sw	v1,40(sp)
9d00898c:	1000fff5 	b	9d008964 <__floatscan+0x58c>
9d008990:	8fa30028 	lw	v1,40(sp)
9d008994:	8ee2003c 	lw	v0,60(s7)
9d008998:	8ee3004c 	lw	v1,76(s7)
9d00899c:	0043182b 	sltu	v1,v0,v1
9d0089a0:	1060000b 	beqz	v1,9d0089d0 <__floatscan+0x5f8>
9d0089a4:	02e02025 	move	a0,s7
9d0089a8:	24430001 	addiu	v1,v0,1
9d0089ac:	aee3003c 	sw	v1,60(s7)
9d0089b0:	90420000 	lbu	v0,0(v0)
9d0089b4:	27c3ffff 	addiu	v1,s8,-1
9d0089b8:	007e202b 	sltu	a0,v1,s8
9d0089bc:	258cffff 	addiu	t4,t4,-1
9d0089c0:	0060f025 	move	s8,v1
9d0089c4:	008c6021 	addu	t4,a0,t4
9d0089c8:	1000ffe9 	b	9d008970 <__floatscan+0x598>
9d0089cc:	24030001 	li	v1,1
9d0089d0:	0f404aa5 	jal	9d012a94 <__shgetc>
9d0089d4:	afac0028 	sw	t4,40(sp)
9d0089d8:	1000fff6 	b	9d0089b4 <__floatscan+0x5dc>
9d0089dc:	8fac0028 	lw	t4,40(sp)
9d0089e0:	2404002e 	li	a0,46
9d0089e4:	54440011 	bnel	v0,a0,9d008a2c <__floatscan+0x654>
9d0089e8:	2843003a 	slti	v1,v0,58
9d0089ec:	15a0017b 	bnez	t5,9d008fdc <__floatscan+0xc04>
9d0089f0:	02802825 	move	a1,s4
9d0089f4:	02a05025 	move	t2,s5
9d0089f8:	240d0001 	li	t5,1
9d0089fc:	8ee2003c 	lw	v0,60(s7)
9d008a00:	8ee4004c 	lw	a0,76(s7)
9d008a04:	0044202b 	sltu	a0,v0,a0
9d008a08:	1080004d 	beqz	a0,9d008b40 <__floatscan+0x768>
9d008a0c:	24440001 	addiu	a0,v0,1
9d008a10:	aee4003c 	sw	a0,60(s7)
9d008a14:	90420000 	lbu	v0,0(v0)
9d008a18:	0280f025 	move	s8,s4
9d008a1c:	02a06025 	move	t4,s5
9d008a20:	00a0a025 	move	s4,a1
9d008a24:	1000ff2e 	b	9d0086e0 <__floatscan+0x308>
9d008a28:	0140a825 	move	s5,t2
9d008a2c:	14600002 	bnez	v1,9d008a38 <__floatscan+0x660>
9d008a30:	34420020 	ori	v0,v0,0x20
9d008a34:	244effa9 	addiu	t6,v0,-87
9d008a38:	1ea0002b 	bgtz	s5,9d008ae8 <__floatscan+0x710>
9d008a3c:	00000000 	nop
9d008a40:	16a00003 	bnez	s5,9d008a50 <__floatscan+0x678>
9d008a44:	2e820008 	sltiu	v0,s4,8
9d008a48:	1040000a 	beqz	v0,9d008a74 <__floatscan+0x69c>
9d008a4c:	2e82000e 	sltiu	v0,s4,14
9d008a50:	00108100 	sll	s0,s0,0x4
9d008a54:	01d08021 	addu	s0,t6,s0
9d008a58:	26850001 	addiu	a1,s4,1
9d008a5c:	00b4502b 	sltu	t2,a1,s4
9d008a60:	01555021 	addu	t2,t2,s5
9d008a64:	03c0a025 	move	s4,s8
9d008a68:	0180a825 	move	s5,t4
9d008a6c:	1000ffe3 	b	9d0089fc <__floatscan+0x624>
9d008a70:	24030001 	li	v1,1
9d008a74:	1040001c 	beqz	v0,9d008ae8 <__floatscan+0x710>
9d008a78:	8fa5002c 	lw	a1,44(sp)
9d008a7c:	8fa60040 	lw	a2,64(sp)
9d008a80:	8fa70044 	lw	a3,68(sp)
9d008a84:	8fa40028 	lw	a0,40(sp)
9d008a88:	afac0050 	sw	t4,80(sp)
9d008a8c:	afad0048 	sw	t5,72(sp)
9d008a90:	0f403b8f 	jal	9d00ee3c <__muldf3>
9d008a94:	afae004c 	sw	t6,76(sp)
9d008a98:	8fae004c 	lw	t6,76(sp)
9d008a9c:	afa20028 	sw	v0,40(sp)
9d008aa0:	afa3002c 	sw	v1,44(sp)
9d008aa4:	0f404ec2 	jal	9d013b08 <__floatsidf>
9d008aa8:	01c02025 	move	a0,t6
9d008aac:	8fa60028 	lw	a2,40(sp)
9d008ab0:	8fa7002c 	lw	a3,44(sp)
9d008ab4:	00402025 	move	a0,v0
9d008ab8:	0f403b8f 	jal	9d00ee3c <__muldf3>
9d008abc:	00602825 	move	a1,v1
9d008ac0:	00403025 	move	a2,v0
9d008ac4:	02402025 	move	a0,s2
9d008ac8:	02602825 	move	a1,s3
9d008acc:	0f4036bb 	jal	9d00daec <__adddf3>
9d008ad0:	00603825 	move	a3,v1
9d008ad4:	00409025 	move	s2,v0
9d008ad8:	00609825 	move	s3,v1
9d008adc:	8fad0048 	lw	t5,72(sp)
9d008ae0:	1000ffdd 	b	9d008a58 <__floatscan+0x680>
9d008ae4:	8fac0050 	lw	t4,80(sp)
9d008ae8:	11c0ffdb 	beqz	t6,9d008a58 <__floatscan+0x680>
9d008aec:	8fa20030 	lw	v0,48(sp)
9d008af0:	1440ffd9 	bnez	v0,9d008a58 <__floatscan+0x680>
9d008af4:	8fa60038 	lw	a2,56(sp)
9d008af8:	8fa7003c 	lw	a3,60(sp)
9d008afc:	8fa40028 	lw	a0,40(sp)
9d008b00:	8fa5002c 	lw	a1,44(sp)
9d008b04:	afac004c 	sw	t4,76(sp)
9d008b08:	0f403b8f 	jal	9d00ee3c <__muldf3>
9d008b0c:	afad0048 	sw	t5,72(sp)
9d008b10:	00403025 	move	a2,v0
9d008b14:	02402025 	move	a0,s2
9d008b18:	02602825 	move	a1,s3
9d008b1c:	0f4036bb 	jal	9d00daec <__adddf3>
9d008b20:	00603825 	move	a3,v1
9d008b24:	00409025 	move	s2,v0
9d008b28:	24020001 	li	v0,1
9d008b2c:	00609825 	move	s3,v1
9d008b30:	afa20030 	sw	v0,48(sp)
9d008b34:	8fac004c 	lw	t4,76(sp)
9d008b38:	1000ffc7 	b	9d008a58 <__floatscan+0x680>
9d008b3c:	8fad0048 	lw	t5,72(sp)
9d008b40:	02e02025 	move	a0,s7
9d008b44:	afaa0054 	sw	t2,84(sp)
9d008b48:	afa50050 	sw	a1,80(sp)
9d008b4c:	afa3004c 	sw	v1,76(sp)
9d008b50:	0f404aa5 	jal	9d012a94 <__shgetc>
9d008b54:	afad0048 	sw	t5,72(sp)
9d008b58:	8faa0054 	lw	t2,84(sp)
9d008b5c:	8fa50050 	lw	a1,80(sp)
9d008b60:	8fa3004c 	lw	v1,76(sp)
9d008b64:	1000ffac 	b	9d008a18 <__floatscan+0x640>
9d008b68:	8fad0048 	lw	t5,72(sp)
9d008b6c:	2442ffff 	addiu	v0,v0,-1
9d008b70:	aee2003c 	sw	v0,60(s7)
9d008b74:	00002825 	move	a1,zero
9d008b78:	0f4052c7 	jal	9d014b1c <__shlim>
9d008b7c:	02e02025 	move	a0,s7
9d008b80:	1000feec 	b	9d008734 <__floatscan+0x35c>
9d008b84:	00000000 	nop
9d008b88:	02ad600a 	movz	t4,s5,t5
9d008b8c:	5ea00006 	bgtzl	s5,9d008ba8 <__floatscan+0x7d0>
9d008b90:	34420020 	ori	v0,v0,0x20
9d008b94:	16a00016 	bnez	s5,9d008bf0 <__floatscan+0x818>
9d008b98:	2e830008 	sltiu	v1,s4,8
9d008b9c:	14600015 	bnez	v1,9d008bf4 <__floatscan+0x81c>
9d008ba0:	26830001 	addiu	v1,s4,1
9d008ba4:	34420020 	ori	v0,v0,0x20
9d008ba8:	24030070 	li	v1,112
9d008bac:	1443003f 	bne	v0,v1,9d008cac <__floatscan+0x8d4>
9d008bb0:	02c02825 	move	a1,s6
9d008bb4:	02e02025 	move	a0,s7
9d008bb8:	0f403d07 	jal	9d00f41c <scanexp>
9d008bbc:	afac0028 	sw	t4,40(sp)
9d008bc0:	14400014 	bnez	v0,9d008c14 <__floatscan+0x83c>
9d008bc4:	8fac0028 	lw	t4,40(sp)
9d008bc8:	3c048000 	lui	a0,0x8000
9d008bcc:	14640011 	bne	v1,a0,9d008c14 <__floatscan+0x83c>
9d008bd0:	00000000 	nop
9d008bd4:	12c0ff31 	beqz	s6,9d00889c <__floatscan+0x4c4>
9d008bd8:	00002825 	move	a1,zero
9d008bdc:	8ee3004c 	lw	v1,76(s7)
9d008be0:	54600009 	bnezl	v1,9d008c08 <__floatscan+0x830>
9d008be4:	8ee3003c 	lw	v1,60(s7)
9d008be8:	10000009 	b	9d008c10 <__floatscan+0x838>
9d008bec:	00001025 	move	v0,zero
9d008bf0:	26830001 	addiu	v1,s4,1
9d008bf4:	0074202b 	sltu	a0,v1,s4
9d008bf8:	00108100 	sll	s0,s0,0x4
9d008bfc:	0060a025 	move	s4,v1
9d008c00:	1000ffe2 	b	9d008b8c <__floatscan+0x7b4>
9d008c04:	0095a821 	addu	s5,a0,s5
9d008c08:	2463ffff 	addiu	v1,v1,-1
9d008c0c:	aee3003c 	sw	v1,60(s7)
9d008c10:	00001825 	move	v1,zero
9d008c14:	1200fec7 	beqz	s0,9d008734 <__floatscan+0x35c>
9d008c18:	27c4fff8 	addiu	a0,s8,-8
9d008c1c:	009e482b 	sltu	t1,a0,s8
9d008c20:	258cffff 	addiu	t4,t4,-1
9d008c24:	012c4821 	addu	t1,t1,t4
9d008c28:	00042f82 	srl	a1,a0,0x1e
9d008c2c:	00094880 	sll	t1,t1,0x2
9d008c30:	00042080 	sll	a0,a0,0x2
9d008c34:	00a94825 	or	t1,a1,t1
9d008c38:	00821021 	addu	v0,a0,v0
9d008c3c:	0044202b 	sltu	a0,v0,a0
9d008c40:	01231821 	addu	v1,t1,v1
9d008c44:	00831821 	addu	v1,a0,v1
9d008c48:	8fa40018 	lw	a0,24(sp)
9d008c4c:	0040a025 	move	s4,v0
9d008c50:	00042023 	negu	a0,a0
9d008c54:	00042fc3 	sra	a1,a0,0x1f
9d008c58:	00a3302a 	slt	a2,a1,v1
9d008c5c:	14c00005 	bnez	a2,9d008c74 <__floatscan+0x89c>
9d008c60:	0060a825 	move	s5,v1
9d008c64:	14650018 	bne	v1,a1,9d008cc8 <__floatscan+0x8f0>
9d008c68:	0082202b 	sltu	a0,a0,v0
9d008c6c:	10800017 	beqz	a0,9d008ccc <__floatscan+0x8f4>
9d008c70:	8fa40018 	lw	a0,24(sp)
9d008c74:	3c02a001 	lui	v0,0xa001
9d008c78:	24030022 	li	v1,34
9d008c7c:	3c109d00 	lui	s0,0x9d00
9d008c80:	02202025 	move	a0,s1
9d008c84:	0f404ec2 	jal	9d013b08 <__floatsidf>
9d008c88:	ac43a378 	sw	v1,-23688(v0)
9d008c8c:	8e067598 	lw	a2,30104(s0)
9d008c90:	8e07759c 	lw	a3,30108(s0)
9d008c94:	00402025 	move	a0,v0
9d008c98:	0f403b8f 	jal	9d00ee3c <__muldf3>
9d008c9c:	00602825 	move	a1,v1
9d008ca0:	8e067598 	lw	a2,30104(s0)
9d008ca4:	1000fea7 	b	9d008744 <__floatscan+0x36c>
9d008ca8:	8e07759c 	lw	a3,30108(s0)
9d008cac:	8ee2004c 	lw	v0,76(s7)
9d008cb0:	5040ffd7 	beqzl	v0,9d008c10 <__floatscan+0x838>
9d008cb4:	00001025 	move	v0,zero
9d008cb8:	8ee2003c 	lw	v0,60(s7)
9d008cbc:	2442ffff 	addiu	v0,v0,-1
9d008cc0:	1000ffc9 	b	9d008be8 <__floatscan+0x810>
9d008cc4:	aee2003c 	sw	v0,60(s7)
9d008cc8:	8fa40018 	lw	a0,24(sp)
9d008ccc:	2484ff96 	addiu	a0,a0,-106
9d008cd0:	00042fc3 	sra	a1,a0,0x1f
9d008cd4:	0065302a 	slt	a2,v1,a1
9d008cd8:	54c00005 	bnezl	a2,9d008cf0 <__floatscan+0x918>
9d008cdc:	3c02a001 	lui	v0,0xa001
9d008ce0:	14a3009e 	bne	a1,v1,9d008f5c <__floatscan+0xb84>
9d008ce4:	0044102b 	sltu	v0,v0,a0
9d008ce8:	1040009c 	beqz	v0,9d008f5c <__floatscan+0xb84>
9d008cec:	3c02a001 	lui	v0,0xa001
9d008cf0:	24030022 	li	v1,34
9d008cf4:	3c109d00 	lui	s0,0x9d00
9d008cf8:	02202025 	move	a0,s1
9d008cfc:	0f404ec2 	jal	9d013b08 <__floatsidf>
9d008d00:	ac43a378 	sw	v1,-23688(v0)
9d008d04:	8e0675a0 	lw	a2,30112(s0)
9d008d08:	8e0775a4 	lw	a3,30116(s0)
9d008d0c:	00402025 	move	a0,v0
9d008d10:	0f403b8f 	jal	9d00ee3c <__muldf3>
9d008d14:	00602825 	move	a1,v1
9d008d18:	8e0675a0 	lw	a2,30112(s0)
9d008d1c:	1000fe89 	b	9d008744 <__floatscan+0x36c>
9d008d20:	8e0775a4 	lw	a3,30116(s0)
9d008d24:	02c03025 	move	a2,s6
9d008d28:	02e03825 	move	a3,s7
9d008d2c:	02402025 	move	a0,s2
9d008d30:	02602825 	move	a1,s3
9d008d34:	0f404657 	jal	9d01195c <__eqdf2>
9d008d38:	00108040 	sll	s0,s0,0x1
9d008d3c:	04400084 	bltz	v0,9d008f50 <__floatscan+0xb78>
9d008d40:	02402025 	move	a0,s2
9d008d44:	8fa60028 	lw	a2,40(sp)
9d008d48:	8fa7002c 	lw	a3,44(sp)
9d008d4c:	0f4036b9 	jal	9d00dae4 <__subdf3>
9d008d50:	02602825 	move	a1,s3
9d008d54:	26100001 	addiu	s0,s0,1
9d008d58:	00403025 	move	a2,v0
9d008d5c:	00603825 	move	a3,v1
9d008d60:	02402025 	move	a0,s2
9d008d64:	0f4036bb 	jal	9d00daec <__adddf3>
9d008d68:	02602825 	move	a1,s3
9d008d6c:	00409025 	move	s2,v0
9d008d70:	2682ffff 	addiu	v0,s4,-1
9d008d74:	00609825 	move	s3,v1
9d008d78:	26b5ffff 	addiu	s5,s5,-1
9d008d7c:	0054182b 	sltu	v1,v0,s4
9d008d80:	0075a821 	addu	s5,v1,s5
9d008d84:	0040a025 	move	s4,v0
9d008d88:	0601ffe6 	bgez	s0,9d008d24 <__floatscan+0x94c>
9d008d8c:	8fa20024 	lw	v0,36(sp)
9d008d90:	8fa40018 	lw	a0,24(sp)
9d008d94:	26830020 	addiu	v1,s4,32
9d008d98:	00022fc3 	sra	a1,v0,0x1f
9d008d9c:	0074102b 	sltu	v0,v1,s4
9d008da0:	00551021 	addu	v0,v0,s5
9d008da4:	0004afc3 	sra	s5,a0,0x1f
9d008da8:	00642023 	subu	a0,v1,a0
9d008dac:	0055a823 	subu	s5,v0,s5
9d008db0:	0064182b 	sltu	v1,v1,a0
9d008db4:	02a3a823 	subu	s5,s5,v1
9d008db8:	02a5102a 	slt	v0,s5,a1
9d008dbc:	14400006 	bnez	v0,9d008dd8 <__floatscan+0xa00>
9d008dc0:	8fa20018 	lw	v0,24(sp)
9d008dc4:	14b50008 	bne	a1,s5,9d008de8 <__floatscan+0xa10>
9d008dc8:	8fa20024 	lw	v0,36(sp)
9d008dcc:	0082202b 	sltu	a0,a0,v0
9d008dd0:	10800005 	beqz	a0,9d008de8 <__floatscan+0xa10>
9d008dd4:	8fa20018 	lw	v0,24(sp)
9d008dd8:	0282b823 	subu	s7,s4,v0
9d008ddc:	26e20020 	addiu	v0,s7,32
9d008de0:	04400067 	bltz	v0,9d008f80 <__floatscan+0xba8>
9d008de4:	afa20020 	sw	v0,32(sp)
9d008de8:	8fa20020 	lw	v0,32(sp)
9d008dec:	0000b025 	move	s6,zero
9d008df0:	28420035 	slti	v0,v0,53
9d008df4:	10400022 	beqz	v0,9d008e80 <__floatscan+0xaa8>
9d008df8:	0000b825 	move	s7,zero
9d008dfc:	8fa20020 	lw	v0,32(sp)
9d008e00:	24060054 	li	a2,84
9d008e04:	00c23023 	subu	a2,a2,v0
9d008e08:	8fa20034 	lw	v0,52(sp)
9d008e0c:	8c4575b4 	lw	a1,30132(v0)
9d008e10:	0f404908 	jal	9d012420 <scalbn>
9d008e14:	8c4475b0 	lw	a0,30128(v0)
9d008e18:	02202025 	move	a0,s1
9d008e1c:	0040b025 	move	s6,v0
9d008e20:	0f404ec2 	jal	9d013b08 <__floatsidf>
9d008e24:	0060b825 	move	s7,v1
9d008e28:	00403025 	move	a2,v0
9d008e2c:	02c02025 	move	a0,s6
9d008e30:	02e02825 	move	a1,s7
9d008e34:	0f4052e8 	jal	9d014ba0 <copysignl>
9d008e38:	00603825 	move	a3,v1
9d008e3c:	0040b025 	move	s6,v0
9d008e40:	8fa20020 	lw	v0,32(sp)
9d008e44:	285e0020 	slti	s8,v0,32
9d008e48:	13c0000d 	beqz	s8,9d008e80 <__floatscan+0xaa8>
9d008e4c:	0060b825 	move	s7,v1
9d008e50:	00003025 	move	a2,zero
9d008e54:	00003825 	move	a3,zero
9d008e58:	02402025 	move	a0,s2
9d008e5c:	0f404657 	jal	9d01195c <__eqdf2>
9d008e60:	02602825 	move	a1,s3
9d008e64:	10400006 	beqz	v0,9d008e80 <__floatscan+0xaa8>
9d008e68:	32020001 	andi	v0,s0,0x1
9d008e6c:	14400004 	bnez	v0,9d008e80 <__floatscan+0xaa8>
9d008e70:	00000000 	nop
9d008e74:	26100001 	addiu	s0,s0,1
9d008e78:	00009025 	move	s2,zero
9d008e7c:	00009825 	move	s3,zero
9d008e80:	0f404ec2 	jal	9d013b08 <__floatsidf>
9d008e84:	02202025 	move	a0,s1
9d008e88:	00602825 	move	a1,v1
9d008e8c:	02403025 	move	a2,s2
9d008e90:	02603825 	move	a3,s3
9d008e94:	00402025 	move	a0,v0
9d008e98:	afa20018 	sw	v0,24(sp)
9d008e9c:	0f403b8f 	jal	9d00ee3c <__muldf3>
9d008ea0:	afa3001c 	sw	v1,28(sp)
9d008ea4:	02002025 	move	a0,s0
9d008ea8:	00409025 	move	s2,v0
9d008eac:	0f4051b0 	jal	9d0146c0 <__floatunsidf>
9d008eb0:	00609825 	move	s3,v1
9d008eb4:	8fa80018 	lw	t0,24(sp)
9d008eb8:	8fa9001c 	lw	t1,28(sp)
9d008ebc:	00402025 	move	a0,v0
9d008ec0:	01003025 	move	a2,t0
9d008ec4:	01203825 	move	a3,t1
9d008ec8:	0f403b8f 	jal	9d00ee3c <__muldf3>
9d008ecc:	00602825 	move	a1,v1
9d008ed0:	00402025 	move	a0,v0
9d008ed4:	02c03025 	move	a2,s6
9d008ed8:	02e03825 	move	a3,s7
9d008edc:	0f4036bb 	jal	9d00daec <__adddf3>
9d008ee0:	00602825 	move	a1,v1
9d008ee4:	00402025 	move	a0,v0
9d008ee8:	02403025 	move	a2,s2
9d008eec:	02603825 	move	a3,s3
9d008ef0:	0f4036bb 	jal	9d00daec <__adddf3>
9d008ef4:	00602825 	move	a1,v1
9d008ef8:	00402025 	move	a0,v0
9d008efc:	02c03025 	move	a2,s6
9d008f00:	02e03825 	move	a3,s7
9d008f04:	0f4036b9 	jal	9d00dae4 <__subdf3>
9d008f08:	00602825 	move	a1,v1
9d008f0c:	00402025 	move	a0,v0
9d008f10:	00003025 	move	a2,zero
9d008f14:	00003825 	move	a3,zero
9d008f18:	00602825 	move	a1,v1
9d008f1c:	00408025 	move	s0,v0
9d008f20:	0f404657 	jal	9d01195c <__eqdf2>
9d008f24:	00608825 	move	s1,v1
9d008f28:	14400004 	bnez	v0,9d008f3c <__floatscan+0xb64>
9d008f2c:	02803025 	move	a2,s4
9d008f30:	3c02a001 	lui	v0,0xa001
9d008f34:	24030022 	li	v1,34
9d008f38:	ac43a378 	sw	v1,-23688(v0)
9d008f3c:	02002025 	move	a0,s0
9d008f40:	0f4053e3 	jal	9d014f8c <scalbnl>
9d008f44:	02202825 	move	a1,s1
9d008f48:	1000fd96 	b	9d0085a4 <__floatscan+0x1cc>
9d008f4c:	8fbf007c 	lw	ra,124(sp)
9d008f50:	02403025 	move	a2,s2
9d008f54:	1000ff82 	b	9d008d60 <__floatscan+0x988>
9d008f58:	02603825 	move	a3,s3
9d008f5c:	3c029d00 	lui	v0,0x9d00
9d008f60:	8c5675c8 	lw	s6,30152(v0)
9d008f64:	8c5775cc 	lw	s7,30156(v0)
9d008f68:	8fa20034 	lw	v0,52(sp)
9d008f6c:	8c4375b4 	lw	v1,30132(v0)
9d008f70:	8c4275b0 	lw	v0,30128(v0)
9d008f74:	afa3002c 	sw	v1,44(sp)
9d008f78:	1000ff83 	b	9d008d88 <__floatscan+0x9b0>
9d008f7c:	afa20028 	sw	v0,40(sp)
9d008f80:	1000ff9e 	b	9d008dfc <__floatscan+0xa24>
9d008f84:	afa00020 	sw	zero,32(sp)
9d008f88:	10600005 	beqz	v1,9d008fa0 <__floatscan+0xbc8>
9d008f8c:	8fa70018 	lw	a3,24(sp)
9d008f90:	8ee2003c 	lw	v0,60(s7)
9d008f94:	2442ffff 	addiu	v0,v0,-1
9d008f98:	aee2003c 	sw	v0,60(s7)
9d008f9c:	8fa70018 	lw	a3,24(sp)
9d008fa0:	8fa60024 	lw	a2,36(sp)
9d008fa4:	afb60014 	sw	s6,20(sp)
9d008fa8:	afb10010 	sw	s1,16(sp)
9d008fac:	02402825 	move	a1,s2
9d008fb0:	0f401d96 	jal	9d007658 <decfloat>
9d008fb4:	02e02025 	move	a0,s7
9d008fb8:	1000fd7a 	b	9d0085a4 <__floatscan+0x1cc>
9d008fbc:	8fbf007c 	lw	ra,124(sp)
9d008fc0:	8c4375dc 	lw	v1,30172(v0)
9d008fc4:	1000fd76 	b	9d0085a0 <__floatscan+0x1c8>
9d008fc8:	8c4275d8 	lw	v0,30168(v0)
9d008fcc:	16c0fdd9 	bnez	s6,9d008734 <__floatscan+0x35c>
9d008fd0:	00000000 	nop
9d008fd4:	1000fee8 	b	9d008b78 <__floatscan+0x7a0>
9d008fd8:	00002825 	move	a1,zero
9d008fdc:	1460feeb 	bnez	v1,9d008b8c <__floatscan+0x7b4>
9d008fe0:	2402002e 	li	v0,46
9d008fe4:	1000fdcb 	b	9d008714 <__floatscan+0x33c>
9d008fe8:	8ee2004c 	lw	v0,76(s7)
9d008fec:	03e00008 	jr	ra
9d008ff0:	00000000 	nop

Disassembly of section .text:

9d008ff4 <current_controller>:
volatile float kp_curr = 0;
volatile float ki_curr = 0;
volatile float ref_curr = 0;
volatile int ref_not_sent = 1;

void __ISR(_TIMER_2_VECTOR, IPL4SOFT) current_controller(void) { // _TIMER_2_VECTOR = 8
9d008ff4:	415de800 	rdpgpr	sp,sp
9d008ff8:	401a7000 	mfc0	k0,c0_epc
9d008ffc:	401b6000 	mfc0	k1,c0_status
9d009000:	27bdff78 	addiu	sp,sp,-136
9d009004:	afba0084 	sw	k0,132(sp)
9d009008:	401a6002 	mfc0	k0,c0_srsctl
9d00900c:	afbb0080 	sw	k1,128(sp)
9d009010:	afba007c 	sw	k0,124(sp)
9d009014:	7c1b7844 	ins	k1,zero,0x1,0xf
9d009018:	377b1000 	ori	k1,k1,0x1000
9d00901c:	409b6000 	mtc0	k1,c0_status
9d009020:	afbf006c 	sw	ra,108(sp)
9d009024:	afbe0068 	sw	s8,104(sp)
9d009028:	afb90064 	sw	t9,100(sp)
9d00902c:	afb80060 	sw	t8,96(sp)
9d009030:	afb4005c 	sw	s4,92(sp)
9d009034:	afb30058 	sw	s3,88(sp)
9d009038:	afb20054 	sw	s2,84(sp)
9d00903c:	afb10050 	sw	s1,80(sp)
9d009040:	afb0004c 	sw	s0,76(sp)
9d009044:	afaf0048 	sw	t7,72(sp)
9d009048:	afae0044 	sw	t6,68(sp)
9d00904c:	afad0040 	sw	t5,64(sp)
9d009050:	afac003c 	sw	t4,60(sp)
9d009054:	afab0038 	sw	t3,56(sp)
9d009058:	afaa0034 	sw	t2,52(sp)
9d00905c:	afa90030 	sw	t1,48(sp)
9d009060:	afa8002c 	sw	t0,44(sp)
9d009064:	afa70028 	sw	a3,40(sp)
9d009068:	afa60024 	sw	a2,36(sp)
9d00906c:	afa50020 	sw	a1,32(sp)
9d009070:	afa4001c 	sw	a0,28(sp)
9d009074:	afa30018 	sw	v1,24(sp)
9d009078:	afa20014 	sw	v0,20(sp)
9d00907c:	afa10010 	sw	at,16(sp)
9d009080:	00001012 	mflo	v0
9d009084:	afa20074 	sw	v0,116(sp)
9d009088:	00001810 	mfhi	v1
9d00908c:	afa30070 	sw	v1,112(sp)
9d009090:	03a0f025 	move	s8,sp
  static float current = 0;
  static float u = 0;       // forcing term
  static float unew = 0;
  static float r = 200;       // reference
  static float Eint = 0;
  switch (get_mode()) {
9d009094:	0f4053f0 	jal	9d014fc0 <get_mode>
9d009098:	00000000 	nop
9d00909c:	2c510005 	sltiu	s1,v0,5
9d0090a0:	12200011 	beqz	s1,9d0090e8 <__jend_current_controller_4+0x14>
9d0090a4:	00028880 	sll	s1,v0,0x2
9d0090a8:	3c109d01 	lui	s0,0x9d01
9d0090ac:	261090c0 	addiu	s0,s0,-28480
9d0090b0:	02118021 	addu	s0,s0,s1
9d0090b4:	8e100000 	lw	s0,0(s0)
9d0090b8:	02000008 	jr	s0
9d0090bc:	00000000 	nop

9d0090c0 <__jump_current_controller_4>:
9d0090c0:	9d0090d4 9d009198 9d0091c0 9d00942c     ............,...
9d0090d0:	9d0095b4                                ....

9d0090d4 <__jend_current_controller_4>:
  case 0: { //IDLE
    OC1RS = 0;                       // duty cycle = OC1RS/(PR3+1) = 0%
9d0090d4:	3c10bf80 	lui	s0,0xbf80
9d0090d8:	ae003020 	sw	zero,12320(s0)
    set_OC1RS = 0;
9d0090dc:	af808040 	sw	zero,-32704(gp)
    ref_not_sent  = 1;
9d0090e0:	24100001 	li	s0,1
9d0090e4:	af908014 	sw	s0,-32748(gp)
    break;

  }
  }
  // insert line to clear interrupt flag
  IFS0bits.T2IF = 0;
9d0090e8:	3c10bf88 	lui	s0,0xbf88
9d0090ec:	8e111030 	lw	s1,4144(s0)
9d0090f0:	7c114a44 	ins	s1,zero,0x9,0x1
9d0090f4:	ae111030 	sw	s1,4144(s0)
}
9d0090f8:	03c0e825 	move	sp,s8
9d0090fc:	8fa20074 	lw	v0,116(sp)
9d009100:	00400013 	mtlo	v0
9d009104:	8fa30070 	lw	v1,112(sp)
9d009108:	00600011 	mthi	v1
9d00910c:	8fbf006c 	lw	ra,108(sp)
9d009110:	8fbe0068 	lw	s8,104(sp)
9d009114:	8fb90064 	lw	t9,100(sp)
9d009118:	8fb80060 	lw	t8,96(sp)
9d00911c:	8fb4005c 	lw	s4,92(sp)
9d009120:	8fb30058 	lw	s3,88(sp)
9d009124:	8fb20054 	lw	s2,84(sp)
9d009128:	8fb10050 	lw	s1,80(sp)
9d00912c:	8fb0004c 	lw	s0,76(sp)
9d009130:	8faf0048 	lw	t7,72(sp)
9d009134:	8fae0044 	lw	t6,68(sp)
9d009138:	8fad0040 	lw	t5,64(sp)
9d00913c:	8fac003c 	lw	t4,60(sp)
9d009140:	8fab0038 	lw	t3,56(sp)
9d009144:	8faa0034 	lw	t2,52(sp)
9d009148:	8fa90030 	lw	t1,48(sp)
9d00914c:	8fa8002c 	lw	t0,44(sp)
9d009150:	8fa70028 	lw	a3,40(sp)
9d009154:	8fa60024 	lw	a2,36(sp)
9d009158:	8fa50020 	lw	a1,32(sp)
9d00915c:	8fa4001c 	lw	a0,28(sp)
9d009160:	8fa30018 	lw	v1,24(sp)
9d009164:	8fa20014 	lw	v0,20(sp)
9d009168:	8fa10010 	lw	at,16(sp)
9d00916c:	41606000 	di
9d009170:	000000c0 	ehb
9d009174:	8fba0084 	lw	k0,132(sp)
9d009178:	8fbb0080 	lw	k1,128(sp)
9d00917c:	409a7000 	mtc0	k0,c0_epc
9d009180:	8fba007c 	lw	k0,124(sp)
9d009184:	27bd0088 	addiu	sp,sp,136
9d009188:	409a6002 	mtc0	k0,c0_srsctl
9d00918c:	41dde800 	wrpgpr	sp,sp
9d009190:	409b6000 	mtc0	k1,c0_status
9d009194:	42000018 	eret
    PH = set_PH;
9d009198:	8f92803c 	lw	s2,-32708(gp)
9d00919c:	3c10bf88 	lui	s0,0xbf88
9d0091a0:	92116030 	lbu	s1,24624(s0)
9d0091a4:	7e510004 	ins	s1,s2,0x0,0x1
9d0091a8:	a2116030 	sb	s1,24624(s0)
    OC1RS = set_OC1RS;
9d0091ac:	8f918040 	lw	s1,-32704(gp)
9d0091b0:	3c10bf80 	lui	s0,0xbf80
9d0091b4:	ae113020 	sw	s1,12320(s0)
    break;
9d0091b8:	1000ffcc 	b	9d0090ec <__jend_current_controller_4+0x18>
9d0091bc:	3c10bf88 	lui	s0,0xbf88
    if (curr_count == 0){
9d0091c0:	8f84802c 	lw	a0,-32724(gp)
9d0091c4:	14800012 	bnez	a0,9d009210 <__jend_current_controller_4+0x13c>
9d0091c8:	3c02bf88 	lui	v0,0xbf88
        PH = 0;
9d0091cc:	90436030 	lbu	v1,24624(v0)
9d0091d0:	7c030004 	ins	v1,zero,0x0,0x1
9d0091d4:	a0436030 	sb	v1,24624(v0)
        PH = (PH ^ 1);
9d0091d8:	3c03bf88 	lui	v1,0xbf88
9d0091dc:	8c626030 	lw	v0,24624(v1)
9d0091e0:	30420001 	andi	v0,v0,0x1
9d0091e4:	38420001 	xori	v0,v0,0x1
9d0091e8:	90646030 	lbu	a0,24624(v1)
9d0091ec:	7c440004 	ins	a0,v0,0x0,0x1
9d0091f0:	a0646030 	sb	a0,24624(v1)
        r = r * -1;
9d0091f4:	8f828010 	lw	v0,-32752(gp)
9d0091f8:	3c038000 	lui	v1,0x8000
9d0091fc:	00431026 	xor	v0,v0,v1
9d009200:	af828010 	sw	v0,-32752(gp)
        Eint = 0;
9d009204:	00001025 	move	v0,zero
9d009208:	1000000e 	b	9d009244 <__jend_current_controller_4+0x170>
9d00920c:	af828028 	sw	v0,-32728(gp)
    if (curr_count % 25 == 0){
9d009210:	3c0251eb 	lui	v0,0x51eb
9d009214:	3442851f 	ori	v0,v0,0x851f
9d009218:	00820018 	mult	a0,v0
9d00921c:	00001010 	mfhi	v0
9d009220:	000210c3 	sra	v0,v0,0x3
9d009224:	00041fc3 	sra	v1,a0,0x1f
9d009228:	00431023 	subu	v0,v0,v1
9d00922c:	00021840 	sll	v1,v0,0x1
9d009230:	00621821 	addu	v1,v1,v0
9d009234:	000318c0 	sll	v1,v1,0x3
9d009238:	00621021 	addu	v0,v1,v0
9d00923c:	1082ffe7 	beq	a0,v0,9d0091dc <__jend_current_controller_4+0x108>
9d009240:	3c03bf88 	lui	v1,0xbf88
    current = INA219_read_current();
9d009244:	0f404401 	jal	9d011004 <INA219_read_current>
9d009248:	00000000 	nop
9d00924c:	00409825 	move	s3,v0
    e = r - current;
9d009250:	8f928010 	lw	s2,-32752(gp)
9d009254:	00402825 	move	a1,v0
9d009258:	0f403f01 	jal	9d00fc04 <__subsf3>
9d00925c:	02402025 	move	a0,s2
9d009260:	00408025 	move	s0,v0
    if (r < 0){
9d009264:	00002825 	move	a1,zero
9d009268:	0f404c9d 	jal	9d013274 <fpcmplt>
9d00926c:	02402025 	move	a0,s2
9d009270:	04400055 	bltz	v0,9d0093c8 <__jend_current_controller_4+0x2f4>
9d009274:	3c028000 	lui	v0,0x8000
    e = r - current;
9d009278:	af908024 	sw	s0,-32732(gp)
    Eint = Eint + e;
9d00927c:	8f918024 	lw	s1,-32732(gp)
9d009280:	8f858028 	lw	a1,-32728(gp)
9d009284:	0f403f03 	jal	9d00fc0c <__addsf3>
9d009288:	02202025 	move	a0,s1
9d00928c:	00408025 	move	s0,v0
    if (Eint > EINTMAX) { // ADDED: integrator anti-windup
9d009290:	3c029d00 	lui	v0,0x9d00
9d009294:	8c4574f8 	lw	a1,29944(v0)
9d009298:	0f404c76 	jal	9d0131d8 <__eqsf2>
9d00929c:	02002025 	move	a0,s0
9d0092a0:	1840004c 	blez	v0,9d0093d4 <__jend_current_controller_4+0x300>
9d0092a4:	3c029d00 	lui	v0,0x9d00
        Eint = EINTMAX;
9d0092a8:	8c4274f8 	lw	v0,29944(v0)
9d0092ac:	af828028 	sw	v0,-32728(gp)
    u = kp_curr * e + ki_curr * Eint;
9d0092b0:	8f948038 	lw	s4,-32712(gp)
9d0092b4:	8f848034 	lw	a0,-32716(gp)
9d0092b8:	0f40410d 	jal	9d010434 <__mulsf3>
9d0092bc:	8f858028 	lw	a1,-32728(gp)
9d0092c0:	00408025 	move	s0,v0
9d0092c4:	02802825 	move	a1,s4
9d0092c8:	0f40410d 	jal	9d010434 <__mulsf3>
9d0092cc:	02202025 	move	a0,s1
9d0092d0:	00402825 	move	a1,v0
9d0092d4:	0f403f03 	jal	9d00fc0c <__addsf3>
9d0092d8:	02002025 	move	a0,s0
9d0092dc:	00408025 	move	s0,v0
9d0092e0:	af828020 	sw	v0,-32736(gp)
    unew = u + 40;
9d0092e4:	3c029d00 	lui	v0,0x9d00
9d0092e8:	8c457500 	lw	a1,29952(v0)
9d0092ec:	0f403f03 	jal	9d00fc0c <__addsf3>
9d0092f0:	02002025 	move	a0,s0
9d0092f4:	00408825 	move	s1,v0
    if (unew > 100.0) {
9d0092f8:	3c029d00 	lui	v0,0x9d00
9d0092fc:	8c4574f8 	lw	a1,29944(v0)
9d009300:	0f404c76 	jal	9d0131d8 <__eqsf2>
9d009304:	02202025 	move	a0,s1
9d009308:	1840003d 	blez	v0,9d009400 <__jend_current_controller_4+0x32c>
9d00930c:	3c029d00 	lui	v0,0x9d00
        unew = 100.0;
9d009310:	8c4274f8 	lw	v0,29944(v0)
9d009314:	af82801c 	sw	v0,-32740(gp)
    OC1RS = (unsigned int) ((unew/100.0) * (ROLLOVER + - 50)); //this gave me so much grief. my motor can not go up to 100% duty cycle for some weird reason, thats why I need -50 term. took me 2 hours to figure this out
9d009318:	0f404b55 	jal	9d012d54 <__extendsfdf2>
9d00931c:	8f84801c 	lw	a0,-32740(gp)
9d009320:	3c049d00 	lui	a0,0x9d00
9d009324:	8c867510 	lw	a2,29968(a0)
9d009328:	8c877514 	lw	a3,29972(a0)
9d00932c:	00402025 	move	a0,v0
9d009330:	0f403136 	jal	9d00c4d8 <__divdf3>
9d009334:	00602825 	move	a1,v1
9d009338:	3c049d00 	lui	a0,0x9d00
9d00933c:	8c867518 	lw	a2,29976(a0)
9d009340:	8c87751c 	lw	a3,29980(a0)
9d009344:	00402025 	move	a0,v0
9d009348:	0f403b8f 	jal	9d00ee3c <__muldf3>
9d00934c:	00602825 	move	a1,v1
9d009350:	00402025 	move	a0,v0
9d009354:	0f404d7a 	jal	9d0135e8 <__fixunsdfsi>
9d009358:	00602825 	move	a1,v1
9d00935c:	3c04bf80 	lui	a0,0xbf80
9d009360:	ac823020 	sw	v0,12320(a0)
    current_array[curr_count] = current;
9d009364:	8f90802c 	lw	s0,-32724(gp)
9d009368:	00108880 	sll	s1,s0,0x2
9d00936c:	3c02a000 	lui	v0,0xa000
9d009370:	244201fc 	addiu	v0,v0,508
9d009374:	02221021 	addu	v0,s1,v0
9d009378:	ac530000 	sw	s3,0(v0)
    REFarray[curr_count] = r;
9d00937c:	0f404e44 	jal	9d013910 <__fixsfsi>
9d009380:	02402025 	move	a0,s2
9d009384:	3c12a000 	lui	s2,0xa000
9d009388:	2652006c 	addiu	s2,s2,108
9d00938c:	02328821 	addu	s1,s1,s2
9d009390:	ae220000 	sw	v0,0(s1)
    if (curr_count == 99){
9d009394:	24110063 	li	s1,99
9d009398:	16110022 	bne	s0,s1,9d009424 <__jend_current_controller_4+0x350>
9d00939c:	26100001 	addiu	s0,s0,1
        curr_count = 0;
9d0093a0:	af80802c 	sw	zero,-32724(gp)
        storingdata = 0;
9d0093a4:	af80806c 	sw	zero,-32660(gp)
        Eint = 0;
9d0093a8:	00002025 	move	a0,zero
9d0093ac:	af848028 	sw	a0,-32728(gp)
        set_mode(IDLE);
9d0093b0:	0f4053f3 	jal	9d014fcc <set_mode>
9d0093b4:	00002025 	move	a0,zero
        r = 200;
9d0093b8:	3c109d00 	lui	s0,0x9d00
9d0093bc:	8e107504 	lw	s0,29956(s0)
9d0093c0:	1000ff49 	b	9d0090e8 <__jend_current_controller_4+0x14>
9d0093c4:	af908010 	sw	s0,-32752(gp)
        e = e *-1;
9d0093c8:	02028026 	xor	s0,s0,v0
9d0093cc:	1000ffab 	b	9d00927c <__jend_current_controller_4+0x1a8>
9d0093d0:	af908024 	sw	s0,-32732(gp)
    } else if (Eint < -EINTMAX) { // ADDED: integrator anti-windup
9d0093d4:	3c029d00 	lui	v0,0x9d00
9d0093d8:	8c4574fc 	lw	a1,29948(v0)
9d0093dc:	0f404c9d 	jal	9d013274 <fpcmplt>
9d0093e0:	02002025 	move	a0,s0
9d0093e4:	04400003 	bltz	v0,9d0093f4 <__jend_current_controller_4+0x320>
9d0093e8:	3c029d00 	lui	v0,0x9d00
    Eint = Eint + e;
9d0093ec:	1000ffb0 	b	9d0092b0 <__jend_current_controller_4+0x1dc>
9d0093f0:	af908028 	sw	s0,-32728(gp)
        Eint = -EINTMAX;
9d0093f4:	8c4274fc 	lw	v0,29948(v0)
9d0093f8:	1000ffad 	b	9d0092b0 <__jend_current_controller_4+0x1dc>
9d0093fc:	af828028 	sw	v0,-32728(gp)
    else if (u < 0.0) { 
9d009400:	00002825 	move	a1,zero
9d009404:	0f404c9d 	jal	9d013274 <fpcmplt>
9d009408:	02002025 	move	a0,s0
9d00940c:	04400003 	bltz	v0,9d00941c <__jend_current_controller_4+0x348>
9d009410:	00001025 	move	v0,zero
    unew = u + 40;
9d009414:	1000ffc0 	b	9d009318 <__jend_current_controller_4+0x244>
9d009418:	af91801c 	sw	s1,-32740(gp)
        unew = 0.0;
9d00941c:	1000ffbe 	b	9d009318 <__jend_current_controller_4+0x244>
9d009420:	af82801c 	sw	v0,-32740(gp)
        curr_count++;
9d009424:	1000ff30 	b	9d0090e8 <__jend_current_controller_4+0x14>
9d009428:	af90802c 	sw	s0,-32724(gp)
    current = INA219_read_current();
9d00942c:	0f404401 	jal	9d011004 <INA219_read_current>
9d009430:	00000000 	nop
    e = ref_curr - current;
9d009434:	8f848030 	lw	a0,-32720(gp)
9d009438:	0f403f01 	jal	9d00fc04 <__subsf3>
9d00943c:	00402825 	move	a1,v0
9d009440:	00408025 	move	s0,v0
9d009444:	af828024 	sw	v0,-32732(gp)
    if (ref_curr < 0){
9d009448:	8f848030 	lw	a0,-32720(gp)
9d00944c:	0f404c9d 	jal	9d013274 <fpcmplt>
9d009450:	00002825 	move	a1,zero
9d009454:	0441003e 	bgez	v0,9d009550 <__jend_current_controller_4+0x47c>
9d009458:	3c02bf88 	lui	v0,0xbf88
        PH = 1;
9d00945c:	90436030 	lbu	v1,24624(v0)
9d009460:	24040001 	li	a0,1
9d009464:	7c830004 	ins	v1,a0,0x0,0x1
9d009468:	a0436030 	sb	v1,24624(v0)
        e = e *-1;
9d00946c:	3c028000 	lui	v0,0x8000
9d009470:	02028026 	xor	s0,s0,v0
9d009474:	af908024 	sw	s0,-32732(gp)
    Eint = Eint + e;
9d009478:	8f918024 	lw	s1,-32732(gp)
9d00947c:	8f858028 	lw	a1,-32728(gp)
9d009480:	0f403f03 	jal	9d00fc0c <__addsf3>
9d009484:	02202025 	move	a0,s1
9d009488:	00408025 	move	s0,v0
    if (Eint > EINTMAX) { // ADDED: integrator anti-windup
9d00948c:	3c029d00 	lui	v0,0x9d00
9d009490:	8c4574f8 	lw	a1,29944(v0)
9d009494:	0f404c76 	jal	9d0131d8 <__eqsf2>
9d009498:	02002025 	move	a0,s0
9d00949c:	18400031 	blez	v0,9d009564 <__jend_current_controller_4+0x490>
9d0094a0:	3c029d00 	lui	v0,0x9d00
        Eint = EINTMAX;
9d0094a4:	8c4274f8 	lw	v0,29944(v0)
9d0094a8:	af828028 	sw	v0,-32728(gp)
    u = kp_curr * e + ki_curr * Eint;
9d0094ac:	8f928038 	lw	s2,-32712(gp)
9d0094b0:	8f848034 	lw	a0,-32716(gp)
9d0094b4:	0f40410d 	jal	9d010434 <__mulsf3>
9d0094b8:	8f858028 	lw	a1,-32728(gp)
9d0094bc:	00408025 	move	s0,v0
9d0094c0:	02402825 	move	a1,s2
9d0094c4:	0f40410d 	jal	9d010434 <__mulsf3>
9d0094c8:	02202025 	move	a0,s1
9d0094cc:	00402825 	move	a1,v0
9d0094d0:	0f403f03 	jal	9d00fc0c <__addsf3>
9d0094d4:	02002025 	move	a0,s0
9d0094d8:	00408025 	move	s0,v0
    if (u > 100.0) {
9d0094dc:	3c029d00 	lui	v0,0x9d00
9d0094e0:	8c4574f8 	lw	a1,29944(v0)
9d0094e4:	0f404c76 	jal	9d0131d8 <__eqsf2>
9d0094e8:	02002025 	move	a0,s0
9d0094ec:	18400028 	blez	v0,9d009590 <__jend_current_controller_4+0x4bc>
9d0094f0:	3c029d00 	lui	v0,0x9d00
        u = 100.0;
9d0094f4:	8c4274f8 	lw	v0,29944(v0)
9d0094f8:	af828020 	sw	v0,-32736(gp)
    OC1RS = (unsigned int) ((u/100.0) * (ROLLOVER + - 50)); //this gave me so much grief. my motor can not go up to 100% duty cycle for some weird reason, thats why I need -50 term. took me 2 hours to figure this out
9d0094fc:	0f404b55 	jal	9d012d54 <__extendsfdf2>
9d009500:	8f848020 	lw	a0,-32736(gp)
9d009504:	3c049d00 	lui	a0,0x9d00
9d009508:	8c867510 	lw	a2,29968(a0)
9d00950c:	8c877514 	lw	a3,29972(a0)
9d009510:	00402025 	move	a0,v0
9d009514:	0f403136 	jal	9d00c4d8 <__divdf3>
9d009518:	00602825 	move	a1,v1
9d00951c:	3c049d00 	lui	a0,0x9d00
9d009520:	8c867518 	lw	a2,29976(a0)
9d009524:	8c87751c 	lw	a3,29980(a0)
9d009528:	00402025 	move	a0,v0
9d00952c:	0f403b8f 	jal	9d00ee3c <__muldf3>
9d009530:	00602825 	move	a1,v1
9d009534:	00402025 	move	a0,v0
9d009538:	0f404d7a 	jal	9d0135e8 <__fixunsdfsi>
9d00953c:	00602825 	move	a1,v1
9d009540:	3c10bf80 	lui	s0,0xbf80
9d009544:	ae023020 	sw	v0,12320(s0)
    break;
9d009548:	1000fee8 	b	9d0090ec <__jend_current_controller_4+0x18>
9d00954c:	3c10bf88 	lui	s0,0xbf88
        PH = 0;
9d009550:	90436030 	lbu	v1,24624(v0)
9d009554:	7c030004 	ins	v1,zero,0x0,0x1
9d009558:	a0436030 	sb	v1,24624(v0)
    Eint = Eint + e;
9d00955c:	1000ffc7 	b	9d00947c <__jend_current_controller_4+0x3a8>
9d009560:	8f918024 	lw	s1,-32732(gp)
    } else if (Eint < -EINTMAX) { // ADDED: integrator anti-windup
9d009564:	3c029d00 	lui	v0,0x9d00
9d009568:	8c4574fc 	lw	a1,29948(v0)
9d00956c:	0f404c9d 	jal	9d013274 <fpcmplt>
9d009570:	02002025 	move	a0,s0
9d009574:	04400003 	bltz	v0,9d009584 <__jend_current_controller_4+0x4b0>
9d009578:	3c029d00 	lui	v0,0x9d00
    Eint = Eint + e;
9d00957c:	1000ffcb 	b	9d0094ac <__jend_current_controller_4+0x3d8>
9d009580:	af908028 	sw	s0,-32728(gp)
        Eint = -EINTMAX;
9d009584:	8c4274fc 	lw	v0,29948(v0)
9d009588:	1000ffc8 	b	9d0094ac <__jend_current_controller_4+0x3d8>
9d00958c:	af828028 	sw	v0,-32728(gp)
    else if (u < 0.0) { 
9d009590:	00002825 	move	a1,zero
9d009594:	0f404c9d 	jal	9d013274 <fpcmplt>
9d009598:	02002025 	move	a0,s0
9d00959c:	04400003 	bltz	v0,9d0095ac <__jend_current_controller_4+0x4d8>
9d0095a0:	00001025 	move	v0,zero
    u = kp_curr * e + ki_curr * Eint;
9d0095a4:	1000ffd5 	b	9d0094fc <__jend_current_controller_4+0x428>
9d0095a8:	af908020 	sw	s0,-32736(gp)
        u = 0.0;
9d0095ac:	1000ffd3 	b	9d0094fc <__jend_current_controller_4+0x428>
9d0095b0:	af828020 	sw	v0,-32736(gp)
    current = INA219_read_current();
9d0095b4:	0f404401 	jal	9d011004 <INA219_read_current>
9d0095b8:	00000000 	nop
    e = ref_curr - current;
9d0095bc:	8f848030 	lw	a0,-32720(gp)
9d0095c0:	0f403f01 	jal	9d00fc04 <__subsf3>
9d0095c4:	00402825 	move	a1,v0
9d0095c8:	00408025 	move	s0,v0
9d0095cc:	af828024 	sw	v0,-32732(gp)
    if (ref_curr < 0){
9d0095d0:	8f848030 	lw	a0,-32720(gp)
9d0095d4:	0f404c9d 	jal	9d013274 <fpcmplt>
9d0095d8:	00002825 	move	a1,zero
9d0095dc:	0441003e 	bgez	v0,9d0096d8 <__jend_current_controller_4+0x604>
9d0095e0:	3c02bf88 	lui	v0,0xbf88
        PH = 1;
9d0095e4:	90436030 	lbu	v1,24624(v0)
9d0095e8:	24040001 	li	a0,1
9d0095ec:	7c830004 	ins	v1,a0,0x0,0x1
9d0095f0:	a0436030 	sb	v1,24624(v0)
        e = e *-1;
9d0095f4:	3c028000 	lui	v0,0x8000
9d0095f8:	02028026 	xor	s0,s0,v0
9d0095fc:	af908024 	sw	s0,-32732(gp)
    Eint = Eint + e;
9d009600:	8f918024 	lw	s1,-32732(gp)
9d009604:	8f858028 	lw	a1,-32728(gp)
9d009608:	0f403f03 	jal	9d00fc0c <__addsf3>
9d00960c:	02202025 	move	a0,s1
9d009610:	00408025 	move	s0,v0
    if (Eint > EINTMAX) { // ADDED: integrator anti-windup
9d009614:	3c029d00 	lui	v0,0x9d00
9d009618:	8c4574f8 	lw	a1,29944(v0)
9d00961c:	0f404c76 	jal	9d0131d8 <__eqsf2>
9d009620:	02002025 	move	a0,s0
9d009624:	18400031 	blez	v0,9d0096ec <__jend_current_controller_4+0x618>
9d009628:	3c029d00 	lui	v0,0x9d00
        Eint = EINTMAX;
9d00962c:	8c4274f8 	lw	v0,29944(v0)
9d009630:	af828028 	sw	v0,-32728(gp)
    u = kp_curr * e + ki_curr * Eint;
9d009634:	8f928038 	lw	s2,-32712(gp)
9d009638:	8f848034 	lw	a0,-32716(gp)
9d00963c:	0f40410d 	jal	9d010434 <__mulsf3>
9d009640:	8f858028 	lw	a1,-32728(gp)
9d009644:	00408025 	move	s0,v0
9d009648:	02402825 	move	a1,s2
9d00964c:	0f40410d 	jal	9d010434 <__mulsf3>
9d009650:	02202025 	move	a0,s1
9d009654:	00402825 	move	a1,v0
9d009658:	0f403f03 	jal	9d00fc0c <__addsf3>
9d00965c:	02002025 	move	a0,s0
9d009660:	00408025 	move	s0,v0
    if (u > 100.0) {
9d009664:	3c029d00 	lui	v0,0x9d00
9d009668:	8c4574f8 	lw	a1,29944(v0)
9d00966c:	0f404c76 	jal	9d0131d8 <__eqsf2>
9d009670:	02002025 	move	a0,s0
9d009674:	18400028 	blez	v0,9d009718 <__jend_current_controller_4+0x644>
9d009678:	3c029d00 	lui	v0,0x9d00
        u = 100.0;
9d00967c:	8c4274f8 	lw	v0,29944(v0)
9d009680:	af828020 	sw	v0,-32736(gp)
    OC1RS = (unsigned int) ((u/100.0) * (ROLLOVER + - 50)); //this gave me so much grief. my motor can not go up to 100% duty cycle for some weird reason, thats why I need -50 term. took me 2 hours to figure this out
9d009684:	0f404b55 	jal	9d012d54 <__extendsfdf2>
9d009688:	8f848020 	lw	a0,-32736(gp)
9d00968c:	3c049d00 	lui	a0,0x9d00
9d009690:	8c867510 	lw	a2,29968(a0)
9d009694:	8c877514 	lw	a3,29972(a0)
9d009698:	00402025 	move	a0,v0
9d00969c:	0f403136 	jal	9d00c4d8 <__divdf3>
9d0096a0:	00602825 	move	a1,v1
9d0096a4:	3c049d00 	lui	a0,0x9d00
9d0096a8:	8c867518 	lw	a2,29976(a0)
9d0096ac:	8c87751c 	lw	a3,29980(a0)
9d0096b0:	00402025 	move	a0,v0
9d0096b4:	0f403b8f 	jal	9d00ee3c <__muldf3>
9d0096b8:	00602825 	move	a1,v1
9d0096bc:	00402025 	move	a0,v0
9d0096c0:	0f404d7a 	jal	9d0135e8 <__fixunsdfsi>
9d0096c4:	00602825 	move	a1,v1
9d0096c8:	3c10bf80 	lui	s0,0xbf80
9d0096cc:	ae023020 	sw	v0,12320(s0)
    break;
9d0096d0:	1000fe86 	b	9d0090ec <__jend_current_controller_4+0x18>
9d0096d4:	3c10bf88 	lui	s0,0xbf88
        PH = 0;
9d0096d8:	90436030 	lbu	v1,24624(v0)
9d0096dc:	7c030004 	ins	v1,zero,0x0,0x1
9d0096e0:	a0436030 	sb	v1,24624(v0)
    Eint = Eint + e;
9d0096e4:	1000ffc7 	b	9d009604 <__jend_current_controller_4+0x530>
9d0096e8:	8f918024 	lw	s1,-32732(gp)
    } else if (Eint < -EINTMAX) { // ADDED: integrator anti-windup
9d0096ec:	3c029d00 	lui	v0,0x9d00
9d0096f0:	8c4574fc 	lw	a1,29948(v0)
9d0096f4:	0f404c9d 	jal	9d013274 <fpcmplt>
9d0096f8:	02002025 	move	a0,s0
9d0096fc:	04400003 	bltz	v0,9d00970c <__jend_current_controller_4+0x638>
9d009700:	3c029d00 	lui	v0,0x9d00
    Eint = Eint + e;
9d009704:	1000ffcb 	b	9d009634 <__jend_current_controller_4+0x560>
9d009708:	af908028 	sw	s0,-32728(gp)
        Eint = -EINTMAX;
9d00970c:	8c4274fc 	lw	v0,29948(v0)
9d009710:	1000ffc8 	b	9d009634 <__jend_current_controller_4+0x560>
9d009714:	af828028 	sw	v0,-32728(gp)
    else if (u < 0.0) { 
9d009718:	00002825 	move	a1,zero
9d00971c:	0f404c9d 	jal	9d013274 <fpcmplt>
9d009720:	02002025 	move	a0,s0
9d009724:	04400003 	bltz	v0,9d009734 <__jend_current_controller_4+0x660>
9d009728:	00001025 	move	v0,zero
    u = kp_curr * e + ki_curr * Eint;
9d00972c:	1000ffd5 	b	9d009684 <__jend_current_controller_4+0x5b0>
9d009730:	af908020 	sw	s0,-32736(gp)
        u = 0.0;
9d009734:	1000ffd3 	b	9d009684 <__jend_current_controller_4+0x5b0>
9d009738:	af828020 	sw	v0,-32736(gp)

9d00973c <currentcontrol_setup>:

void currentcontrol_setup(void){
9d00973c:	27bdfff8 	addiu	sp,sp,-8
9d009740:	afbf0004 	sw	ra,4(sp)
    //configure OC1 and Timer3
    RPB15Rbits.RPB15R = 0b0101;   //use B15 as OC1
9d009744:	3c02bf81 	lui	v0,0xbf81
9d009748:	9043fb68 	lbu	v1,-1176(v0)
9d00974c:	24040005 	li	a0,5
9d009750:	7c831804 	ins	v1,a0,0x0,0x4
9d009754:	a043fb68 	sb	v1,-1176(v0)
    OC1CONbits.OCTSEL = 1;        //use timer3
9d009758:	3c03bf80 	lui	v1,0xbf80
9d00975c:	94643000 	lhu	a0,12288(v1)
9d009760:	24020001 	li	v0,1
9d009764:	7c4418c4 	ins	a0,v0,0x3,0x1
9d009768:	a4643000 	sh	a0,12288(v1)
    T3CONbits.TCKPS = 0;          // Timer3 prescaler N=1 (1:1)
9d00976c:	3c04bf80 	lui	a0,0xbf80
9d009770:	94850a00 	lhu	a1,2560(a0)
9d009774:	7c053104 	ins	a1,zero,0x4,0x3
9d009778:	a4850a00 	sh	a1,2560(a0)
    PR3 = ROLLOVER;                   // period = (PR3+1) * N * 20.833 ns = 50 us, 20 kHz
9d00977c:	3c05bf80 	lui	a1,0xbf80
9d009780:	2406095f 	li	a2,2399
9d009784:	aca60a20 	sw	a2,2592(a1)
    TMR3 = 0;                     // initial TMR3 count is 0
9d009788:	3c05bf80 	lui	a1,0xbf80
9d00978c:	aca00a10 	sw	zero,2576(a1)
    OC1CONbits.OCM = 0b110;       // PWM mode without fault pin; other OC1CON bits are defaults
9d009790:	94653000 	lhu	a1,12288(v1)
9d009794:	24060006 	li	a2,6
9d009798:	7cc51004 	ins	a1,a2,0x0,0x3
9d00979c:	a4653000 	sh	a1,12288(v1)
    OC1RS = 0;                    // duty cycle = OC1RS/(PR3+1) = 0%
9d0097a0:	3c05bf80 	lui	a1,0xbf80
9d0097a4:	aca03020 	sw	zero,12320(a1)
    OC1R = 0;                     // initialize before turning OC1 on; afterward it is read-only
9d0097a8:	3c05bf80 	lui	a1,0xbf80
9d0097ac:	aca03010 	sw	zero,12304(a1)
    T3CONbits.ON = 1;             // turn on Timer3
9d0097b0:	94850a00 	lhu	a1,2560(a0)
9d0097b4:	7c457bc4 	ins	a1,v0,0xf,0x1
9d0097b8:	a4850a00 	sh	a1,2560(a0)
    OC1CONbits.ON = 1;            // turn on OC1
9d0097bc:	94643000 	lhu	a0,12288(v1)
9d0097c0:	7c447bc4 	ins	a0,v0,0xf,0x1
9d0097c4:	a4643000 	sh	a0,12288(v1)

    //set A0 as an output and set high
    TRISAbits.TRISA0 = 0;
9d0097c8:	3c03bf88 	lui	v1,0xbf88
9d0097cc:	90646010 	lbu	a0,24592(v1)
9d0097d0:	7c040004 	ins	a0,zero,0x0,0x1
9d0097d4:	a0646010 	sb	a0,24592(v1)
    PH = 1;
9d0097d8:	3c03bf88 	lui	v1,0xbf88
9d0097dc:	90646030 	lbu	a0,24624(v1)
9d0097e0:	7c440004 	ins	a0,v0,0x0,0x1
9d0097e4:	a0646030 	sb	a0,24624(v1)

    __builtin_disable_interrupts();
9d0097e8:	41636000 	di	v1
9d0097ec:	000000c0 	ehb
    PR2 = 9599; //should be 9599
9d0097f0:	3c03bf80 	lui	v1,0xbf80
9d0097f4:	2404257f 	li	a0,9599
9d0097f8:	ac640820 	sw	a0,2080(v1)
    TMR2 = 0;
9d0097fc:	3c03bf80 	lui	v1,0xbf80
9d009800:	ac600810 	sw	zero,2064(v1)
    T2CONbits.TCKPS = 0;          // set prescaler to 1
9d009804:	3c03bf80 	lui	v1,0xbf80
9d009808:	94640800 	lhu	a0,2048(v1)
9d00980c:	7c043104 	ins	a0,zero,0x4,0x3
9d009810:	a4640800 	sh	a0,2048(v1)
    T2CONbits.ON = 1;             // turn on Timer2
9d009814:	94640800 	lhu	a0,2048(v1)
9d009818:	7c447bc4 	ins	a0,v0,0xf,0x1
9d00981c:	a4640800 	sh	a0,2048(v1)
    IPC2bits.T2IP = 4;            // INT step 4: priority 4
9d009820:	3c03bf88 	lui	v1,0xbf88
9d009824:	8c6410b0 	lw	a0,4272(v1)
9d009828:	24050004 	li	a1,4
9d00982c:	7ca42084 	ins	a0,a1,0x2,0x3
9d009830:	ac6410b0 	sw	a0,4272(v1)
    IPC2bits.T2IS = 0;            // subpriority 0
9d009834:	8c6410b0 	lw	a0,4272(v1)
9d009838:	7c040804 	ins	a0,zero,0x0,0x2
9d00983c:	ac6410b0 	sw	a0,4272(v1)
    IFS0bits.T2IF = 0;            // INT step 5: clear interrupt flag
9d009840:	3c03bf88 	lui	v1,0xbf88
9d009844:	8c641030 	lw	a0,4144(v1)
9d009848:	7c044a44 	ins	a0,zero,0x9,0x1
9d00984c:	ac641030 	sw	a0,4144(v1)
    IEC0bits.T2IE = 1;            // INT step 6: enable interrupt
9d009850:	3c03bf88 	lui	v1,0xbf88
9d009854:	8c641060 	lw	a0,4192(v1)
9d009858:	7c444a44 	ins	a0,v0,0x9,0x1
9d00985c:	ac641060 	sw	a0,4192(v1)
    __builtin_enable_interrupts();
9d009860:	41626020 	ei	v0
}
9d009864:	8fbf0004 	lw	ra,4(sp)
9d009868:	03e00008 	jr	ra
9d00986c:	27bd0008 	addiu	sp,sp,8

9d009870 <set_duty_cycle>:

void set_duty_cycle(int duty){
9d009870:	27bdffe8 	addiu	sp,sp,-24
9d009874:	afbf0014 	sw	ra,20(sp)
    float duty_c = duty/100.0;
9d009878:	0f404ec2 	jal	9d013b08 <__floatsidf>
9d00987c:	afb00010 	sw	s0,16(sp)
9d009880:	3c049d00 	lui	a0,0x9d00
9d009884:	8c867510 	lw	a2,29968(a0)
9d009888:	8c877514 	lw	a3,29972(a0)
9d00988c:	00402025 	move	a0,v0
9d009890:	0f403136 	jal	9d00c4d8 <__divdf3>
9d009894:	00602825 	move	a1,v1
9d009898:	00402025 	move	a0,v0
9d00989c:	0f40488b 	jal	9d01222c <__truncdfsf2>
9d0098a0:	00602825 	move	a1,v1
9d0098a4:	00408025 	move	s0,v0
    if (duty_c < 0){
9d0098a8:	00002825 	move	a1,zero
9d0098ac:	0f404c9d 	jal	9d013274 <fpcmplt>
9d0098b0:	00402025 	move	a0,v0
9d0098b4:	04410019 	bgez	v0,9d00991c <set_duty_cycle+0xac>
9d0098b8:	24020001 	li	v0,1
        set_PH = 1;
9d0098bc:	af82803c 	sw	v0,-32708(gp)
        duty_c = duty_c*(-1);
9d0098c0:	3c028000 	lui	v0,0x8000
9d0098c4:	00508026 	xor	s0,v0,s0
    else{
        set_PH = 0;
    }
    

    if (duty_c > .02){
9d0098c8:	0f404b55 	jal	9d012d54 <__extendsfdf2>
9d0098cc:	02002025 	move	a0,s0
9d0098d0:	3c049d00 	lui	a0,0x9d00
9d0098d4:	8c867520 	lw	a2,29984(a0)
9d0098d8:	8c877524 	lw	a3,29988(a0)
9d0098dc:	00402025 	move	a0,v0
9d0098e0:	0f404657 	jal	9d01195c <__eqdf2>
9d0098e4:	00602825 	move	a1,v1
9d0098e8:	1840000f 	blez	v0,9d009928 <set_duty_cycle+0xb8>
9d0098ec:	3c029d00 	lui	v0,0x9d00
        set_OC1RS = (int)(duty_c * (ROLLOVER + 1)) - 50; //for some reason the motor slowed down a lot as OC1RS got really close to PR3
9d0098f0:	8c457508 	lw	a1,29960(v0)
9d0098f4:	0f40410d 	jal	9d010434 <__mulsf3>
9d0098f8:	02002025 	move	a0,s0
9d0098fc:	0f404e44 	jal	9d013910 <__fixsfsi>
9d009900:	00402025 	move	a0,v0
9d009904:	2442ffce 	addiu	v0,v0,-50
9d009908:	af828040 	sw	v0,-32704(gp)
    else
    {
        set_OC1RS = (int)(duty_c * (ROLLOVER + 1));

    }
}
9d00990c:	8fbf0014 	lw	ra,20(sp)
9d009910:	8fb00010 	lw	s0,16(sp)
9d009914:	03e00008 	jr	ra
9d009918:	27bd0018 	addiu	sp,sp,24
        set_PH = 0;
9d00991c:	af80803c 	sw	zero,-32708(gp)
9d009920:	1000ffe9 	b	9d0098c8 <set_duty_cycle+0x58>
9d009924:	00000000 	nop
        set_OC1RS = (int)(duty_c * (ROLLOVER + 1));
9d009928:	8c457508 	lw	a1,29960(v0)
9d00992c:	0f40410d 	jal	9d010434 <__mulsf3>
9d009930:	02002025 	move	a0,s0
9d009934:	0f404e44 	jal	9d013910 <__fixsfsi>
9d009938:	00402025 	move	a0,v0
9d00993c:	af828040 	sw	v0,-32704(gp)
}
9d009940:	1000fff3 	b	9d009910 <set_duty_cycle+0xa0>
9d009944:	8fbf0014 	lw	ra,20(sp)

9d009948 <set_current_gains>:

void set_current_gains(float kp, float ki){
    kp_curr = kp;
9d009948:	af848038 	sw	a0,-32712(gp)
    ki_curr = ki;
9d00994c:	af858034 	sw	a1,-32716(gp)
}
9d009950:	03e00008 	jr	ra
9d009954:	00000000 	nop

9d009958 <get_current_gains>:

void get_current_gains(float *kp, float *ki){
    *kp = kp_curr;
9d009958:	8f828038 	lw	v0,-32712(gp)
9d00995c:	ac820000 	sw	v0,0(a0)
    *ki = ki_curr;
9d009960:	8f828034 	lw	v0,-32716(gp)
}
9d009964:	03e00008 	jr	ra
9d009968:	aca20000 	sw	v0,0(a1)

9d00996c <set_ref_curr>:

void set_ref_curr(float ref){
    ref_curr = ref;
9d00996c:	af848030 	sw	a0,-32720(gp)
    ref_not_sent = 0;
9d009970:	af808014 	sw	zero,-32748(gp)
}
9d009974:	03e00008 	jr	ra
9d009978:	00000000 	nop

Disassembly of section .text.__fmt_fp:

9d00997c <__fmt_fp>:
9d00997c:	27bdff68 	addiu	sp,sp,-152
9d009980:	afa700a4 	sw	a3,164(sp)
9d009984:	8ca20000 	lw	v0,0(a1)
9d009988:	afb60088 	sw	s6,136(sp)
9d00998c:	afb40080 	sw	s4,128(sp)
9d009990:	afa2001c 	sw	v0,28(sp)
9d009994:	8ca20008 	lw	v0,8(a1)
9d009998:	8cd60000 	lw	s6,0(a2)
9d00999c:	8cd40004 	lw	s4,4(a2)
9d0099a0:	afa20020 	sw	v0,32(sp)
9d0099a4:	8ca20010 	lw	v0,16(a1)
9d0099a8:	afb50084 	sw	s5,132(sp)
9d0099ac:	afb00070 	sw	s0,112(sp)
9d0099b0:	afa40098 	sw	a0,152(sp)
9d0099b4:	afa5009c 	sw	a1,156(sp)
9d0099b8:	8cb00004 	lw	s0,4(a1)
9d0099bc:	8cb5000c 	lw	s5,12(a1)
9d0099c0:	00003025 	move	a2,zero
9d0099c4:	00003825 	move	a3,zero
9d0099c8:	02c02025 	move	a0,s6
9d0099cc:	02802825 	move	a1,s4
9d0099d0:	afbf0094 	sw	ra,148(sp)
9d0099d4:	afbe0090 	sw	s8,144(sp)
9d0099d8:	afb7008c 	sw	s7,140(sp)
9d0099dc:	afb3007c 	sw	s3,124(sp)
9d0099e0:	afb20078 	sw	s2,120(sp)
9d0099e4:	afb10074 	sw	s1,116(sp)
9d0099e8:	0f4046a2 	jal	9d011a88 <dpcmplt>
9d0099ec:	afa20050 	sw	v0,80(sp)
9d0099f0:	0440000e 	bltz	v0,9d009a2c <__fmt_fp+0xb0>
9d0099f4:	8fa2001c 	lw	v0,28(sp)
9d0099f8:	30420004 	andi	v0,v0,0x4
9d0099fc:	1440000e 	bnez	v0,9d009a38 <__fmt_fp+0xbc>
9d009a00:	2402002b 	li	v0,43
9d009a04:	8fa2001c 	lw	v0,28(sp)
9d009a08:	30420008 	andi	v0,v0,0x8
9d009a0c:	afa20024 	sw	v0,36(sp)
9d009a10:	8fa20020 	lw	v0,32(sp)
9d009a14:	afa20018 	sw	v0,24(sp)
9d009a18:	8fa20024 	lw	v0,36(sp)
9d009a1c:	1040000c 	beqz	v0,9d009a50 <__fmt_fp+0xd4>
9d009a20:	24020020 	li	v0,32
9d009a24:	10000005 	b	9d009a3c <__fmt_fp+0xc0>
9d009a28:	a2a20000 	sb	v0,0(s5)
9d009a2c:	3c028000 	lui	v0,0x8000
9d009a30:	0054a026 	xor	s4,v0,s4
9d009a34:	2402002d 	li	v0,45
9d009a38:	a2a20000 	sb	v0,0(s5)
9d009a3c:	8fa20020 	lw	v0,32(sp)
9d009a40:	2442ffff 	addiu	v0,v0,-1
9d009a44:	afa20018 	sw	v0,24(sp)
9d009a48:	24020001 	li	v0,1
9d009a4c:	afa20024 	sw	v0,36(sp)
9d009a50:	8fa30024 	lw	v1,36(sp)
9d009a54:	7e82f000 	ext	v0,s4,0x0,0x1f
9d009a58:	02a31821 	addu	v1,s5,v1
9d009a5c:	16c00024 	bnez	s6,9d009af0 <__fmt_fp+0x174>
9d009a60:	afa3002c 	sw	v1,44(sp)
9d009a64:	3c037ff0 	lui	v1,0x7ff0
9d009a68:	14430022 	bne	v0,v1,9d009af4 <__fmt_fp+0x178>
9d009a6c:	3c047ff0 	lui	a0,0x7ff0
9d009a70:	8fa200a4 	lw	v0,164(sp)
9d009a74:	2442ffbf 	addiu	v0,v0,-65
9d009a78:	2c42001a 	sltiu	v0,v0,26
9d009a7c:	1040001a 	beqz	v0,9d009ae8 <__fmt_fp+0x16c>
9d009a80:	3c059d00 	lui	a1,0x9d00
9d009a84:	3c059d00 	lui	a1,0x9d00
9d009a88:	24a57548 	addiu	a1,a1,30024
9d009a8c:	0f405326 	jal	9d014c98 <strcpy>
9d009a90:	8fa4002c 	lw	a0,44(sp)
9d009a94:	0f405402 	jal	9d015008 <strlen>
9d009a98:	02a02025 	move	a0,s5
9d009a9c:	8fa3001c 	lw	v1,28(sp)
9d009aa0:	8fa70020 	lw	a3,32(sp)
9d009aa4:	8fa40098 	lw	a0,152(sp)
9d009aa8:	afa30010 	sw	v1,16(sp)
9d009aac:	02a02825 	move	a1,s5
9d009ab0:	0f40484b 	jal	9d01212c <__pad>
9d009ab4:	00403025 	move	a2,v0
9d009ab8:	8fbf0094 	lw	ra,148(sp)
9d009abc:	8fbe0090 	lw	s8,144(sp)
9d009ac0:	8fb7008c 	lw	s7,140(sp)
9d009ac4:	8fb60088 	lw	s6,136(sp)
9d009ac8:	8fb50084 	lw	s5,132(sp)
9d009acc:	8fb40080 	lw	s4,128(sp)
9d009ad0:	8fb3007c 	lw	s3,124(sp)
9d009ad4:	8fb20078 	lw	s2,120(sp)
9d009ad8:	8fb10074 	lw	s1,116(sp)
9d009adc:	8fb00070 	lw	s0,112(sp)
9d009ae0:	03e00008 	jr	ra
9d009ae4:	27bd0098 	addiu	sp,sp,152
9d009ae8:	1000ffe8 	b	9d009a8c <__fmt_fp+0x110>
9d009aec:	24a5754c 	addiu	a1,a1,30028
9d009af0:	3c047ff0 	lui	a0,0x7ff0
9d009af4:	24830001 	addiu	v1,a0,1
9d009af8:	0043182b 	sltu	v1,v0,v1
9d009afc:	50600005 	beqzl	v1,9d009b14 <__fmt_fp+0x198>
9d009b00:	8fa200a4 	lw	v0,164(sp)
9d009b04:	1444000c 	bne	v0,a0,9d009b38 <__fmt_fp+0x1bc>
9d009b08:	00003025 	move	a2,zero
9d009b0c:	12c0000a 	beqz	s6,9d009b38 <__fmt_fp+0x1bc>
9d009b10:	8fa200a4 	lw	v0,164(sp)
9d009b14:	2442ffbf 	addiu	v0,v0,-65
9d009b18:	2c42001a 	sltiu	v0,v0,26
9d009b1c:	50400004 	beqzl	v0,9d009b30 <__fmt_fp+0x1b4>
9d009b20:	3c059d00 	lui	a1,0x9d00
9d009b24:	3c059d00 	lui	a1,0x9d00
9d009b28:	1000ffd8 	b	9d009a8c <__fmt_fp+0x110>
9d009b2c:	24a57550 	addiu	a1,a1,30032
9d009b30:	1000ffd6 	b	9d009a8c <__fmt_fp+0x110>
9d009b34:	24a57554 	addiu	a1,a1,30036
9d009b38:	00003825 	move	a3,zero
9d009b3c:	02c02025 	move	a0,s6
9d009b40:	0f404657 	jal	9d01195c <__eqdf2>
9d009b44:	02802825 	move	a1,s4
9d009b48:	3c139d00 	lui	s3,0x9d00
9d009b4c:	3c039d00 	lui	v1,0x9d00
9d009b50:	afa30030 	sw	v1,48(sp)
9d009b54:	8e717558 	lw	s1,30040(s3)
9d009b58:	8e72755c 	lw	s2,30044(s3)
9d009b5c:	14400013 	bnez	v0,9d009bac <__fmt_fp+0x230>
9d009b60:	0000b825 	move	s7,zero
9d009b64:	0f40538f 	jal	9d014e3c <tolower>
9d009b68:	8fa400a4 	lw	a0,164(sp)
9d009b6c:	7c021420 	seb	v0,v0
9d009b70:	afa20028 	sw	v0,40(sp)
9d009b74:	8fa30028 	lw	v1,40(sp)
9d009b78:	060001ae 	bltz	s0,9d00a234 <__fmt_fp+0x8b8>
9d009b7c:	24020067 	li	v0,103
9d009b80:	14620055 	bne	v1,v0,9d009cd8 <__fmt_fp+0x35c>
9d009b84:	8fbe0028 	lw	s8,40(sp)
9d009b88:	52000001 	beqzl	s0,9d009b90 <__fmt_fp+0x214>
9d009b8c:	24100001 	li	s0,1
9d009b90:	2ae2fffc 	slti	v0,s7,-4
9d009b94:	14400003 	bnez	v0,9d009ba4 <__fmt_fp+0x228>
9d009b98:	02f0102a 	slt	v0,s7,s0
9d009b9c:	1440019f 	bnez	v0,9d00a21c <__fmt_fp+0x8a0>
9d009ba0:	00000000 	nop
9d009ba4:	10000058 	b	9d009d08 <__fmt_fp+0x38c>
9d009ba8:	241e0065 	li	s8,101
9d009bac:	3c029d00 	lui	v0,0x9d00
9d009bb0:	8c4a7560 	lw	t2,30048(v0)
9d009bb4:	8c4b7564 	lw	t3,30052(v0)
9d009bb8:	01403025 	move	a2,t2
9d009bbc:	01603825 	move	a3,t3
9d009bc0:	02202025 	move	a0,s1
9d009bc4:	02402825 	move	a1,s2
9d009bc8:	afaa0038 	sw	t2,56(sp)
9d009bcc:	0f403b8f 	jal	9d00ee3c <__muldf3>
9d009bd0:	afab003c 	sw	t3,60(sp)
9d009bd4:	00402025 	move	a0,v0
9d009bd8:	02c03025 	move	a2,s6
9d009bdc:	02803825 	move	a3,s4
9d009be0:	00602825 	move	a1,v1
9d009be4:	0040f025 	move	s8,v0
9d009be8:	0f404657 	jal	9d01195c <__eqdf2>
9d009bec:	afa30028 	sw	v1,40(sp)
9d009bf0:	1c40002a 	bgtz	v0,9d009c9c <__fmt_fp+0x320>
9d009bf4:	8fa80028 	lw	t0,40(sp)
9d009bf8:	8faa0038 	lw	t2,56(sp)
9d009bfc:	8fab003c 	lw	t3,60(sp)
9d009c00:	26f70001 	addiu	s7,s7,1
9d009c04:	03c08825 	move	s1,s8
9d009c08:	1000ffeb 	b	9d009bb8 <__fmt_fp+0x23c>
9d009c0c:	01009025 	move	s2,t0
9d009c10:	10400012 	beqz	v0,9d009c5c <__fmt_fp+0x2e0>
9d009c14:	8fa60040 	lw	a2,64(sp)
9d009c18:	17c0000f 	bnez	s8,9d009c58 <__fmt_fp+0x2dc>
9d009c1c:	8fa60028 	lw	a2,40(sp)
9d009c20:	8fa70038 	lw	a3,56(sp)
9d009c24:	02c02025 	move	a0,s6
9d009c28:	0f403b8f 	jal	9d00ee3c <__muldf3>
9d009c2c:	02802825 	move	a1,s4
9d009c30:	8fa60048 	lw	a2,72(sp)
9d009c34:	8fa70054 	lw	a3,84(sp)
9d009c38:	02202025 	move	a0,s1
9d009c3c:	02402825 	move	a1,s2
9d009c40:	0040b025 	move	s6,v0
9d009c44:	0f403b8f 	jal	9d00ee3c <__muldf3>
9d009c48:	0060a025 	move	s4,v1
9d009c4c:	00408825 	move	s1,v0
9d009c50:	00609025 	move	s2,v1
9d009c54:	241e0001 	li	s8,1
9d009c58:	8fa60040 	lw	a2,64(sp)
9d009c5c:	8fa70044 	lw	a3,68(sp)
9d009c60:	02202025 	move	a0,s1
9d009c64:	0f403136 	jal	9d00c4d8 <__divdf3>
9d009c68:	02402825 	move	a1,s2
9d009c6c:	00408825 	move	s1,v0
9d009c70:	00609025 	move	s2,v1
9d009c74:	26f7ffff 	addiu	s7,s7,-1
9d009c78:	02203025 	move	a2,s1
9d009c7c:	02403825 	move	a3,s2
9d009c80:	02c02025 	move	a0,s6
9d009c84:	0f4046a2 	jal	9d011a88 <dpcmplt>
9d009c88:	02802825 	move	a1,s4
9d009c8c:	0442ffe0 	bltzl	v0,9d009c10 <__fmt_fp+0x294>
9d009c90:	2ae2fed4 	slti	v0,s7,-300
9d009c94:	1000ffb3 	b	9d009b64 <__fmt_fp+0x1e8>
9d009c98:	00000000 	nop
9d009c9c:	3c029d00 	lui	v0,0x9d00
9d009ca0:	8c437568 	lw	v1,30056(v0)
9d009ca4:	8c42756c 	lw	v0,30060(v0)
9d009ca8:	0000f025 	move	s8,zero
9d009cac:	afa30028 	sw	v1,40(sp)
9d009cb0:	afa20038 	sw	v0,56(sp)
9d009cb4:	8fa20038 	lw	v0,56(sp)
9d009cb8:	afa30048 	sw	v1,72(sp)
9d009cbc:	afa20054 	sw	v0,84(sp)
9d009cc0:	8fa20030 	lw	v0,48(sp)
9d009cc4:	8c437564 	lw	v1,30052(v0)
9d009cc8:	8c427560 	lw	v0,30048(v0)
9d009ccc:	afa30044 	sw	v1,68(sp)
9d009cd0:	1000ffe9 	b	9d009c78 <__fmt_fp+0x2fc>
9d009cd4:	afa20040 	sw	v0,64(sp)
9d009cd8:	24020066 	li	v0,102
9d009cdc:	17c2000a 	bne	s8,v0,9d009d08 <__fmt_fp+0x38c>
9d009ce0:	26100001 	addiu	s0,s0,1
9d009ce4:	06e10004 	bgez	s7,9d009cf8 <__fmt_fp+0x37c>
9d009ce8:	8fa30028 	lw	v1,40(sp)
9d009cec:	8e717558 	lw	s1,30040(s3)
9d009cf0:	8e72755c 	lw	s2,30044(s3)
9d009cf4:	0000b825 	move	s7,zero
9d009cf8:	24020067 	li	v0,103
9d009cfc:	10620002 	beq	v1,v0,9d009d08 <__fmt_fp+0x38c>
9d009d00:	241e0066 	li	s8,102
9d009d04:	02178021 	addu	s0,s0,s7
9d009d08:	8fa20030 	lw	v0,48(sp)
9d009d0c:	02205025 	move	t2,s1
9d009d10:	02404825 	move	t1,s2
9d009d14:	8c437564 	lw	v1,30052(v0)
9d009d18:	8c427560 	lw	v0,30048(v0)
9d009d1c:	02c06025 	move	t4,s6
9d009d20:	02809825 	move	s3,s4
9d009d24:	00005825 	move	t3,zero
9d009d28:	afa20048 	sw	v0,72(sp)
9d009d2c:	afa3004c 	sw	v1,76(sp)
9d009d30:	01403025 	move	a2,t2
9d009d34:	01203825 	move	a3,t1
9d009d38:	01802025 	move	a0,t4
9d009d3c:	02602825 	move	a1,s3
9d009d40:	afab0068 	sw	t3,104(sp)
9d009d44:	afaa0060 	sw	t2,96(sp)
9d009d48:	afa90064 	sw	t1,100(sp)
9d009d4c:	afac0058 	sw	t4,88(sp)
9d009d50:	0f403136 	jal	9d00c4d8 <__divdf3>
9d009d54:	afb30054 	sw	s3,84(sp)
9d009d58:	00402025 	move	a0,v0
9d009d5c:	0f404809 	jal	9d012024 <dpfloor>
9d009d60:	00602825 	move	a1,v1
9d009d64:	00602825 	move	a1,v1
9d009d68:	00402025 	move	a0,v0
9d009d6c:	afa3003c 	sw	v1,60(sp)
9d009d70:	0f404d33 	jal	9d0134cc <__fixdfsi>
9d009d74:	afa20038 	sw	v0,56(sp)
9d009d78:	8fa80054 	lw	t0,84(sp)
9d009d7c:	8fac0038 	lw	t4,56(sp)
9d009d80:	8fae0058 	lw	t6,88(sp)
9d009d84:	8fa90064 	lw	t1,100(sp)
9d009d88:	8faa0060 	lw	t2,96(sp)
9d009d8c:	8fad003c 	lw	t5,60(sp)
9d009d90:	3c138000 	lui	s3,0x8000
9d009d94:	02682026 	xor	a0,s3,t0
9d009d98:	01403025 	move	a2,t2
9d009d9c:	01203825 	move	a3,t1
9d009da0:	01a02825 	move	a1,t5
9d009da4:	afae0010 	sw	t6,16(sp)
9d009da8:	afa40014 	sw	a0,20(sp)
9d009dac:	01802025 	move	a0,t4
9d009db0:	afa90058 	sw	t1,88(sp)
9d009db4:	0f402c3d 	jal	9d00b0f4 <fma>
9d009db8:	afa20040 	sw	v0,64(sp)
9d009dbc:	8faa0060 	lw	t2,96(sp)
9d009dc0:	8fa90058 	lw	t1,88(sp)
9d009dc4:	8fa60048 	lw	a2,72(sp)
9d009dc8:	8fa7004c 	lw	a3,76(sp)
9d009dcc:	01402025 	move	a0,t2
9d009dd0:	01202825 	move	a1,t1
9d009dd4:	afa20038 	sw	v0,56(sp)
9d009dd8:	afa20054 	sw	v0,84(sp)
9d009ddc:	0f403136 	jal	9d00c4d8 <__divdf3>
9d009de0:	02639826 	xor	s3,s3,v1
9d009de4:	8fab0068 	lw	t3,104(sp)
9d009de8:	00405025 	move	t2,v0
9d009dec:	00604825 	move	t1,v1
9d009df0:	256b0001 	addiu	t3,t3,1
9d009df4:	160bffce 	bne	s0,t3,9d009d30 <__fmt_fp+0x3b4>
9d009df8:	8fac0054 	lw	t4,84(sp)
9d009dfc:	3c029d00 	lui	v0,0x9d00
9d009e00:	8c467570 	lw	a2,30064(v0)
9d009e04:	8c477574 	lw	a3,30068(v0)
9d009e08:	01402025 	move	a0,t2
9d009e0c:	0f403b8f 	jal	9d00ee3c <__muldf3>
9d009e10:	00602825 	move	a1,v1
9d009e14:	00603825 	move	a3,v1
9d009e18:	afa3004c 	sw	v1,76(sp)
9d009e1c:	8fa30038 	lw	v1,56(sp)
9d009e20:	00403025 	move	a2,v0
9d009e24:	02602825 	move	a1,s3
9d009e28:	00602025 	move	a0,v1
9d009e2c:	0f4046a2 	jal	9d011a88 <dpcmplt>
9d009e30:	afa20048 	sw	v0,72(sp)
9d009e34:	0440000f 	bltz	v0,9d009e74 <__fmt_fp+0x4f8>
9d009e38:	8faa0048 	lw	t2,72(sp)
9d009e3c:	8fab004c 	lw	t3,76(sp)
9d009e40:	8fa30038 	lw	v1,56(sp)
9d009e44:	01403025 	move	a2,t2
9d009e48:	01603825 	move	a3,t3
9d009e4c:	00602025 	move	a0,v1
9d009e50:	0f404657 	jal	9d01195c <__eqdf2>
9d009e54:	02602825 	move	a1,s3
9d009e58:	8faa0048 	lw	t2,72(sp)
9d009e5c:	14400007 	bnez	v0,9d009e7c <__fmt_fp+0x500>
9d009e60:	8fab004c 	lw	t3,76(sp)
9d009e64:	8fa20040 	lw	v0,64(sp)
9d009e68:	30420001 	andi	v0,v0,0x1
9d009e6c:	14400004 	bnez	v0,9d009e80 <__fmt_fp+0x504>
9d009e70:	01403025 	move	a2,t2
9d009e74:	00005025 	move	t2,zero
9d009e78:	00005825 	move	t3,zero
9d009e7c:	01403025 	move	a2,t2
9d009e80:	01603825 	move	a3,t3
9d009e84:	02c02025 	move	a0,s6
9d009e88:	0f4036bb 	jal	9d00daec <__adddf3>
9d009e8c:	02802825 	move	a1,s4
9d009e90:	0040b025 	move	s6,v0
9d009e94:	afa20038 	sw	v0,56(sp)
9d009e98:	8fa20030 	lw	v0,48(sp)
9d009e9c:	02202025 	move	a0,s1
9d009ea0:	02402825 	move	a1,s2
9d009ea4:	8c467560 	lw	a2,30048(v0)
9d009ea8:	8c477564 	lw	a3,30052(v0)
9d009eac:	afa30040 	sw	v1,64(sp)
9d009eb0:	0f403b8f 	jal	9d00ee3c <__muldf3>
9d009eb4:	afa30048 	sw	v1,72(sp)
9d009eb8:	8fa80048 	lw	t0,72(sp)
9d009ebc:	02c03025 	move	a2,s6
9d009ec0:	00402025 	move	a0,v0
9d009ec4:	01003825 	move	a3,t0
9d009ec8:	00602825 	move	a1,v1
9d009ecc:	00409825 	move	s3,v0
9d009ed0:	0f4046a2 	jal	9d011a88 <dpcmplt>
9d009ed4:	0060a025 	move	s4,v1
9d009ed8:	1c40005e 	bgtz	v0,9d00a054 <__fmt_fp+0x6d8>
9d009edc:	24020066 	li	v0,102
9d009ee0:	17c2005e 	bne	s8,v0,9d00a05c <__fmt_fp+0x6e0>
9d009ee4:	26f70001 	addiu	s7,s7,1
9d009ee8:	26100001 	addiu	s0,s0,1
9d009eec:	02e08825 	move	s1,s7
9d009ef0:	02301023 	subu	v0,s1,s0
9d009ef4:	afa20048 	sw	v0,72(sp)
9d009ef8:	8fa2001c 	lw	v0,28(sp)
9d009efc:	8fb60024 	lw	s6,36(sp)
9d009f00:	00005825 	move	t3,zero
9d009f04:	30420010 	andi	v0,v0,0x10
9d009f08:	afa20054 	sw	v0,84(sp)
9d009f0c:	8fa20030 	lw	v0,48(sp)
9d009f10:	00008025 	move	s0,zero
9d009f14:	24120009 	li	s2,9
9d009f18:	8c437564 	lw	v1,30052(v0)
9d009f1c:	8c427560 	lw	v0,30048(v0)
9d009f20:	afa30034 	sw	v1,52(sp)
9d009f24:	afa20030 	sw	v0,48(sp)
9d009f28:	8fa20048 	lw	v0,72(sp)
9d009f2c:	10510007 	beq	v0,s1,9d009f4c <__fmt_fp+0x5d0>
9d009f30:	02c05025 	move	t2,s6
9d009f34:	8fa2009c 	lw	v0,156(sp)
9d009f38:	8c420010 	lw	v0,16(v0)
9d009f3c:	2442fffb 	addiu	v0,v0,-5
9d009f40:	02c2102b 	sltu	v0,s6,v0
9d009f44:	14400049 	bnez	v0,9d00a06c <__fmt_fp+0x6f0>
9d009f48:	8fa30038 	lw	v1,56(sp)
9d009f4c:	16000007 	bnez	s0,9d009f6c <__fmt_fp+0x5f0>
9d009f50:	8fa2001c 	lw	v0,28(sp)
9d009f54:	30420010 	andi	v0,v0,0x10
9d009f58:	10400004 	beqz	v0,9d009f6c <__fmt_fp+0x5f0>
9d009f5c:	02aa5021 	addu	t2,s5,t2
9d009f60:	2402002e 	li	v0,46
9d009f64:	26d60001 	addiu	s6,s6,1
9d009f68:	a1420000 	sb	v0,0(t2)
9d009f6c:	02b62021 	addu	a0,s5,s6
9d009f70:	24020065 	li	v0,101
9d009f74:	17c20025 	bne	s8,v0,9d00a00c <__fmt_fp+0x690>
9d009f78:	a0800000 	sb	zero,0(a0)
9d009f7c:	06e10003 	bgez	s7,9d009f8c <__fmt_fp+0x610>
9d009f80:	00001825 	move	v1,zero
9d009f84:	0017b823 	negu	s7,s7
9d009f88:	24030001 	li	v1,1
9d009f8c:	8fa20050 	lw	v0,80(sp)
9d009f90:	8fa60018 	lw	a2,24(sp)
9d009f94:	2407000a 	li	a3,10
9d009f98:	2442ffff 	addiu	v0,v0,-1
9d009f9c:	02a22821 	addu	a1,s5,v0
9d009fa0:	a0a00000 	sb	zero,0(a1)
9d009fa4:	24c9fffe 	addiu	t1,a2,-2
9d009fa8:	24050002 	li	a1,2
9d009fac:	16e00089 	bnez	s7,9d00a1d4 <__fmt_fp+0x858>
9d009fb0:	01253021 	addu	a2,t1,a1
9d009fb4:	1ca00087 	bgtz	a1,9d00a1d4 <__fmt_fp+0x858>
9d009fb8:	00000000 	nop
9d009fbc:	2407002d 	li	a3,45
9d009fc0:	2405002b 	li	a1,43
9d009fc4:	00e3280b 	movn	a1,a3,v1
9d009fc8:	00a01825 	move	v1,a1
9d009fcc:	02a22821 	addu	a1,s5,v0
9d009fd0:	a0a3ffff 	sb	v1,-1(a1)
9d009fd4:	8fa300a4 	lw	v1,164(sp)
9d009fd8:	24050045 	li	a1,69
9d009fdc:	2442fffe 	addiu	v0,v0,-2
9d009fe0:	2463ffbf 	addiu	v1,v1,-65
9d009fe4:	2c63001a 	sltiu	v1,v1,26
9d009fe8:	00a3f00b 	movn	s8,a1,v1
9d009fec:	02c2b02a 	slt	s6,s6,v0
9d009ff0:	02a22821 	addu	a1,s5,v0
9d009ff4:	24c3fffe 	addiu	v1,a2,-2
9d009ff8:	a0be0000 	sb	s8,0(a1)
9d009ffc:	12c00003 	beqz	s6,9d00a00c <__fmt_fp+0x690>
9d00a000:	afa30018 	sw	v1,24(sp)
9d00a004:	0f405326 	jal	9d014c98 <strcpy>
9d00a008:	00000000 	nop
9d00a00c:	8fa2001c 	lw	v0,28(sp)
9d00a010:	24030002 	li	v1,2
9d00a014:	30420003 	andi	v0,v0,0x3
9d00a018:	1443fe9e 	bne	v0,v1,9d009a94 <__fmt_fp+0x118>
9d00a01c:	8fa20018 	lw	v0,24(sp)
9d00a020:	1840fe9c 	blez	v0,9d009a94 <__fmt_fp+0x118>
9d00a024:	00000000 	nop
9d00a028:	0f405402 	jal	9d015008 <strlen>
9d00a02c:	02a02025 	move	a0,s5
9d00a030:	8fa30024 	lw	v1,36(sp)
9d00a034:	0043182a 	slt	v1,v0,v1
9d00a038:	10600070 	beqz	v1,9d00a1fc <__fmt_fp+0x880>
9d00a03c:	8fa60018 	lw	a2,24(sp)
9d00a040:	8fa4002c 	lw	a0,44(sp)
9d00a044:	0f40533a 	jal	9d014ce8 <memset>
9d00a048:	24050030 	li	a1,48
9d00a04c:	1000fe91 	b	9d009a94 <__fmt_fp+0x118>
9d00a050:	afa00020 	sw	zero,32(sp)
9d00a054:	02209825 	move	s3,s1
9d00a058:	0240a025 	move	s4,s2
9d00a05c:	3bc90065 	xori	t1,s8,0x65
9d00a060:	02e08825 	move	s1,s7
9d00a064:	1000ffa2 	b	9d009ef0 <__fmt_fp+0x574>
9d00a068:	0009880a 	movz	s1,zero,t1
9d00a06c:	8fa20040 	lw	v0,64(sp)
9d00a070:	02603025 	move	a2,s3
9d00a074:	02803825 	move	a3,s4
9d00a078:	00602025 	move	a0,v1
9d00a07c:	00402825 	move	a1,v0
9d00a080:	afab0064 	sw	t3,100(sp)
9d00a084:	0f403136 	jal	9d00c4d8 <__divdf3>
9d00a088:	afaa0060 	sw	t2,96(sp)
9d00a08c:	00402025 	move	a0,v0
9d00a090:	0f404809 	jal	9d012024 <dpfloor>
9d00a094:	00602825 	move	a1,v1
9d00a098:	00602825 	move	a1,v1
9d00a09c:	00402025 	move	a0,v0
9d00a0a0:	afa3005c 	sw	v1,92(sp)
9d00a0a4:	0f404d33 	jal	9d0134cc <__fixdfsi>
9d00a0a8:	afa20058 	sw	v0,88(sp)
9d00a0ac:	2843000a 	slti	v1,v0,10
9d00a0b0:	0243100a 	movz	v0,s2,v1
9d00a0b4:	8fa30054 	lw	v1,84(sp)
9d00a0b8:	8fb80058 	lw	t8,88(sp)
9d00a0bc:	8fb9005c 	lw	t9,92(sp)
9d00a0c0:	00621825 	or	v1,v1,v0
9d00a0c4:	8faa0060 	lw	t2,96(sp)
9d00a0c8:	1460000b 	bnez	v1,9d00a0f8 <__fmt_fp+0x77c>
9d00a0cc:	8fab0064 	lw	t3,100(sp)
9d00a0d0:	8fa40028 	lw	a0,40(sp)
9d00a0d4:	24030067 	li	v1,103
9d00a0d8:	14830007 	bne	a0,v1,9d00a0f8 <__fmt_fp+0x77c>
9d00a0dc:	00000000 	nop
9d00a0e0:	06200021 	bltz	s1,9d00a168 <__fmt_fp+0x7ec>
9d00a0e4:	256a0001 	addiu	t2,t3,1
9d00a0e8:	02c01825 	move	v1,s6
9d00a0ec:	02b62021 	addu	a0,s5,s6
9d00a0f0:	10000011 	b	9d00a138 <__fmt_fp+0x7bc>
9d00a0f4:	01605025 	move	t2,t3
9d00a0f8:	1600fffc 	bnez	s0,9d00a0ec <__fmt_fp+0x770>
9d00a0fc:	02c01825 	move	v1,s6
9d00a100:	0623fffb 	bgezl	s1,9d00a0f0 <__fmt_fp+0x774>
9d00a104:	02b62021 	addu	a0,s5,s6
9d00a108:	8fa30018 	lw	v1,24(sp)
9d00a10c:	02aa5021 	addu	t2,s5,t2
9d00a110:	26d60001 	addiu	s6,s6,1
9d00a114:	2463ffff 	addiu	v1,v1,-1
9d00a118:	afa30018 	sw	v1,24(sp)
9d00a11c:	2403002e 	li	v1,46
9d00a120:	a1430000 	sb	v1,0(t2)
9d00a124:	1000fff0 	b	9d00a0e8 <__fmt_fp+0x76c>
9d00a128:	24100001 	li	s0,1
9d00a12c:	a0850000 	sb	a1,0(a0)
9d00a130:	254affff 	addiu	t2,t2,-1
9d00a134:	24840001 	addiu	a0,a0,1
9d00a138:	1540fffc 	bnez	t2,9d00a12c <__fmt_fp+0x7b0>
9d00a13c:	24050030 	li	a1,48
9d00a140:	8fa40018 	lw	a0,24(sp)
9d00a144:	26d60001 	addiu	s6,s6,1
9d00a148:	02a31821 	addu	v1,s5,v1
9d00a14c:	2484ffff 	addiu	a0,a0,-1
9d00a150:	008b2023 	subu	a0,a0,t3
9d00a154:	02cbb021 	addu	s6,s6,t3
9d00a158:	24420030 	addiu	v0,v0,48
9d00a15c:	006b5821 	addu	t3,v1,t3
9d00a160:	afa40018 	sw	a0,24(sp)
9d00a164:	a1620000 	sb	v0,0(t3)
9d00a168:	8fa20040 	lw	v0,64(sp)
9d00a16c:	8fa50038 	lw	a1,56(sp)
9d00a170:	3c0b8000 	lui	t3,0x8000
9d00a174:	01622026 	xor	a0,t3,v0
9d00a178:	02603025 	move	a2,s3
9d00a17c:	02803825 	move	a3,s4
9d00a180:	afa50010 	sw	a1,16(sp)
9d00a184:	afa40014 	sw	a0,20(sp)
9d00a188:	03202825 	move	a1,t9
9d00a18c:	03002025 	move	a0,t8
9d00a190:	0f402c3d 	jal	9d00b0f4 <fma>
9d00a194:	afaa0058 	sw	t2,88(sp)
9d00a198:	8fa60030 	lw	a2,48(sp)
9d00a19c:	8fa70034 	lw	a3,52(sp)
9d00a1a0:	3c0b8000 	lui	t3,0x8000
9d00a1a4:	afa20038 	sw	v0,56(sp)
9d00a1a8:	02602025 	move	a0,s3
9d00a1ac:	01631026 	xor	v0,t3,v1
9d00a1b0:	02802825 	move	a1,s4
9d00a1b4:	0f403136 	jal	9d00c4d8 <__divdf3>
9d00a1b8:	afa20040 	sw	v0,64(sp)
9d00a1bc:	8faa0058 	lw	t2,88(sp)
9d00a1c0:	00409825 	move	s3,v0
9d00a1c4:	0060a025 	move	s4,v1
9d00a1c8:	2631ffff 	addiu	s1,s1,-1
9d00a1cc:	1000ff56 	b	9d009f28 <__fmt_fp+0x5ac>
9d00a1d0:	01405825 	move	t3,t2
9d00a1d4:	02e7001a 	div	zero,s7,a3
9d00a1d8:	00e001f4 	teq	a3,zero,0x7
9d00a1dc:	2442ffff 	addiu	v0,v0,-1
9d00a1e0:	02a25021 	addu	t2,s5,v0
9d00a1e4:	24a5ffff 	addiu	a1,a1,-1
9d00a1e8:	00003010 	mfhi	a2
9d00a1ec:	24c60030 	addiu	a2,a2,48
9d00a1f0:	a1460000 	sb	a2,0(t2)
9d00a1f4:	1000ff6d 	b	9d009fac <__fmt_fp+0x630>
9d00a1f8:	0000b812 	mflo	s7
9d00a1fc:	02a21821 	addu	v1,s5,v0
9d00a200:	80640000 	lb	a0,0(v1)
9d00a204:	8fa30018 	lw	v1,24(sp)
9d00a208:	00621821 	addu	v1,v1,v0
9d00a20c:	02a31821 	addu	v1,s5,v1
9d00a210:	a0640000 	sb	a0,0(v1)
9d00a214:	1000ff86 	b	9d00a030 <__fmt_fp+0x6b4>
9d00a218:	2442ffff 	addiu	v0,v0,-1
9d00a21c:	06e1feb6 	bgez	s7,9d009cf8 <__fmt_fp+0x37c>
9d00a220:	8fa30028 	lw	v1,40(sp)
9d00a224:	1000feac 	b	9d009cd8 <__fmt_fp+0x35c>
9d00a228:	241e0066 	li	s8,102
9d00a22c:	1000fe58 	b	9d009b90 <__fmt_fp+0x214>
9d00a230:	24100006 	li	s0,6
9d00a234:	1062fe56 	beq	v1,v0,9d009b90 <__fmt_fp+0x214>
9d00a238:	24100006 	li	s0,6
9d00a23c:	1000fea6 	b	9d009cd8 <__fmt_fp+0x35c>
9d00a240:	0060f025 	move	s8,v1

Disassembly of section .text:

9d00a244 <main>:


//NOTE make sure to put the motor in idle between using TRACK on 2 unique trajectories.


int main(void) {
9d00a244:	27bdfee0 	addiu	sp,sp,-288
9d00a248:	afbf011c 	sw	ra,284(sp)
9d00a24c:	afbe0118 	sw	s8,280(sp)
9d00a250:	afb70114 	sw	s7,276(sp)
9d00a254:	afb60110 	sw	s6,272(sp)
9d00a258:	afb5010c 	sw	s5,268(sp)
9d00a25c:	afb40108 	sw	s4,264(sp)
9d00a260:	afb30104 	sw	s3,260(sp)
9d00a264:	afb20100 	sw	s2,256(sp)
9d00a268:	afb100fc 	sw	s1,252(sp)
9d00a26c:	afb000f8 	sw	s0,248(sp)
  set_mode(IDLE);
9d00a270:	0f4053f3 	jal	9d014fcc <set_mode>
9d00a274:	00002025 	move	a0,zero
  char buffer[BUF_SIZE];
  NU32DIP_YELLOW = 1;                     // turn off the LEDs
9d00a278:	3c02bf88 	lui	v0,0xbf88
9d00a27c:	94436130 	lhu	v1,24880(v0)
9d00a280:	24040001 	li	a0,1
9d00a284:	7c832944 	ins	v1,a0,0x5,0x1
9d00a288:	a4436130 	sh	v1,24880(v0)
  NU32DIP_GREEN = 1;
9d00a28c:	94436130 	lhu	v1,24880(v0)
9d00a290:	7c832104 	ins	v1,a0,0x4,0x1
9d00a294:	a4436130 	sh	v1,24880(v0)
  __builtin_disable_interrupts();
9d00a298:	41626000 	di	v0
9d00a29c:	000000c0 	ehb
  // in future, initialize modules or peripherals here
  NU32DIP_Startup();                      // cache on, min flash wait, interrupts on, LED/button init, UART init
9d00a2a0:	0f40409d 	jal	9d010274 <NU32DIP_Startup>
9d00a2a4:	00000000 	nop
  UART2_Startup();                        //open communication with pico
9d00a2a8:	0f4038c3 	jal	9d00e30c <UART2_Startup>
9d00a2ac:	00000000 	nop
  INA219_Startup();
9d00a2b0:	0f4043cf 	jal	9d010f3c <INA219_Startup>
9d00a2b4:	00000000 	nop
  position_control_setup();
9d00a2b8:	0f403349 	jal	9d00cd24 <position_control_setup>
9d00a2bc:	00000000 	nop
  currentcontrol_setup();
9d00a2c0:	0f4025cf 	jal	9d00973c <currentcontrol_setup>
9d00a2c4:	00000000 	nop
  __builtin_enable_interrupts();
9d00a2c8:	41626020 	ei	v0
  while(1) {
       
    NU32DIP_ReadUART1(buffer,BUF_SIZE);   // we expect the next character to be a menu command
    NU32DIP_YELLOW = 1;                   // clear the error LED
9d00a2cc:	3c12bf88 	lui	s2,0xbf88

    switch (buffer[0]) {
9d00a2d0:	3c139d01 	lui	s3,0x9d01
9d00a2d4:	2673a338 	addiu	s3,s3,-23752
      // handle q for quit. Later you may want to return to IDLE mode here.
      set_mode(IDLE);
      break;
    }
    case 'r': {
      sprintf(buffer, "%d\n\r", get_mode());
9d00a2d8:	3c169d00 	lui	s6,0x9d00
        sprintf(buffer, "%f %f\r\n", pos_ref_array[i], angle_array[i]);
9d00a2dc:	3c029d00 	lui	v0,0x9d00
9d00a2e0:	244274e8 	addiu	v0,v0,29928
9d00a2e4:	afa200f4 	sw	v0,244(sp)
        sscanf(buffer, "%f", &pos_ref_array[i]); //this might need to be int
9d00a2e8:	3c109d00 	lui	s0,0x9d00
9d00a2ec:	261074d4 	addiu	s0,s0,29908
    NU32DIP_ReadUART1(buffer,BUF_SIZE);   // we expect the next character to be a menu command
9d00a2f0:	240500c8 	li	a1,200
9d00a2f4:	0f4040e5 	jal	9d010394 <NU32DIP_ReadUART1>
9d00a2f8:	27a40018 	addiu	a0,sp,24
    NU32DIP_YELLOW = 1;                   // clear the error LED
9d00a2fc:	96426130 	lhu	v0,24880(s2)
9d00a300:	24030001 	li	v1,1
9d00a304:	7c622944 	ins	v0,v1,0x5,0x1
9d00a308:	a6426130 	sh	v0,24880(s2)
    switch (buffer[0]) {
9d00a30c:	93a20018 	lbu	v0,24(sp)
9d00a310:	2442ff9e 	addiu	v0,v0,-98
9d00a314:	304300ff 	andi	v1,v0,0xff
9d00a318:	2c630017 	sltiu	v1,v1,23
9d00a31c:	10600027 	beqz	v1,9d00a3bc <__jend_main_5+0x28>
9d00a320:	304200ff 	andi	v0,v0,0xff
9d00a324:	00021080 	sll	v0,v0,0x2
9d00a328:	02621021 	addu	v0,s3,v0
9d00a32c:	8c420000 	lw	v0,0(v0)
9d00a330:	00400008 	jr	v0
9d00a334:	00000000 	nop

9d00a338 <__jump_main_5>:
9d00a338:	9d00a3d0 9d00a434 9d00a45c 9d00a494     ....4...\.......
9d00a348:	9d00a4a4 9d00a4e0 9d00a538 9d00a598     ........8.......
9d00a358:	9d00a614 9d00a69c 9d00a73c 9d00a780     ........<.......
9d00a368:	9d00a7fc 9d00a878 9d00a928 9d00a938     ....x...(...8...
9d00a378:	9d00a948 9d00a3bc 9d00a3bc 9d00a3bc     H...............
9d00a388:	9d00a3bc 9d00a3bc 9d00a394              ............

9d00a394 <__jend_main_5>:
9d00a394:	3c11a000 	lui	s1,0xa000
9d00a398:	2631038c 	addiu	s1,s1,908
      NU32DIP_WriteUART1(buffer); // send mode to client
      break;
    }    
    case 'x': {
      for (int i = 0; i < get_N(); i++) { // send plot data to client
9d00a39c:	0000a825 	move	s5,zero
        // when first number sent = 1, client knows were done
        sprintf(buffer, "%f\r\n", pos_ref_array[i]);
9d00a3a0:	3c149d00 	lui	s4,0x9d00
9d00a3a4:	269474f0 	addiu	s4,s4,29936
      for (int i = 0; i < get_N(); i++) { // send plot data to client
9d00a3a8:	0f403384 	jal	9d00ce10 <get_N>
9d00a3ac:	00000000 	nop
9d00a3b0:	02a2102a 	slt	v0,s5,v0
9d00a3b4:	1440016e 	bnez	v0,9d00a970 <__jend_main_5+0x5dc>
9d00a3b8:	00000000 	nop
        NU32DIP_WriteUART1(buffer);
      }
    }
    default: {
      NU32DIP_YELLOW = 0;                 // turn on LED2 to indicate an error
9d00a3bc:	96426130 	lhu	v0,24880(s2)
9d00a3c0:	7c022944 	ins	v0,zero,0x5,0x1
9d00a3c4:	a6426130 	sh	v0,24880(s2)
      break;
9d00a3c8:	1000ffca 	b	9d00a2f4 <main+0xb0>
9d00a3cc:	240500c8 	li	a1,200
      if(get_mode() == HOLD || get_mode() == TRACK){
9d00a3d0:	0f4053f0 	jal	9d014fc0 <get_mode>
9d00a3d4:	00000000 	nop
9d00a3d8:	24030003 	li	v1,3
9d00a3dc:	10430009 	beq	v0,v1,9d00a404 <__jend_main_5+0x70>
9d00a3e0:	00002025 	move	a0,zero
9d00a3e4:	0f4053f0 	jal	9d014fc0 <get_mode>
9d00a3e8:	00000000 	nop
9d00a3ec:	24030004 	li	v1,4
9d00a3f0:	10430004 	beq	v0,v1,9d00a404 <__jend_main_5+0x70>
9d00a3f4:	00002025 	move	a0,zero
        curr = INA219_read_current();
9d00a3f8:	0f404401 	jal	9d011004 <INA219_read_current>
9d00a3fc:	00000000 	nop
9d00a400:	00402025 	move	a0,v0
      sprintf(buffer,"%f\n\r", curr); //save current in mA to buffer
9d00a404:	0f404b55 	jal	9d012d54 <__extendsfdf2>
9d00a408:	00000000 	nop
9d00a40c:	00403025 	move	a2,v0
9d00a410:	00603825 	move	a3,v1
9d00a414:	3c059d00 	lui	a1,0x9d00
9d00a418:	24a574c0 	addiu	a1,a1,29888
9d00a41c:	0f4052fe 	jal	9d014bf8 <_dsprintf_cdeEfFgGnopuxX>
9d00a420:	27a40018 	addiu	a0,sp,24
      NU32DIP_WriteUART1(buffer); // send encoder count to client
9d00a424:	0f4040fe 	jal	9d0103f8 <NU32DIP_WriteUART1>
9d00a428:	27a40018 	addiu	a0,sp,24
      break;
9d00a42c:	1000ffb1 	b	9d00a2f4 <main+0xb0>
9d00a430:	240500c8 	li	a1,200
      sprintf(buffer,"%d\n\r", get_encoder_count());
9d00a434:	0f40390f 	jal	9d00e43c <get_encoder_count>
9d00a438:	00000000 	nop
9d00a43c:	00403025 	move	a2,v0
9d00a440:	26c574c8 	addiu	a1,s6,29896
9d00a444:	0f4052fe 	jal	9d014bf8 <_dsprintf_cdeEfFgGnopuxX>
9d00a448:	27a40018 	addiu	a0,sp,24
      NU32DIP_WriteUART1(buffer); // send encoder count to client
9d00a44c:	0f4040fe 	jal	9d0103f8 <NU32DIP_WriteUART1>
9d00a450:	27a40018 	addiu	a0,sp,24
      break;
9d00a454:	1000ffa7 	b	9d00a2f4 <main+0xb0>
9d00a458:	240500c8 	li	a1,200
      sprintf(buffer,"%f\n\r", get_encoder_degrees());
9d00a45c:	0f403930 	jal	9d00e4c0 <get_encoder_degrees>
9d00a460:	00000000 	nop
9d00a464:	0f404b55 	jal	9d012d54 <__extendsfdf2>
9d00a468:	00402025 	move	a0,v0
9d00a46c:	00403025 	move	a2,v0
9d00a470:	00603825 	move	a3,v1
9d00a474:	3c059d00 	lui	a1,0x9d00
9d00a478:	24a574c0 	addiu	a1,a1,29888
9d00a47c:	0f4052fe 	jal	9d014bf8 <_dsprintf_cdeEfFgGnopuxX>
9d00a480:	27a40018 	addiu	a0,sp,24
      NU32DIP_WriteUART1(buffer); // send encoder count to client
9d00a484:	0f4040fe 	jal	9d0103f8 <NU32DIP_WriteUART1>
9d00a488:	27a40018 	addiu	a0,sp,24
      break;
9d00a48c:	1000ff99 	b	9d00a2f4 <main+0xb0>
9d00a490:	240500c8 	li	a1,200
      reset_encoder();
9d00a494:	0f403928 	jal	9d00e4a0 <reset_encoder>
9d00a498:	00000000 	nop
      break;
9d00a49c:	1000ff95 	b	9d00a2f4 <main+0xb0>
9d00a4a0:	240500c8 	li	a1,200
      set_mode(PWM);
9d00a4a4:	0f4053f3 	jal	9d014fcc <set_mode>
9d00a4a8:	24040001 	li	a0,1
      int duty_cycle = 0;
9d00a4ac:	afa000e0 	sw	zero,224(sp)
      NU32DIP_ReadUART1(buffer,BUF_SIZE);
9d00a4b0:	240500c8 	li	a1,200
9d00a4b4:	0f4040e5 	jal	9d010394 <NU32DIP_ReadUART1>
9d00a4b8:	27a40018 	addiu	a0,sp,24
      sscanf(buffer, "%d", &duty_cycle);
9d00a4bc:	27a600e0 	addiu	a2,sp,224
9d00a4c0:	3c059d00 	lui	a1,0x9d00
9d00a4c4:	24a574d0 	addiu	a1,a1,29904
9d00a4c8:	0f405308 	jal	9d014c20 <_dsscanf_cdeEfFgGnopuxX>
9d00a4cc:	27a40018 	addiu	a0,sp,24
      set_duty_cycle(duty_cycle);
9d00a4d0:	0f40261c 	jal	9d009870 <set_duty_cycle>
9d00a4d4:	8fa400e0 	lw	a0,224(sp)
    NU32DIP_ReadUART1(buffer,BUF_SIZE);   // we expect the next character to be a menu command
9d00a4d8:	1000ff86 	b	9d00a2f4 <main+0xb0>
9d00a4dc:	240500c8 	li	a1,200
      float kp_temp = 0;
9d00a4e0:	00001025 	move	v0,zero
9d00a4e4:	afa200e4 	sw	v0,228(sp)
      float ki_temp = 0;
9d00a4e8:	afa200e0 	sw	v0,224(sp)
      NU32DIP_ReadUART1(buffer,BUF_SIZE);
9d00a4ec:	240500c8 	li	a1,200
9d00a4f0:	0f4040e5 	jal	9d010394 <NU32DIP_ReadUART1>
9d00a4f4:	27a40018 	addiu	a0,sp,24
      sscanf(buffer, "%f", &kp_temp);
9d00a4f8:	27a600e4 	addiu	a2,sp,228
9d00a4fc:	02002825 	move	a1,s0
9d00a500:	0f405308 	jal	9d014c20 <_dsscanf_cdeEfFgGnopuxX>
9d00a504:	27a40018 	addiu	a0,sp,24
      NU32DIP_ReadUART1(buffer,BUF_SIZE);
9d00a508:	240500c8 	li	a1,200
9d00a50c:	0f4040e5 	jal	9d010394 <NU32DIP_ReadUART1>
9d00a510:	27a40018 	addiu	a0,sp,24
      sscanf(buffer, "%f", &ki_temp);
9d00a514:	27a600e0 	addiu	a2,sp,224
9d00a518:	02002825 	move	a1,s0
9d00a51c:	0f405308 	jal	9d014c20 <_dsscanf_cdeEfFgGnopuxX>
9d00a520:	27a40018 	addiu	a0,sp,24
      set_current_gains(kp_temp,ki_temp);
9d00a524:	8fa500e0 	lw	a1,224(sp)
9d00a528:	0f402652 	jal	9d009948 <set_current_gains>
9d00a52c:	8fa400e4 	lw	a0,228(sp)
    NU32DIP_ReadUART1(buffer,BUF_SIZE);   // we expect the next character to be a menu command
9d00a530:	1000ff70 	b	9d00a2f4 <main+0xb0>
9d00a534:	240500c8 	li	a1,200
      get_current_gains(&kp_temp,&ki_temp);
9d00a538:	27a500e0 	addiu	a1,sp,224
9d00a53c:	0f402656 	jal	9d009958 <get_current_gains>
9d00a540:	27a400e4 	addiu	a0,sp,228
      sprintf(buffer,"%f\n\r", kp_temp);
9d00a544:	0f404b55 	jal	9d012d54 <__extendsfdf2>
9d00a548:	8fa400e4 	lw	a0,228(sp)
9d00a54c:	00403025 	move	a2,v0
9d00a550:	00603825 	move	a3,v1
9d00a554:	3c119d00 	lui	s1,0x9d00
9d00a558:	262574c0 	addiu	a1,s1,29888
9d00a55c:	0f4052fe 	jal	9d014bf8 <_dsprintf_cdeEfFgGnopuxX>
9d00a560:	27a40018 	addiu	a0,sp,24
      NU32DIP_WriteUART1(buffer); // send kp to client
9d00a564:	0f4040fe 	jal	9d0103f8 <NU32DIP_WriteUART1>
9d00a568:	27a40018 	addiu	a0,sp,24
      sprintf(buffer,"%f\n\r", ki_temp);
9d00a56c:	0f404b55 	jal	9d012d54 <__extendsfdf2>
9d00a570:	8fa400e0 	lw	a0,224(sp)
9d00a574:	00403025 	move	a2,v0
9d00a578:	00603825 	move	a3,v1
9d00a57c:	262574c0 	addiu	a1,s1,29888
9d00a580:	0f4052fe 	jal	9d014bf8 <_dsprintf_cdeEfFgGnopuxX>
9d00a584:	27a40018 	addiu	a0,sp,24
      NU32DIP_WriteUART1(buffer); // send ki to client
9d00a588:	0f4040fe 	jal	9d0103f8 <NU32DIP_WriteUART1>
9d00a58c:	27a40018 	addiu	a0,sp,24
    NU32DIP_ReadUART1(buffer,BUF_SIZE);   // we expect the next character to be a menu command
9d00a590:	1000ff58 	b	9d00a2f4 <main+0xb0>
9d00a594:	240500c8 	li	a1,200
      float kp_temp = 0;
9d00a598:	00001025 	move	v0,zero
9d00a59c:	afa200e8 	sw	v0,232(sp)
      float ki_temp = 0;
9d00a5a0:	afa200e4 	sw	v0,228(sp)
      float kd_temp = 0;
9d00a5a4:	afa200e0 	sw	v0,224(sp)
      NU32DIP_ReadUART1(buffer,BUF_SIZE);
9d00a5a8:	240500c8 	li	a1,200
9d00a5ac:	0f4040e5 	jal	9d010394 <NU32DIP_ReadUART1>
9d00a5b0:	27a40018 	addiu	a0,sp,24
      sscanf(buffer, "%f", &kp_temp);
9d00a5b4:	27a600e8 	addiu	a2,sp,232
9d00a5b8:	02002825 	move	a1,s0
9d00a5bc:	0f405308 	jal	9d014c20 <_dsscanf_cdeEfFgGnopuxX>
9d00a5c0:	27a40018 	addiu	a0,sp,24
      NU32DIP_ReadUART1(buffer,BUF_SIZE);
9d00a5c4:	240500c8 	li	a1,200
9d00a5c8:	0f4040e5 	jal	9d010394 <NU32DIP_ReadUART1>
9d00a5cc:	27a40018 	addiu	a0,sp,24
      sscanf(buffer, "%f", &ki_temp);
9d00a5d0:	27a600e4 	addiu	a2,sp,228
9d00a5d4:	02002825 	move	a1,s0
9d00a5d8:	0f405308 	jal	9d014c20 <_dsscanf_cdeEfFgGnopuxX>
9d00a5dc:	27a40018 	addiu	a0,sp,24
      NU32DIP_ReadUART1(buffer,BUF_SIZE);
9d00a5e0:	240500c8 	li	a1,200
9d00a5e4:	0f4040e5 	jal	9d010394 <NU32DIP_ReadUART1>
9d00a5e8:	27a40018 	addiu	a0,sp,24
      sscanf(buffer, "%f", &kd_temp);
9d00a5ec:	27a600e0 	addiu	a2,sp,224
9d00a5f0:	02002825 	move	a1,s0
9d00a5f4:	0f405308 	jal	9d014c20 <_dsscanf_cdeEfFgGnopuxX>
9d00a5f8:	27a40018 	addiu	a0,sp,24
      set_position_gains(kp_temp,ki_temp,kd_temp);
9d00a5fc:	8fa600e0 	lw	a2,224(sp)
9d00a600:	8fa500e4 	lw	a1,228(sp)
9d00a604:	0f40336f 	jal	9d00cdbc <set_position_gains>
9d00a608:	8fa400e8 	lw	a0,232(sp)
    NU32DIP_ReadUART1(buffer,BUF_SIZE);   // we expect the next character to be a menu command
9d00a60c:	1000ff39 	b	9d00a2f4 <main+0xb0>
9d00a610:	240500c8 	li	a1,200
      get_position_gains(&kp_temp,&ki_temp,&kd_temp);
9d00a614:	27a600e0 	addiu	a2,sp,224
9d00a618:	27a500e4 	addiu	a1,sp,228
9d00a61c:	0f403374 	jal	9d00cdd0 <get_position_gains>
9d00a620:	27a400e8 	addiu	a0,sp,232
      sprintf(buffer,"%f\n\r", kp_temp);
9d00a624:	0f404b55 	jal	9d012d54 <__extendsfdf2>
9d00a628:	8fa400e8 	lw	a0,232(sp)
9d00a62c:	00403025 	move	a2,v0
9d00a630:	00603825 	move	a3,v1
9d00a634:	3c119d00 	lui	s1,0x9d00
9d00a638:	262574c0 	addiu	a1,s1,29888
9d00a63c:	0f4052fe 	jal	9d014bf8 <_dsprintf_cdeEfFgGnopuxX>
9d00a640:	27a40018 	addiu	a0,sp,24
      NU32DIP_WriteUART1(buffer); // send kp to client
9d00a644:	0f4040fe 	jal	9d0103f8 <NU32DIP_WriteUART1>
9d00a648:	27a40018 	addiu	a0,sp,24
      sprintf(buffer,"%f\n\r", ki_temp);
9d00a64c:	0f404b55 	jal	9d012d54 <__extendsfdf2>
9d00a650:	8fa400e4 	lw	a0,228(sp)
9d00a654:	00403025 	move	a2,v0
9d00a658:	00603825 	move	a3,v1
9d00a65c:	262574c0 	addiu	a1,s1,29888
9d00a660:	0f4052fe 	jal	9d014bf8 <_dsprintf_cdeEfFgGnopuxX>
9d00a664:	27a40018 	addiu	a0,sp,24
      NU32DIP_WriteUART1(buffer); // send ki to client
9d00a668:	0f4040fe 	jal	9d0103f8 <NU32DIP_WriteUART1>
9d00a66c:	27a40018 	addiu	a0,sp,24
      sprintf(buffer,"%f\n\r", kd_temp);
9d00a670:	0f404b55 	jal	9d012d54 <__extendsfdf2>
9d00a674:	8fa400e0 	lw	a0,224(sp)
9d00a678:	00403025 	move	a2,v0
9d00a67c:	00603825 	move	a3,v1
9d00a680:	262574c0 	addiu	a1,s1,29888
9d00a684:	0f4052fe 	jal	9d014bf8 <_dsprintf_cdeEfFgGnopuxX>
9d00a688:	27a40018 	addiu	a0,sp,24
      NU32DIP_WriteUART1(buffer); // send kd to client
9d00a68c:	0f4040fe 	jal	9d0103f8 <NU32DIP_WriteUART1>
9d00a690:	27a40018 	addiu	a0,sp,24
    NU32DIP_ReadUART1(buffer,BUF_SIZE);   // we expect the next character to be a menu command
9d00a694:	1000ff17 	b	9d00a2f4 <main+0xb0>
9d00a698:	240500c8 	li	a1,200
      set_mode(ITEST);
9d00a69c:	0f4053f3 	jal	9d014fcc <set_mode>
9d00a6a0:	24040002 	li	a0,2
      storingdata = 1;
9d00a6a4:	24020001 	li	v0,1
9d00a6a8:	af82806c 	sw	v0,-32660(gp)
      while (storingdata){
9d00a6ac:	8f91806c 	lw	s1,-32660(gp)
9d00a6b0:	1620fffe 	bnez	s1,9d00a6ac <__jend_main_5+0x318>
9d00a6b4:	24060064 	li	a2,100
      sprintf(buffer, "%d\r\n", NUMPOINTS);
9d00a6b8:	3c059d00 	lui	a1,0x9d00
9d00a6bc:	24a574d8 	addiu	a1,a1,29912
9d00a6c0:	0f4052fe 	jal	9d014bf8 <_dsprintf_cdeEfFgGnopuxX>
9d00a6c4:	27a40018 	addiu	a0,sp,24
      NU32DIP_WriteUART1(buffer);
9d00a6c8:	0f4040fe 	jal	9d0103f8 <NU32DIP_WriteUART1>
9d00a6cc:	27a40018 	addiu	a0,sp,24
        sprintf(buffer, "%d %f\r\n", REFarray[i], current_array[i]);
9d00a6d0:	3c15a000 	lui	s5,0xa000
9d00a6d4:	26b5006c 	addiu	s5,s5,108
9d00a6d8:	3c14a000 	lui	s4,0xa000
9d00a6dc:	269401fc 	addiu	s4,s4,508
9d00a6e0:	3c029d00 	lui	v0,0x9d00
9d00a6e4:	244274e0 	addiu	v0,v0,29920
9d00a6e8:	afa200f0 	sw	v0,240(sp)
      for (i=0; i<NUMPOINTS; i++) { // send plot data to MATLAB
9d00a6ec:	24170064 	li	s7,100
        sprintf(buffer, "%d %f\r\n", REFarray[i], current_array[i]);
9d00a6f0:	00111080 	sll	v0,s1,0x2
9d00a6f4:	00551821 	addu	v1,v0,s5
9d00a6f8:	8c7e0000 	lw	s8,0(v1)
9d00a6fc:	00541021 	addu	v0,v0,s4
9d00a700:	8c440000 	lw	a0,0(v0)
9d00a704:	0f404b55 	jal	9d012d54 <__extendsfdf2>
9d00a708:	26310001 	addiu	s1,s1,1
9d00a70c:	afa20010 	sw	v0,16(sp)
9d00a710:	afa30014 	sw	v1,20(sp)
9d00a714:	03c03025 	move	a2,s8
9d00a718:	8fa500f0 	lw	a1,240(sp)
9d00a71c:	0f4052fe 	jal	9d014bf8 <_dsprintf_cdeEfFgGnopuxX>
9d00a720:	27a40018 	addiu	a0,sp,24
        NU32DIP_WriteUART1(buffer);
9d00a724:	0f4040fe 	jal	9d0103f8 <NU32DIP_WriteUART1>
9d00a728:	27a40018 	addiu	a0,sp,24
      for (i=0; i<NUMPOINTS; i++) { // send plot data to MATLAB
9d00a72c:	1637fff0 	bne	s1,s7,9d00a6f0 <__jend_main_5+0x35c>
9d00a730:	240500c8 	li	a1,200
9d00a734:	1000feef 	b	9d00a2f4 <main+0xb0>
9d00a738:	00000000 	nop
      set_eint();
9d00a73c:	0f40337b 	jal	9d00cdec <set_eint>
9d00a740:	00000000 	nop
      float angle = 0;
9d00a744:	00001025 	move	v0,zero
9d00a748:	afa200e0 	sw	v0,224(sp)
      NU32DIP_ReadUART1(buffer,BUF_SIZE);
9d00a74c:	240500c8 	li	a1,200
9d00a750:	0f4040e5 	jal	9d010394 <NU32DIP_ReadUART1>
9d00a754:	27a40018 	addiu	a0,sp,24
      sscanf(buffer, "%f", &angle);
9d00a758:	27a600e0 	addiu	a2,sp,224
9d00a75c:	02002825 	move	a1,s0
9d00a760:	0f405308 	jal	9d014c20 <_dsscanf_cdeEfFgGnopuxX>
9d00a764:	27a40018 	addiu	a0,sp,24
      set_mode(HOLD);
9d00a768:	0f4053f3 	jal	9d014fcc <set_mode>
9d00a76c:	24040003 	li	a0,3
      set_angle(angle);
9d00a770:	0f40337f 	jal	9d00cdfc <set_angle>
9d00a774:	8fa400e0 	lw	a0,224(sp)
    NU32DIP_ReadUART1(buffer,BUF_SIZE);   // we expect the next character to be a menu command
9d00a778:	1000fede 	b	9d00a2f4 <main+0xb0>
9d00a77c:	240500c8 	li	a1,200
      int N = 0;
9d00a780:	afa000e0 	sw	zero,224(sp)
      NU32DIP_ReadUART1(buffer,BUF_SIZE);
9d00a784:	240500c8 	li	a1,200
9d00a788:	0f4040e5 	jal	9d010394 <NU32DIP_ReadUART1>
9d00a78c:	27a40018 	addiu	a0,sp,24
      sscanf(buffer, "%d", &N);
9d00a790:	27a600e0 	addiu	a2,sp,224
9d00a794:	3c059d00 	lui	a1,0x9d00
9d00a798:	24a574d0 	addiu	a1,a1,29904
9d00a79c:	0f405308 	jal	9d014c20 <_dsscanf_cdeEfFgGnopuxX>
9d00a7a0:	27a40018 	addiu	a0,sp,24
      for (int i = 0; i < N; i++)
9d00a7a4:	8fa400e0 	lw	a0,224(sp)
9d00a7a8:	18800010 	blez	a0,9d00a7ec <__jend_main_5+0x458>
9d00a7ac:	00000000 	nop
9d00a7b0:	3c11a000 	lui	s1,0xa000
9d00a7b4:	2631038c 	addiu	s1,s1,908
9d00a7b8:	0000a025 	move	s4,zero
        NU32DIP_ReadUART1(buffer,BUF_SIZE);
9d00a7bc:	240500c8 	li	a1,200
9d00a7c0:	0f4040e5 	jal	9d010394 <NU32DIP_ReadUART1>
9d00a7c4:	27a40018 	addiu	a0,sp,24
        sscanf(buffer, "%f", &pos_ref_array[i]); //this might need to be int
9d00a7c8:	02203025 	move	a2,s1
9d00a7cc:	02002825 	move	a1,s0
9d00a7d0:	0f405308 	jal	9d014c20 <_dsscanf_cdeEfFgGnopuxX>
9d00a7d4:	27a40018 	addiu	a0,sp,24
      for (int i = 0; i < N; i++)
9d00a7d8:	26940001 	addiu	s4,s4,1
9d00a7dc:	8fa400e0 	lw	a0,224(sp)
9d00a7e0:	0284102a 	slt	v0,s4,a0
9d00a7e4:	1440fff5 	bnez	v0,9d00a7bc <__jend_main_5+0x428>
9d00a7e8:	26310004 	addiu	s1,s1,4
      set_N(N);
9d00a7ec:	0f403382 	jal	9d00ce08 <set_N>
9d00a7f0:	00000000 	nop
    NU32DIP_ReadUART1(buffer,BUF_SIZE);   // we expect the next character to be a menu command
9d00a7f4:	1000febf 	b	9d00a2f4 <main+0xb0>
9d00a7f8:	240500c8 	li	a1,200
      int N = 0;
9d00a7fc:	afa000e0 	sw	zero,224(sp)
      NU32DIP_ReadUART1(buffer,BUF_SIZE);
9d00a800:	240500c8 	li	a1,200
9d00a804:	0f4040e5 	jal	9d010394 <NU32DIP_ReadUART1>
9d00a808:	27a40018 	addiu	a0,sp,24
      sscanf(buffer, "%d", &N);
9d00a80c:	27a600e0 	addiu	a2,sp,224
9d00a810:	3c059d00 	lui	a1,0x9d00
9d00a814:	24a574d0 	addiu	a1,a1,29904
9d00a818:	0f405308 	jal	9d014c20 <_dsscanf_cdeEfFgGnopuxX>
9d00a81c:	27a40018 	addiu	a0,sp,24
      for (int i = 0; i < N; i++)
9d00a820:	8fa400e0 	lw	a0,224(sp)
9d00a824:	18800010 	blez	a0,9d00a868 <__jend_main_5+0x4d4>
9d00a828:	00000000 	nop
9d00a82c:	3c11a000 	lui	s1,0xa000
9d00a830:	2631038c 	addiu	s1,s1,908
9d00a834:	0000a025 	move	s4,zero
        NU32DIP_ReadUART1(buffer,BUF_SIZE);
9d00a838:	240500c8 	li	a1,200
9d00a83c:	0f4040e5 	jal	9d010394 <NU32DIP_ReadUART1>
9d00a840:	27a40018 	addiu	a0,sp,24
        sscanf(buffer, "%f", &pos_ref_array[i]); //this might need to be int
9d00a844:	02203025 	move	a2,s1
9d00a848:	02002825 	move	a1,s0
9d00a84c:	0f405308 	jal	9d014c20 <_dsscanf_cdeEfFgGnopuxX>
9d00a850:	27a40018 	addiu	a0,sp,24
      for (int i = 0; i < N; i++)
9d00a854:	26940001 	addiu	s4,s4,1
9d00a858:	8fa400e0 	lw	a0,224(sp)
9d00a85c:	0284102a 	slt	v0,s4,a0
9d00a860:	1440fff5 	bnez	v0,9d00a838 <__jend_main_5+0x4a4>
9d00a864:	26310004 	addiu	s1,s1,4
      set_N(N);
9d00a868:	0f403382 	jal	9d00ce08 <set_N>
9d00a86c:	00000000 	nop
    NU32DIP_ReadUART1(buffer,BUF_SIZE);   // we expect the next character to be a menu command
9d00a870:	1000fea0 	b	9d00a2f4 <main+0xb0>
9d00a874:	240500c8 	li	a1,200
      set_mode(TRACK); 
9d00a878:	0f4053f3 	jal	9d014fcc <set_mode>
9d00a87c:	24040004 	li	a0,4
      while(get_mode() == TRACK){
9d00a880:	24110004 	li	s1,4
9d00a884:	0f4053f0 	jal	9d014fc0 <get_mode>
9d00a888:	00000000 	nop
9d00a88c:	1051fffd 	beq	v0,s1,9d00a884 <__jend_main_5+0x4f0>
9d00a890:	00000000 	nop
      sprintf(buffer, "%d\r\n", get_N());
9d00a894:	0f403384 	jal	9d00ce10 <get_N>
9d00a898:	3c17a000 	lui	s7,0xa000
9d00a89c:	00403025 	move	a2,v0
9d00a8a0:	3c059d00 	lui	a1,0x9d00
9d00a8a4:	24a574d8 	addiu	a1,a1,29912
9d00a8a8:	0f4052fe 	jal	9d014bf8 <_dsprintf_cdeEfFgGnopuxX>
9d00a8ac:	27a40018 	addiu	a0,sp,24
      NU32DIP_WriteUART1(buffer);
9d00a8b0:	0f4040fe 	jal	9d0103f8 <NU32DIP_WriteUART1>
9d00a8b4:	27a40018 	addiu	a0,sp,24
      for (int i = 0; i < get_N(); i++) { // send plot data to client
9d00a8b8:	26f7038c 	addiu	s7,s7,908
9d00a8bc:	3c11a000 	lui	s1,0xa000
9d00a8c0:	263151ac 	addiu	s1,s1,20908
9d00a8c4:	0000f025 	move	s8,zero
9d00a8c8:	0f403384 	jal	9d00ce10 <get_N>
9d00a8cc:	00000000 	nop
9d00a8d0:	03c2102a 	slt	v0,s8,v0
9d00a8d4:	1040fe87 	beqz	v0,9d00a2f4 <main+0xb0>
9d00a8d8:	240500c8 	li	a1,200
        sprintf(buffer, "%f %f\r\n", pos_ref_array[i], angle_array[i]);
9d00a8dc:	0f404b55 	jal	9d012d54 <__extendsfdf2>
9d00a8e0:	8ee40000 	lw	a0,0(s7)
9d00a8e4:	0040a025 	move	s4,v0
9d00a8e8:	0060a825 	move	s5,v1
9d00a8ec:	0f404b55 	jal	9d012d54 <__extendsfdf2>
9d00a8f0:	8e240000 	lw	a0,0(s1)
9d00a8f4:	afa20010 	sw	v0,16(sp)
9d00a8f8:	afa30014 	sw	v1,20(sp)
9d00a8fc:	02803025 	move	a2,s4
9d00a900:	02a03825 	move	a3,s5
9d00a904:	8fa500f4 	lw	a1,244(sp)
9d00a908:	0f4052fe 	jal	9d014bf8 <_dsprintf_cdeEfFgGnopuxX>
9d00a90c:	27a40018 	addiu	a0,sp,24
        NU32DIP_WriteUART1(buffer);
9d00a910:	0f4040fe 	jal	9d0103f8 <NU32DIP_WriteUART1>
9d00a914:	27a40018 	addiu	a0,sp,24
      for (int i = 0; i < get_N(); i++) { // send plot data to client
9d00a918:	27de0001 	addiu	s8,s8,1
9d00a91c:	26f70004 	addiu	s7,s7,4
9d00a920:	1000ffe9 	b	9d00a8c8 <__jend_main_5+0x534>
9d00a924:	26310004 	addiu	s1,s1,4
      set_mode(IDLE);
9d00a928:	0f4053f3 	jal	9d014fcc <set_mode>
9d00a92c:	00002025 	move	a0,zero
      break;
9d00a930:	1000fe70 	b	9d00a2f4 <main+0xb0>
9d00a934:	240500c8 	li	a1,200
      set_mode(IDLE);
9d00a938:	0f4053f3 	jal	9d014fcc <set_mode>
9d00a93c:	00002025 	move	a0,zero
      break;
9d00a940:	1000fe6c 	b	9d00a2f4 <main+0xb0>
9d00a944:	240500c8 	li	a1,200
      sprintf(buffer, "%d\n\r", get_mode());
9d00a948:	0f4053f0 	jal	9d014fc0 <get_mode>
9d00a94c:	00000000 	nop
9d00a950:	00403025 	move	a2,v0
9d00a954:	26c574c8 	addiu	a1,s6,29896
9d00a958:	0f4052fe 	jal	9d014bf8 <_dsprintf_cdeEfFgGnopuxX>
9d00a95c:	27a40018 	addiu	a0,sp,24
      NU32DIP_WriteUART1(buffer); // send mode to client
9d00a960:	0f4040fe 	jal	9d0103f8 <NU32DIP_WriteUART1>
9d00a964:	27a40018 	addiu	a0,sp,24
      break;
9d00a968:	1000fe62 	b	9d00a2f4 <main+0xb0>
9d00a96c:	240500c8 	li	a1,200
        sprintf(buffer, "%f\r\n", pos_ref_array[i]);
9d00a970:	0f404b55 	jal	9d012d54 <__extendsfdf2>
9d00a974:	8e240000 	lw	a0,0(s1)
9d00a978:	00403025 	move	a2,v0
9d00a97c:	00603825 	move	a3,v1
9d00a980:	02802825 	move	a1,s4
9d00a984:	0f4052fe 	jal	9d014bf8 <_dsprintf_cdeEfFgGnopuxX>
9d00a988:	27a40018 	addiu	a0,sp,24
        NU32DIP_WriteUART1(buffer);
9d00a98c:	0f4040fe 	jal	9d0103f8 <NU32DIP_WriteUART1>
9d00a990:	27a40018 	addiu	a0,sp,24
      for (int i = 0; i < get_N(); i++) { // send plot data to client
9d00a994:	26b50001 	addiu	s5,s5,1
9d00a998:	1000fe83 	b	9d00a3a8 <__jend_main_5+0x14>
9d00a99c:	26310004 	addiu	s1,s1,4

Disassembly of section .text.__scanf_core:

9d00a9a0 <__scanf_core>:
9d00a9a0:	27bdfe20 	addiu	sp,sp,-480
9d00a9a4:	afb701d4 	sw	s7,468(sp)
9d00a9a8:	afb601d0 	sw	s6,464(sp)
9d00a9ac:	afb501cc 	sw	s5,460(sp)
9d00a9b0:	afb201c0 	sw	s2,448(sp)
9d00a9b4:	afb001b8 	sw	s0,440(sp)
9d00a9b8:	afbf01dc 	sw	ra,476(sp)
9d00a9bc:	afbe01d8 	sw	s8,472(sp)
9d00a9c0:	afb401c8 	sw	s4,456(sp)
9d00a9c4:	afb301c4 	sw	s3,452(sp)
9d00a9c8:	afb101bc 	sw	s1,444(sp)
9d00a9cc:	00808025 	move	s0,a0
9d00a9d0:	00c09025 	move	s2,a2
9d00a9d4:	afa501b4 	sw	a1,436(sp)
9d00a9d8:	afa001b0 	sw	zero,432(sp)
9d00a9dc:	0000a825 	move	s5,zero
9d00a9e0:	27b7011c 	addiu	s7,sp,284
9d00a9e4:	24160001 	li	s6,1
9d00a9e8:	8fa201b4 	lw	v0,436(sp)
9d00a9ec:	80420000 	lb	v0,0(v0)
9d00a9f0:	1040005c 	beqz	v0,9d00ab64 <__scanf_core+0x1c4>
9d00a9f4:	24020080 	li	v0,128
9d00a9f8:	27a501b4 	addiu	a1,sp,436
9d00a9fc:	02002025 	move	a0,s0
9d00aa00:	afa0019c 	sw	zero,412(sp)
9d00aa04:	afa001a0 	sw	zero,416(sp)
9d00aa08:	afa001a4 	sw	zero,420(sp)
9d00aa0c:	afb701a8 	sw	s7,424(sp)
9d00aa10:	0f404f52 	jal	9d013d48 <__consumews>
9d00aa14:	afa201ac 	sw	v0,428(sp)
9d00aa18:	0040f025 	move	s8,v0
9d00aa1c:	24110025 	li	s1,37
9d00aa20:	2414ffff 	li	s4,-1
9d00aa24:	8fa301b4 	lw	v1,436(sp)
9d00aa28:	80620000 	lb	v0,0(v1)
9d00aa2c:	50400003 	beqzl	v0,9d00aa3c <__scanf_core+0x9c>
9d00aa30:	8fa201b0 	lw	v0,432(sp)
9d00aa34:	1451003a 	bne	v0,s1,9d00ab20 <__scanf_core+0x180>
9d00aa38:	8fa201b0 	lw	v0,432(sp)
9d00aa3c:	005e1021 	addu	v0,v0,s8
9d00aa40:	afa201b0 	sw	v0,432(sp)
9d00aa44:	80640000 	lb	a0,0(v1)
9d00aa48:	24020025 	li	v0,37
9d00aa4c:	1482002d 	bne	a0,v0,9d00ab04 <__scanf_core+0x164>
9d00aa50:	24620001 	addiu	v0,v1,1
9d00aa54:	afa201b4 	sw	v0,436(sp)
9d00aa58:	afa001a4 	sw	zero,420(sp)
9d00aa5c:	80640001 	lb	a0,1(v1)
9d00aa60:	2402002a 	li	v0,42
9d00aa64:	14820004 	bne	a0,v0,9d00aa78 <__scanf_core+0xd8>
9d00aa68:	00008825 	move	s1,zero
9d00aa6c:	24630002 	addiu	v1,v1,2
9d00aa70:	afa301b4 	sw	v1,436(sp)
9d00aa74:	24110001 	li	s1,1
9d00aa78:	0f404e84 	jal	9d013a10 <atoi>
9d00aa7c:	8fa401b4 	lw	a0,436(sp)
9d00aa80:	00402825 	move	a1,v0
9d00aa84:	02002025 	move	a0,s0
9d00aa88:	0f4052c7 	jal	9d014b1c <__shlim>
9d00aa8c:	afa201a4 	sw	v0,420(sp)
9d00aa90:	8fa301b4 	lw	v1,436(sp)
9d00aa94:	80620000 	lb	v0,0(v1)
9d00aa98:	2442ffd0 	addiu	v0,v0,-48
9d00aa9c:	2c42000a 	sltiu	v0,v0,10
9d00aaa0:	1440004c 	bnez	v0,9d00abd4 <__scanf_core+0x234>
9d00aaa4:	24630001 	addiu	v1,v1,1
9d00aaa8:	0f405069 	jal	9d0141a4 <__fmt_state>
9d00aaac:	27a401b4 	addiu	a0,sp,436
9d00aab0:	0040a025 	move	s4,v0
9d00aab4:	8fa201b4 	lw	v0,436(sp)
9d00aab8:	0f40538f 	jal	9d014e3c <tolower>
9d00aabc:	80440000 	lb	a0,0(v0)
9d00aac0:	28430068 	slti	v1,v0,104
9d00aac4:	10600060 	beqz	v1,9d00ac48 <__scanf_core+0x2a8>
9d00aac8:	28430065 	slti	v1,v0,101
9d00aacc:	106000be 	beqz	v1,9d00adc8 <__scanf_core+0x428>
9d00aad0:	24030061 	li	v1,97
9d00aad4:	104300bc 	beq	v0,v1,9d00adc8 <__scanf_core+0x428>
9d00aad8:	28430062 	slti	v1,v0,98
9d00aadc:	1060003f 	beqz	v1,9d00abdc <__scanf_core+0x23c>
9d00aae0:	24040025 	li	a0,37
9d00aae4:	104400e1 	beq	v0,a0,9d00ae6c <__scanf_core+0x4cc>
9d00aae8:	8fa301b4 	lw	v1,436(sp)
9d00aaec:	2404005b 	li	a0,91
9d00aaf0:	104400fd 	beq	v0,a0,9d00aee8 <__scanf_core+0x548>
9d00aaf4:	24020080 	li	v0,128
9d00aaf8:	8fa201b4 	lw	v0,436(sp)
9d00aafc:	24420001 	addiu	v0,v0,1
9d00ab00:	afa201b4 	sw	v0,436(sp)
9d00ab04:	2402ffff 	li	v0,-1
9d00ab08:	166200ad 	bne	s3,v0,9d00adc0 <__scanf_core+0x420>
9d00ab0c:	00008825 	move	s1,zero
9d00ab10:	52a00014 	beqzl	s5,9d00ab64 <__scanf_core+0x1c4>
9d00ab14:	2415ffff 	li	s5,-1
9d00ab18:	10000013 	b	9d00ab68 <__scanf_core+0x1c8>
9d00ab1c:	8fbf01dc 	lw	ra,476(sp)
9d00ab20:	8e02003c 	lw	v0,60(s0)
9d00ab24:	8e03004c 	lw	v1,76(s0)
9d00ab28:	0043182b 	sltu	v1,v0,v1
9d00ab2c:	1060001a 	beqz	v1,9d00ab98 <__scanf_core+0x1f8>
9d00ab30:	24430001 	addiu	v1,v0,1
9d00ab34:	ae03003c 	sw	v1,60(s0)
9d00ab38:	90530000 	lbu	s3,0(v0)
9d00ab3c:	8fa201b4 	lw	v0,436(sp)
9d00ab40:	80420000 	lb	v0,0(v0)
9d00ab44:	10530019 	beq	v0,s3,9d00abac <__scanf_core+0x20c>
9d00ab48:	8fa201b0 	lw	v0,432(sp)
9d00ab4c:	8e02004c 	lw	v0,76(s0)
9d00ab50:	10400005 	beqz	v0,9d00ab68 <__scanf_core+0x1c8>
9d00ab54:	8fbf01dc 	lw	ra,476(sp)
9d00ab58:	8e02003c 	lw	v0,60(s0)
9d00ab5c:	2442ffff 	addiu	v0,v0,-1
9d00ab60:	ae02003c 	sw	v0,60(s0)
9d00ab64:	8fbf01dc 	lw	ra,476(sp)
9d00ab68:	02a01025 	move	v0,s5
9d00ab6c:	8fbe01d8 	lw	s8,472(sp)
9d00ab70:	8fb701d4 	lw	s7,468(sp)
9d00ab74:	8fb601d0 	lw	s6,464(sp)
9d00ab78:	8fb501cc 	lw	s5,460(sp)
9d00ab7c:	8fb401c8 	lw	s4,456(sp)
9d00ab80:	8fb301c4 	lw	s3,452(sp)
9d00ab84:	8fb201c0 	lw	s2,448(sp)
9d00ab88:	8fb101bc 	lw	s1,444(sp)
9d00ab8c:	8fb001b8 	lw	s0,440(sp)
9d00ab90:	03e00008 	jr	ra
9d00ab94:	27bd01e0 	addiu	sp,sp,480
9d00ab98:	0f404aa5 	jal	9d012a94 <__shgetc>
9d00ab9c:	02002025 	move	a0,s0
9d00aba0:	1454ffe6 	bne	v0,s4,9d00ab3c <__scanf_core+0x19c>
9d00aba4:	00409825 	move	s3,v0
9d00aba8:	8fa201b0 	lw	v0,432(sp)
9d00abac:	27a501b4 	addiu	a1,sp,436
9d00abb0:	02002025 	move	a0,s0
9d00abb4:	24420001 	addiu	v0,v0,1
9d00abb8:	afa201b0 	sw	v0,432(sp)
9d00abbc:	8fa201b4 	lw	v0,436(sp)
9d00abc0:	24420001 	addiu	v0,v0,1
9d00abc4:	0f404f52 	jal	9d013d48 <__consumews>
9d00abc8:	afa201b4 	sw	v0,436(sp)
9d00abcc:	1000ff95 	b	9d00aa24 <__scanf_core+0x84>
9d00abd0:	03c2f021 	addu	s8,s8,v0
9d00abd4:	1000ffae 	b	9d00aa90 <__scanf_core+0xf0>
9d00abd8:	afa301b4 	sw	v1,436(sp)
9d00abdc:	24030063 	li	v1,99
9d00abe0:	1043008a 	beq	v0,v1,9d00ae0c <__scanf_core+0x46c>
9d00abe4:	24030064 	li	v1,100
9d00abe8:	1443ffc3 	bne	v0,v1,9d00aaf8 <__scanf_core+0x158>
9d00abec:	27a701b0 	addiu	a3,sp,432
9d00abf0:	27a6019c 	addiu	a2,sp,412
9d00abf4:	27a50018 	addiu	a1,sp,24
9d00abf8:	0f404f1a 	jal	9d013c68 <__scan_d>
9d00abfc:	02002025 	move	a0,s0
9d00ac00:	0442000c 	bltzl	v0,9d00ac34 <__scanf_core+0x294>
9d00ac04:	00408825 	move	s1,v0
9d00ac08:	8fa201b4 	lw	v0,436(sp)
9d00ac0c:	24420001 	addiu	v0,v0,1
9d00ac10:	162000a8 	bnez	s1,9d00aeb4 <__scanf_core+0x514>
9d00ac14:	afa201b4 	sw	v0,436(sp)
9d00ac18:	02403825 	move	a3,s2
9d00ac1c:	24060001 	li	a2,1
9d00ac20:	02802825 	move	a1,s4
9d00ac24:	0f404302 	jal	9d010c08 <__push_int>
9d00ac28:	27a40018 	addiu	a0,sp,24
9d00ac2c:	04410064 	bgez	v0,9d00adc0 <__scanf_core+0x420>
9d00ac30:	00408825 	move	s1,v0
9d00ac34:	2402ffff 	li	v0,-1
9d00ac38:	1222ffb5 	beq	s1,v0,9d00ab10 <__scanf_core+0x170>
9d00ac3c:	8fbf01dc 	lw	ra,476(sp)
9d00ac40:	1000ffca 	b	9d00ab6c <__scanf_core+0x1cc>
9d00ac44:	02a01025 	move	v0,s5
9d00ac48:	24030070 	li	v1,112
9d00ac4c:	10430040 	beq	v0,v1,9d00ad50 <__scanf_core+0x3b0>
9d00ac50:	28430071 	slti	v1,v0,113
9d00ac54:	1060000d 	beqz	v1,9d00ac8c <__scanf_core+0x2ec>
9d00ac58:	2403006e 	li	v1,110
9d00ac5c:	1043004b 	beq	v0,v1,9d00ad8c <__scanf_core+0x3ec>
9d00ac60:	2843006f 	slti	v1,v0,111
9d00ac64:	1060002c 	beqz	v1,9d00ad18 <__scanf_core+0x378>
9d00ac68:	24030069 	li	v1,105
9d00ac6c:	1443ffa2 	bne	v0,v1,9d00aaf8 <__scanf_core+0x158>
9d00ac70:	27a701b0 	addiu	a3,sp,432
9d00ac74:	27a6019c 	addiu	a2,sp,412
9d00ac78:	27a50018 	addiu	a1,sp,24
9d00ac7c:	0f403c5a 	jal	9d00f168 <__scan_i>
9d00ac80:	02002025 	move	a0,s0
9d00ac84:	1000ffde 	b	9d00ac00 <__scanf_core+0x260>
9d00ac88:	00000000 	nop
9d00ac8c:	24030075 	li	v1,117
9d00ac90:	10430013 	beq	v0,v1,9d00ace0 <__scanf_core+0x340>
9d00ac94:	24030078 	li	v1,120
9d00ac98:	10430026 	beq	v0,v1,9d00ad34 <__scanf_core+0x394>
9d00ac9c:	24030073 	li	v1,115
9d00aca0:	1443ff95 	bne	v0,v1,9d00aaf8 <__scanf_core+0x158>
9d00aca4:	24020080 	li	v0,128
9d00aca8:	1682ff93 	bne	s4,v0,9d00aaf8 <__scanf_core+0x158>
9d00acac:	8fa201b4 	lw	v0,436(sp)
9d00acb0:	24420001 	addiu	v0,v0,1
9d00acb4:	afa201b4 	sw	v0,436(sp)
9d00acb8:	16200005 	bnez	s1,9d00acd0 <__scanf_core+0x330>
9d00acbc:	00001025 	move	v0,zero
9d00acc0:	8e420000 	lw	v0,0(s2)
9d00acc4:	24430004 	addiu	v1,v0,4
9d00acc8:	ae430000 	sw	v1,0(s2)
9d00accc:	8c420000 	lw	v0,0(v0)
9d00acd0:	afa20010 	sw	v0,16(sp)
9d00acd4:	27a701b0 	addiu	a3,sp,432
9d00acd8:	1000005f 	b	9d00ae58 <__scanf_core+0x4b8>
9d00acdc:	24060001 	li	a2,1
9d00ace0:	27a701b0 	addiu	a3,sp,432
9d00ace4:	27a6019c 	addiu	a2,sp,412
9d00ace8:	27a50018 	addiu	a1,sp,24
9d00acec:	0f404f36 	jal	9d013cd8 <__scan_u>
9d00acf0:	02002025 	move	a0,s0
9d00acf4:	0442ffcf 	bltzl	v0,9d00ac34 <__scanf_core+0x294>
9d00acf8:	00408825 	move	s1,v0
9d00acfc:	8fa201b4 	lw	v0,436(sp)
9d00ad00:	24420001 	addiu	v0,v0,1
9d00ad04:	1620006b 	bnez	s1,9d00aeb4 <__scanf_core+0x514>
9d00ad08:	afa201b4 	sw	v0,436(sp)
9d00ad0c:	02403825 	move	a3,s2
9d00ad10:	1000ffc3 	b	9d00ac20 <__scanf_core+0x280>
9d00ad14:	00003025 	move	a2,zero
9d00ad18:	27a701b0 	addiu	a3,sp,432
9d00ad1c:	27a6019c 	addiu	a2,sp,412
9d00ad20:	27a50018 	addiu	a1,sp,24
9d00ad24:	0f404469 	jal	9d0111a4 <__scan_o>
9d00ad28:	02002025 	move	a0,s0
9d00ad2c:	1000fff1 	b	9d00acf4 <__scanf_core+0x354>
9d00ad30:	00000000 	nop
9d00ad34:	27a701b0 	addiu	a3,sp,432
9d00ad38:	27a6019c 	addiu	a2,sp,412
9d00ad3c:	27a50018 	addiu	a1,sp,24
9d00ad40:	0f404021 	jal	9d010084 <__scan_x>
9d00ad44:	02002025 	move	a0,s0
9d00ad48:	1000ffea 	b	9d00acf4 <__scanf_core+0x354>
9d00ad4c:	00000000 	nop
9d00ad50:	27a701b0 	addiu	a3,sp,432
9d00ad54:	27a6019c 	addiu	a2,sp,412
9d00ad58:	27a50018 	addiu	a1,sp,24
9d00ad5c:	0f404021 	jal	9d010084 <__scan_x>
9d00ad60:	02002025 	move	a0,s0
9d00ad64:	0442ffb3 	bltzl	v0,9d00ac34 <__scanf_core+0x294>
9d00ad68:	00408825 	move	s1,v0
9d00ad6c:	8fa201b4 	lw	v0,436(sp)
9d00ad70:	24420001 	addiu	v0,v0,1
9d00ad74:	1620004f 	bnez	s1,9d00aeb4 <__scanf_core+0x514>
9d00ad78:	afa201b4 	sw	v0,436(sp)
9d00ad7c:	02403825 	move	a3,s2
9d00ad80:	00003025 	move	a2,zero
9d00ad84:	1000ffa7 	b	9d00ac24 <__scanf_core+0x284>
9d00ad88:	240500f0 	li	a1,240
9d00ad8c:	8fa201b4 	lw	v0,436(sp)
9d00ad90:	24420001 	addiu	v0,v0,1
9d00ad94:	afa201b4 	sw	v0,436(sp)
9d00ad98:	8fa201b0 	lw	v0,432(sp)
9d00ad9c:	afa20018 	sw	v0,24(sp)
9d00ada0:	000217c3 	sra	v0,v0,0x1f
9d00ada4:	16200043 	bnez	s1,9d00aeb4 <__scanf_core+0x514>
9d00ada8:	afa2001c 	sw	v0,28(sp)
9d00adac:	02403825 	move	a3,s2
9d00adb0:	00003025 	move	a2,zero
9d00adb4:	02802825 	move	a1,s4
9d00adb8:	0f404302 	jal	9d010c08 <__push_int>
9d00adbc:	27a40018 	addiu	a0,sp,24
9d00adc0:	1000ff09 	b	9d00a9e8 <__scanf_core+0x48>
9d00adc4:	02b1a821 	addu	s5,s5,s1
9d00adc8:	27a701b0 	addiu	a3,sp,432
9d00adcc:	27a6019c 	addiu	a2,sp,412
9d00add0:	27a50018 	addiu	a1,sp,24
9d00add4:	0f4037c5 	jal	9d00df14 <__scan_fp>
9d00add8:	02002025 	move	a0,s0
9d00addc:	0442ff95 	bltzl	v0,9d00ac34 <__scanf_core+0x294>
9d00ade0:	00408825 	move	s1,v0
9d00ade4:	8fa201b4 	lw	v0,436(sp)
9d00ade8:	24420001 	addiu	v0,v0,1
9d00adec:	16200031 	bnez	s1,9d00aeb4 <__scanf_core+0x514>
9d00adf0:	afa201b4 	sw	v0,436(sp)
9d00adf4:	02403025 	move	a2,s2
9d00adf8:	02802825 	move	a1,s4
9d00adfc:	0f404b80 	jal	9d012e00 <__push_float>
9d00ae00:	27a40018 	addiu	a0,sp,24
9d00ae04:	1000ff89 	b	9d00ac2c <__scanf_core+0x28c>
9d00ae08:	00000000 	nop
9d00ae0c:	24020080 	li	v0,128
9d00ae10:	1682ff39 	bne	s4,v0,9d00aaf8 <__scanf_core+0x158>
9d00ae14:	8fa201a4 	lw	v0,420(sp)
9d00ae18:	54400004 	bnezl	v0,9d00ae2c <__scanf_core+0x48c>
9d00ae1c:	8fa201b4 	lw	v0,436(sp)
9d00ae20:	24020001 	li	v0,1
9d00ae24:	afa201a4 	sw	v0,420(sp)
9d00ae28:	8fa201b4 	lw	v0,436(sp)
9d00ae2c:	24420001 	addiu	v0,v0,1
9d00ae30:	afa201b4 	sw	v0,436(sp)
9d00ae34:	16200005 	bnez	s1,9d00ae4c <__scanf_core+0x4ac>
9d00ae38:	00001025 	move	v0,zero
9d00ae3c:	8e420000 	lw	v0,0(s2)
9d00ae40:	24430004 	addiu	v1,v0,4
9d00ae44:	ae430000 	sw	v1,0(s2)
9d00ae48:	8c420000 	lw	v0,0(v0)
9d00ae4c:	afa20010 	sw	v0,16(sp)
9d00ae50:	27a701b0 	addiu	a3,sp,432
9d00ae54:	00003025 	move	a2,zero
9d00ae58:	27a5019c 	addiu	a1,sp,412
9d00ae5c:	0f404413 	jal	9d01104c <__scan_s>
9d00ae60:	02002025 	move	a0,s0
9d00ae64:	1000ff71 	b	9d00ac2c <__scanf_core+0x28c>
9d00ae68:	00000000 	nop
9d00ae6c:	24020080 	li	v0,128
9d00ae70:	1682ff22 	bne	s4,v0,9d00aafc <__scanf_core+0x15c>
9d00ae74:	8fa201b4 	lw	v0,436(sp)
9d00ae78:	24630001 	addiu	v1,v1,1
9d00ae7c:	afa301b4 	sw	v1,436(sp)
9d00ae80:	8e02003c 	lw	v0,60(s0)
9d00ae84:	8e03004c 	lw	v1,76(s0)
9d00ae88:	0043182b 	sltu	v1,v0,v1
9d00ae8c:	1060000b 	beqz	v1,9d00aebc <__scanf_core+0x51c>
9d00ae90:	00000000 	nop
9d00ae94:	24430001 	addiu	v1,v0,1
9d00ae98:	ae03003c 	sw	v1,60(s0)
9d00ae9c:	90420000 	lbu	v0,0(v0)
9d00aea0:	24030025 	li	v1,37
9d00aea4:	14430009 	bne	v0,v1,9d00aecc <__scanf_core+0x52c>
9d00aea8:	8fa201b0 	lw	v0,432(sp)
9d00aeac:	24420001 	addiu	v0,v0,1
9d00aeb0:	afa201b0 	sw	v0,432(sp)
9d00aeb4:	1000ffc2 	b	9d00adc0 <__scanf_core+0x420>
9d00aeb8:	00008825 	move	s1,zero
9d00aebc:	0f404aa5 	jal	9d012a94 <__shgetc>
9d00aec0:	02002025 	move	a0,s0
9d00aec4:	1000fff7 	b	9d00aea4 <__scanf_core+0x504>
9d00aec8:	24030025 	li	v1,37
9d00aecc:	8e02004c 	lw	v0,76(s0)
9d00aed0:	5040ffbb 	beqzl	v0,9d00adc0 <__scanf_core+0x420>
9d00aed4:	00008825 	move	s1,zero
9d00aed8:	8e02003c 	lw	v0,60(s0)
9d00aedc:	2442ffff 	addiu	v0,v0,-1
9d00aee0:	1000fff4 	b	9d00aeb4 <__scanf_core+0x514>
9d00aee4:	ae02003c 	sw	v0,60(s0)
9d00aee8:	1682ff04 	bne	s4,v0,9d00aafc <__scanf_core+0x15c>
9d00aeec:	8fa201b4 	lw	v0,436(sp)
9d00aef0:	16200005 	bnez	s1,9d00af08 <__scanf_core+0x568>
9d00aef4:	0000a025 	move	s4,zero
9d00aef8:	8e420000 	lw	v0,0(s2)
9d00aefc:	24440004 	addiu	a0,v0,4
9d00af00:	ae440000 	sw	a0,0(s2)
9d00af04:	8c540000 	lw	s4,0(v0)
9d00af08:	24620001 	addiu	v0,v1,1
9d00af0c:	afa201b4 	sw	v0,436(sp)
9d00af10:	80640001 	lb	a0,1(v1)
9d00af14:	2402005e 	li	v0,94
9d00af18:	14820004 	bne	a0,v0,9d00af2c <__scanf_core+0x58c>
9d00af1c:	00008825 	move	s1,zero
9d00af20:	24630002 	addiu	v1,v1,2
9d00af24:	afa301b4 	sw	v1,436(sp)
9d00af28:	24110001 	li	s1,1
9d00af2c:	27a40018 	addiu	a0,sp,24
9d00af30:	24060101 	li	a2,257
9d00af34:	0f40533a 	jal	9d014ce8 <memset>
9d00af38:	02202825 	move	a1,s1
9d00af3c:	8fa201b4 	lw	v0,436(sp)
9d00af40:	a3a00018 	sb	zero,24(sp)
9d00af44:	2404002d 	li	a0,45
9d00af48:	80430000 	lb	v1,0(v0)
9d00af4c:	1464001c 	bne	v1,a0,9d00afc0 <__scanf_core+0x620>
9d00af50:	2404005d 	li	a0,93
9d00af54:	24420001 	addiu	v0,v0,1
9d00af58:	afa201b4 	sw	v0,436(sp)
9d00af5c:	02d11023 	subu	v0,s6,s1
9d00af60:	a3a20046 	sb	v0,70(sp)
9d00af64:	2405005d 	li	a1,93
9d00af68:	2406002d 	li	a2,45
9d00af6c:	02d18823 	subu	s1,s6,s1
9d00af70:	8fa301b4 	lw	v1,436(sp)
9d00af74:	80620000 	lb	v0,0(v1)
9d00af78:	14450017 	bne	v0,a1,9d00afd8 <__scanf_core+0x638>
9d00af7c:	00000000 	nop
9d00af80:	56800036 	bnezl	s4,9d00b05c <__scanf_core+0x6bc>
9d00af84:	00008825 	move	s1,zero
9d00af88:	8e02003c 	lw	v0,60(s0)
9d00af8c:	8e03004c 	lw	v1,76(s0)
9d00af90:	0043182b 	sltu	v1,v0,v1
9d00af94:	10600053 	beqz	v1,9d00b0e4 <__scanf_core+0x744>
9d00af98:	24430001 	addiu	v1,v0,1
9d00af9c:	ae03003c 	sw	v1,60(s0)
9d00afa0:	90530000 	lbu	s3,0(v0)
9d00afa4:	27a20018 	addiu	v0,sp,24
9d00afa8:	00531021 	addu	v0,v0,s3
9d00afac:	90420001 	lbu	v0,1(v0)
9d00afb0:	14400048 	bnez	v0,9d00b0d4 <__scanf_core+0x734>
9d00afb4:	0000f025 	move	s8,zero
9d00afb8:	10000036 	b	9d00b094 <__scanf_core+0x6f4>
9d00afbc:	8e02004c 	lw	v0,76(s0)
9d00afc0:	1464ffe8 	bne	v1,a0,9d00af64 <__scanf_core+0x5c4>
9d00afc4:	24420001 	addiu	v0,v0,1
9d00afc8:	afa201b4 	sw	v0,436(sp)
9d00afcc:	02d11023 	subu	v0,s6,s1
9d00afd0:	1000ffe4 	b	9d00af64 <__scanf_core+0x5c4>
9d00afd4:	a3a20076 	sb	v0,118(sp)
9d00afd8:	1040ffe9 	beqz	v0,9d00af80 <__scanf_core+0x5e0>
9d00afdc:	00000000 	nop
9d00afe0:	10460009 	beq	v0,a2,9d00b008 <__scanf_core+0x668>
9d00afe4:	8fa201b8 	lw	v0,440(sp)
9d00afe8:	8fa201b4 	lw	v0,436(sp)
9d00afec:	27a40018 	addiu	a0,sp,24
9d00aff0:	80430000 	lb	v1,0(v0)
9d00aff4:	24420001 	addiu	v0,v0,1
9d00aff8:	afa201b4 	sw	v0,436(sp)
9d00affc:	00831821 	addu	v1,a0,v1
9d00b000:	1000ffdb 	b	9d00af70 <__scanf_core+0x5d0>
9d00b004:	a0710001 	sb	s1,1(v1)
9d00b008:	80420000 	lb	v0,0(v0)
9d00b00c:	5040fff7 	beqzl	v0,9d00afec <__scanf_core+0x64c>
9d00b010:	8fa201b4 	lw	v0,436(sp)
9d00b014:	1045fff4 	beq	v0,a1,9d00afe8 <__scanf_core+0x648>
9d00b018:	24620001 	addiu	v0,v1,1
9d00b01c:	afa201b4 	sw	v0,436(sp)
9d00b020:	8fa201b0 	lw	v0,432(sp)
9d00b024:	80420000 	lb	v0,0(v0)
9d00b028:	80640001 	lb	a0,1(v1)
9d00b02c:	0044202a 	slt	a0,v0,a0
9d00b030:	1080ffed 	beqz	a0,9d00afe8 <__scanf_core+0x648>
9d00b034:	24420001 	addiu	v0,v0,1
9d00b038:	27a40018 	addiu	a0,sp,24
9d00b03c:	00822021 	addu	a0,a0,v0
9d00b040:	1000fff9 	b	9d00b028 <__scanf_core+0x688>
9d00b044:	a0910000 	sb	s1,0(a0)
9d00b048:	a0530000 	sb	s3,0(v0)
9d00b04c:	8fa201b0 	lw	v0,432(sp)
9d00b050:	26310001 	addiu	s1,s1,1
9d00b054:	24420001 	addiu	v0,v0,1
9d00b058:	afa201b0 	sw	v0,432(sp)
9d00b05c:	8e02003c 	lw	v0,60(s0)
9d00b060:	8e03004c 	lw	v1,76(s0)
9d00b064:	0043182b 	sltu	v1,v0,v1
9d00b068:	10600016 	beqz	v1,9d00b0c4 <__scanf_core+0x724>
9d00b06c:	0220f025 	move	s8,s1
9d00b070:	24430001 	addiu	v1,v0,1
9d00b074:	ae03003c 	sw	v1,60(s0)
9d00b078:	90530000 	lbu	s3,0(v0)
9d00b07c:	27a20018 	addiu	v0,sp,24
9d00b080:	00531021 	addu	v0,v0,s3
9d00b084:	90420001 	lbu	v0,1(v0)
9d00b088:	1440ffef 	bnez	v0,9d00b048 <__scanf_core+0x6a8>
9d00b08c:	02911021 	addu	v0,s4,s1
9d00b090:	8e02004c 	lw	v0,76(s0)
9d00b094:	10400004 	beqz	v0,9d00b0a8 <__scanf_core+0x708>
9d00b098:	00000000 	nop
9d00b09c:	8e02003c 	lw	v0,60(s0)
9d00b0a0:	2442ffff 	addiu	v0,v0,-1
9d00b0a4:	ae02003c 	sw	v0,60(s0)
9d00b0a8:	13c0fe94 	beqz	s8,9d00aafc <__scanf_core+0x15c>
9d00b0ac:	8fa201b4 	lw	v0,436(sp)
9d00b0b0:	1280fe93 	beqz	s4,9d00ab00 <__scanf_core+0x160>
9d00b0b4:	24420001 	addiu	v0,v0,1
9d00b0b8:	029ea021 	addu	s4,s4,s8
9d00b0bc:	1000fe8e 	b	9d00aaf8 <__scanf_core+0x158>
9d00b0c0:	a2800000 	sb	zero,0(s4)
9d00b0c4:	0f404aa5 	jal	9d012a94 <__shgetc>
9d00b0c8:	02002025 	move	a0,s0
9d00b0cc:	1000ffeb 	b	9d00b07c <__scanf_core+0x6dc>
9d00b0d0:	00409825 	move	s3,v0
9d00b0d4:	8fa201b0 	lw	v0,432(sp)
9d00b0d8:	24420001 	addiu	v0,v0,1
9d00b0dc:	1000ffaa 	b	9d00af88 <__scanf_core+0x5e8>
9d00b0e0:	afa201b0 	sw	v0,432(sp)
9d00b0e4:	0f404aa5 	jal	9d012a94 <__shgetc>
9d00b0e8:	02002025 	move	a0,s0
9d00b0ec:	1000ffad 	b	9d00afa4 <__scanf_core+0x604>
9d00b0f0:	00409825 	move	s3,v0

Disassembly of section .text.fma:

9d00b0f4 <fma>:
9d00b0f4:	27bdff78 	addiu	sp,sp,-136
9d00b0f8:	afa40088 	sw	a0,136(sp)
9d00b0fc:	afa60090 	sw	a2,144(sp)
9d00b100:	afa70094 	sw	a3,148(sp)
9d00b104:	00803025 	move	a2,a0
9d00b108:	00a03825 	move	a3,a1
9d00b10c:	27a40030 	addiu	a0,sp,48
9d00b110:	afbf0084 	sw	ra,132(sp)
9d00b114:	afa5008c 	sw	a1,140(sp)
9d00b118:	afbe0080 	sw	s8,128(sp)
9d00b11c:	afb3006c 	sw	s3,108(sp)
9d00b120:	afb20068 	sw	s2,104(sp)
9d00b124:	afb10064 	sw	s1,100(sp)
9d00b128:	8fb20098 	lw	s2,152(sp)
9d00b12c:	8fb3009c 	lw	s3,156(sp)
9d00b130:	afb7007c 	sw	s7,124(sp)
9d00b134:	afb60078 	sw	s6,120(sp)
9d00b138:	afb50074 	sw	s5,116(sp)
9d00b13c:	afb40070 	sw	s4,112(sp)
9d00b140:	0f404baa 	jal	9d012ea8 <normalize>
9d00b144:	afb00060 	sw	s0,96(sp)
9d00b148:	8fa60090 	lw	a2,144(sp)
9d00b14c:	8fa70094 	lw	a3,148(sp)
9d00b150:	8fb10038 	lw	s1,56(sp)
9d00b154:	0f404baa 	jal	9d012ea8 <normalize>
9d00b158:	27a40020 	addiu	a0,sp,32
9d00b15c:	02403025 	move	a2,s2
9d00b160:	02603825 	move	a3,s3
9d00b164:	27a40010 	addiu	a0,sp,16
9d00b168:	0f404baa 	jal	9d012ea8 <normalize>
9d00b16c:	8fbe0028 	lw	s8,40(sp)
9d00b170:	2a2203cb 	slti	v0,s1,971
9d00b174:	10400003 	beqz	v0,9d00b184 <fma+0x90>
9d00b178:	2bc203cb 	slti	v0,s8,971
9d00b17c:	1440000e 	bnez	v0,9d00b1b8 <fma+0xc4>
9d00b180:	8fb90018 	lw	t9,24(sp)
9d00b184:	8fa60090 	lw	a2,144(sp)
9d00b188:	8fa70094 	lw	a3,148(sp)
9d00b18c:	8fa40088 	lw	a0,136(sp)
9d00b190:	0f403b8f 	jal	9d00ee3c <__muldf3>
9d00b194:	8fa5008c 	lw	a1,140(sp)
9d00b198:	00403025 	move	a2,v0
9d00b19c:	00603825 	move	a3,v1
9d00b1a0:	02402025 	move	a0,s2
9d00b1a4:	0f4036bb 	jal	9d00daec <__adddf3>
9d00b1a8:	02602825 	move	a1,s3
9d00b1ac:	00409025 	move	s2,v0
9d00b1b0:	10000006 	b	9d00b1cc <fma+0xd8>
9d00b1b4:	00609825 	move	s3,v1
9d00b1b8:	2b2203cb 	slti	v0,t9,971
9d00b1bc:	14400011 	bnez	v0,9d00b204 <fma+0x110>
9d00b1c0:	240203cb 	li	v0,971
9d00b1c4:	1722fff0 	bne	t9,v0,9d00b188 <fma+0x94>
9d00b1c8:	8fa60090 	lw	a2,144(sp)
9d00b1cc:	8fbf0084 	lw	ra,132(sp)
9d00b1d0:	02401025 	move	v0,s2
9d00b1d4:	02601825 	move	v1,s3
9d00b1d8:	8fbe0080 	lw	s8,128(sp)
9d00b1dc:	8fb7007c 	lw	s7,124(sp)
9d00b1e0:	8fb60078 	lw	s6,120(sp)
9d00b1e4:	8fb50074 	lw	s5,116(sp)
9d00b1e8:	8fb40070 	lw	s4,112(sp)
9d00b1ec:	8fb3006c 	lw	s3,108(sp)
9d00b1f0:	8fb20068 	lw	s2,104(sp)
9d00b1f4:	8fb10064 	lw	s1,100(sp)
9d00b1f8:	8fb00060 	lw	s0,96(sp)
9d00b1fc:	03e00008 	jr	ra
9d00b200:	27bd0088 	addiu	sp,sp,136
9d00b204:	8fa20030 	lw	v0,48(sp)
9d00b208:	8faa0020 	lw	t2,32(sp)
9d00b20c:	8fa40024 	lw	a0,36(sp)
9d00b210:	8fa60034 	lw	a2,52(sp)
9d00b214:	004a0019 	multu	v0,t2
9d00b218:	03d1f021 	addu	s8,s8,s1
9d00b21c:	033e8823 	subu	s1,t9,s8
9d00b220:	8fa70010 	lw	a3,16(sp)
9d00b224:	8fb70014 	lw	s7,20(sp)
9d00b228:	00004012 	mflo	t0
9d00b22c:	afa80040 	sw	t0,64(sp)
9d00b230:	8faf0040 	lw	t7,64(sp)
9d00b234:	00004810 	mfhi	t1
9d00b238:	afa90044 	sw	t1,68(sp)
9d00b23c:	00440019 	multu	v0,a0
9d00b240:	00001012 	mflo	v0
9d00b244:	00001810 	mfhi	v1
9d00b248:	00ca0019 	multu	a2,t2
9d00b24c:	00005012 	mflo	t2
9d00b250:	004ac021 	addu	t8,v0,t2
9d00b254:	0302402b 	sltu	t0,t8,v0
9d00b258:	00005810 	mfhi	t3
9d00b25c:	8fa20044 	lw	v0,68(sp)
9d00b260:	006b5821 	addu	t3,v1,t3
9d00b264:	00c40019 	multu	a2,a0
9d00b268:	010b4021 	addu	t0,t0,t3
9d00b26c:	0302c021 	addu	t8,t8,v0
9d00b270:	0302302b 	sltu	a2,t8,v0
9d00b274:	00002012 	mflo	a0
9d00b278:	00884021 	addu	t0,a0,t0
9d00b27c:	01063021 	addu	a2,t0,a2
9d00b280:	00002810 	mfhi	a1
9d00b284:	0104582b 	sltu	t3,t0,a0
9d00b288:	01655821 	addu	t3,t3,a1
9d00b28c:	00c8182b 	sltu	v1,a2,t0
9d00b290:	00c08025 	move	s0,a2
9d00b294:	1a2000ab 	blez	s1,9d00b544 <fma+0x450>
9d00b298:	006bb021 	addu	s6,v1,t3
9d00b29c:	2a220040 	slti	v0,s1,64
9d00b2a0:	10400078 	beqz	v0,9d00b484 <fma+0x390>
9d00b2a4:	00e02025 	move	a0,a3
9d00b2a8:	02e02825 	move	a1,s7
9d00b2ac:	02203025 	move	a2,s1
9d00b2b0:	afb80054 	sw	t8,84(sp)
9d00b2b4:	afaf0050 	sw	t7,80(sp)
9d00b2b8:	0f405229 	jal	9d0148a4 <__ashldi3>
9d00b2bc:	afa7004c 	sw	a3,76(sp)
9d00b2c0:	8fa7004c 	lw	a3,76(sp)
9d00b2c4:	24060040 	li	a2,64
9d00b2c8:	02e02825 	move	a1,s7
9d00b2cc:	00e02025 	move	a0,a3
9d00b2d0:	00d13023 	subu	a2,a2,s1
9d00b2d4:	afa20048 	sw	v0,72(sp)
9d00b2d8:	0f40521a 	jal	9d014868 <__lshrdi3>
9d00b2dc:	afa30040 	sw	v1,64(sp)
9d00b2e0:	8fb90040 	lw	t9,64(sp)
9d00b2e4:	8fa80048 	lw	t0,72(sp)
9d00b2e8:	8faf0050 	lw	t7,80(sp)
9d00b2ec:	8fb80054 	lw	t8,84(sp)
9d00b2f0:	00403825 	move	a3,v0
9d00b2f4:	0060b825 	move	s7,v1
9d00b2f8:	8fa2002c 	lw	v0,44(sp)
9d00b2fc:	8fb1003c 	lw	s1,60(sp)
9d00b300:	02228826 	xor	s1,s1,v0
9d00b304:	8fa2001c 	lw	v0,28(sp)
9d00b308:	145100b5 	bne	v0,s1,9d00b5e0 <fma+0x4ec>
9d00b30c:	010f5021 	addu	t2,t0,t7
9d00b310:	0148902b 	sltu	s2,t2,t0
9d00b314:	0338c021 	addu	t8,t9,t8
9d00b318:	0258a021 	addu	s4,s2,t8
9d00b31c:	0299102b 	sltu	v0,s4,t9
9d00b320:	0140a825 	move	s5,t2
9d00b324:	14400006 	bnez	v0,9d00b340 <fma+0x24c>
9d00b328:	24040001 	li	a0,1
9d00b32c:	17340003 	bne	t9,s4,9d00b33c <fma+0x248>
9d00b330:	0148402b 	sltu	t0,t2,t0
9d00b334:	15000003 	bnez	t0,9d00b344 <fma+0x250>
9d00b338:	00f06021 	addu	t4,a3,s0
9d00b33c:	00002025 	move	a0,zero
9d00b340:	00f06021 	addu	t4,a3,s0
9d00b344:	0187102b 	sltu	v0,t4,a3
9d00b348:	02f61821 	addu	v1,s7,s6
9d00b34c:	008c6021 	addu	t4,a0,t4
9d00b350:	00431021 	addu	v0,v0,v1
9d00b354:	0184202b 	sltu	a0,t4,a0
9d00b358:	00826821 	addu	t5,a0,v0
9d00b35c:	01802025 	move	a0,t4
9d00b360:	01a02825 	move	a1,t5
9d00b364:	afac0048 	sw	t4,72(sp)
9d00b368:	0f404fc1 	jal	9d013f04 <a_clz_64>
9d00b36c:	afad0040 	sw	t5,64(sp)
9d00b370:	2453ffff 	addiu	s3,v0,-1
9d00b374:	24060040 	li	a2,64
9d00b378:	00d33023 	subu	a2,a2,s3
9d00b37c:	02a02025 	move	a0,s5
9d00b380:	0f40521a 	jal	9d014868 <__lshrdi3>
9d00b384:	02802825 	move	a1,s4
9d00b388:	8fac0048 	lw	t4,72(sp)
9d00b38c:	8fad0040 	lw	t5,64(sp)
9d00b390:	02603025 	move	a2,s3
9d00b394:	01802025 	move	a0,t4
9d00b398:	01a02825 	move	a1,t5
9d00b39c:	00408025 	move	s0,v0
9d00b3a0:	0f405229 	jal	9d0148a4 <__ashldi3>
9d00b3a4:	00609025 	move	s2,v1
9d00b3a8:	02603025 	move	a2,s3
9d00b3ac:	02a02025 	move	a0,s5
9d00b3b0:	02802825 	move	a1,s4
9d00b3b4:	02028025 	or	s0,s0,v0
9d00b3b8:	0f405229 	jal	9d0148a4 <__ashldi3>
9d00b3bc:	02439025 	or	s2,s2,v1
9d00b3c0:	00431025 	or	v0,v0,v1
9d00b3c4:	0002102b 	sltu	v0,zero,v0
9d00b3c8:	27de0040 	addiu	s8,s8,64
9d00b3cc:	02028025 	or	s0,s0,v0
9d00b3d0:	02002025 	move	a0,s0
9d00b3d4:	12200005 	beqz	s1,9d00b3ec <fma+0x2f8>
9d00b3d8:	02402825 	move	a1,s2
9d00b3dc:	00102023 	negu	a0,s0
9d00b3e0:	0004102b 	sltu	v0,zero,a0
9d00b3e4:	00122823 	negu	a1,s2
9d00b3e8:	00a22823 	subu	a1,a1,v0
9d00b3ec:	0f404efd 	jal	9d013bf4 <__floatdidf>
9d00b3f0:	03d3f023 	subu	s8,s8,s3
9d00b3f4:	0040b025 	move	s6,v0
9d00b3f8:	2bc2fbc4 	slti	v0,s8,-1084
9d00b3fc:	104000f8 	beqz	v0,9d00b7e0 <fma+0x6ec>
9d00b400:	0060b825 	move	s7,v1
9d00b404:	2402fbc3 	li	v0,-1085
9d00b408:	17c200fb 	bne	s8,v0,9d00b7f8 <fma+0x704>
9d00b40c:	00102580 	sll	a0,s0,0x16
9d00b410:	122000b4 	beqz	s1,9d00b6e4 <fma+0x5f0>
9d00b414:	3c029d00 	lui	v0,0x9d00
9d00b418:	8c547620 	lw	s4,30240(v0)
9d00b41c:	8c557624 	lw	s5,30244(v0)
9d00b420:	02c03025 	move	a2,s6
9d00b424:	02e03825 	move	a3,s7
9d00b428:	02802025 	move	a0,s4
9d00b42c:	0f404657 	jal	9d01195c <__eqdf2>
9d00b430:	02a02825 	move	a1,s5
9d00b434:	144000af 	bnez	v0,9d00b6f4 <fma+0x600>
9d00b438:	3c029d00 	lui	v0,0x9d00
9d00b43c:	8c467628 	lw	a2,30248(v0)
9d00b440:	8c47762c 	lw	a3,30252(v0)
9d00b444:	02c02025 	move	a0,s6
9d00b448:	0f403b8f 	jal	9d00ee3c <__muldf3>
9d00b44c:	02e02825 	move	a1,s7
9d00b450:	00602825 	move	a1,v1
9d00b454:	0f40488b 	jal	9d01222c <__truncdfsf2>
9d00b458:	00402025 	move	a0,v0
9d00b45c:	0f404b55 	jal	9d012d54 <__extendsfdf2>
9d00b460:	00402025 	move	a0,v0
9d00b464:	3c049d00 	lui	a0,0x9d00
9d00b468:	8c867630 	lw	a2,30256(a0)
9d00b46c:	8c877634 	lw	a3,30260(a0)
9d00b470:	00602825 	move	a1,v1
9d00b474:	0f403b8f 	jal	9d00ee3c <__muldf3>
9d00b478:	00402025 	move	a0,v0
9d00b47c:	1000ff4c 	b	9d00b1b0 <fma+0xbc>
9d00b480:	00409025 	move	s2,v0
9d00b484:	2631ffc0 	addiu	s1,s1,-64
9d00b488:	273effc0 	addiu	s8,t9,-64
9d00b48c:	00004025 	move	t0,zero
9d00b490:	1220ff99 	beqz	s1,9d00b2f8 <fma+0x204>
9d00b494:	0000c825 	move	t9,zero
9d00b498:	2a220040 	slti	v0,s1,64
9d00b49c:	10400043 	beqz	v0,9d00b5ac <fma+0x4b8>
9d00b4a0:	8fa40040 	lw	a0,64(sp)
9d00b4a4:	240d0040 	li	t5,64
9d00b4a8:	01b16823 	subu	t5,t5,s1
9d00b4ac:	01a03025 	move	a2,t5
9d00b4b0:	03002825 	move	a1,t8
9d00b4b4:	afb90058 	sw	t9,88(sp)
9d00b4b8:	afa80054 	sw	t0,84(sp)
9d00b4bc:	afa70050 	sw	a3,80(sp)
9d00b4c0:	afad004c 	sw	t5,76(sp)
9d00b4c4:	0f405229 	jal	9d0148a4 <__ashldi3>
9d00b4c8:	afb80048 	sw	t8,72(sp)
9d00b4cc:	8fb80048 	lw	t8,72(sp)
9d00b4d0:	8fa40040 	lw	a0,64(sp)
9d00b4d4:	00431025 	or	v0,v0,v1
9d00b4d8:	03002825 	move	a1,t8
9d00b4dc:	02203025 	move	a2,s1
9d00b4e0:	0f40521a 	jal	9d014868 <__lshrdi3>
9d00b4e4:	0002a82b 	sltu	s5,zero,v0
9d00b4e8:	8fad004c 	lw	t5,76(sp)
9d00b4ec:	02002025 	move	a0,s0
9d00b4f0:	02c02825 	move	a1,s6
9d00b4f4:	01a03025 	move	a2,t5
9d00b4f8:	0060a025 	move	s4,v1
9d00b4fc:	0f405229 	jal	9d0148a4 <__ashldi3>
9d00b500:	02a2a825 	or	s5,s5,v0
9d00b504:	02a27825 	or	t7,s5,v0
9d00b508:	0283c025 	or	t8,s4,v1
9d00b50c:	02002025 	move	a0,s0
9d00b510:	02c02825 	move	a1,s6
9d00b514:	02203025 	move	a2,s1
9d00b518:	afaf0048 	sw	t7,72(sp)
9d00b51c:	0f40521a 	jal	9d014868 <__lshrdi3>
9d00b520:	afb80040 	sw	t8,64(sp)
9d00b524:	00408025 	move	s0,v0
9d00b528:	0060b025 	move	s6,v1
9d00b52c:	8fb80040 	lw	t8,64(sp)
9d00b530:	8faf0048 	lw	t7,72(sp)
9d00b534:	8fa70050 	lw	a3,80(sp)
9d00b538:	8fa80054 	lw	t0,84(sp)
9d00b53c:	1000ff6e 	b	9d00b2f8 <fma+0x204>
9d00b540:	8fb90058 	lw	t9,88(sp)
9d00b544:	03d98823 	subu	s1,s8,t9
9d00b548:	1220001d 	beqz	s1,9d00b5c0 <fma+0x4cc>
9d00b54c:	2a220040 	slti	v0,s1,64
9d00b550:	10400020 	beqz	v0,9d00b5d4 <fma+0x4e0>
9d00b554:	24060040 	li	a2,64
9d00b558:	00e02025 	move	a0,a3
9d00b55c:	02e02825 	move	a1,s7
9d00b560:	00d13023 	subu	a2,a2,s1
9d00b564:	afb8004c 	sw	t8,76(sp)
9d00b568:	afaf0048 	sw	t7,72(sp)
9d00b56c:	0f405229 	jal	9d0148a4 <__ashldi3>
9d00b570:	afa70040 	sw	a3,64(sp)
9d00b574:	8fa70040 	lw	a3,64(sp)
9d00b578:	00431025 	or	v0,v0,v1
9d00b57c:	02e02825 	move	a1,s7
9d00b580:	00e02025 	move	a0,a3
9d00b584:	02203025 	move	a2,s1
9d00b588:	0f40521a 	jal	9d014868 <__lshrdi3>
9d00b58c:	0002a02b 	sltu	s4,zero,v0
9d00b590:	02824025 	or	t0,s4,v0
9d00b594:	0060c825 	move	t9,v1
9d00b598:	00003825 	move	a3,zero
9d00b59c:	0000b825 	move	s7,zero
9d00b5a0:	8faf0048 	lw	t7,72(sp)
9d00b5a4:	1000ff54 	b	9d00b2f8 <fma+0x204>
9d00b5a8:	8fb8004c 	lw	t8,76(sp)
9d00b5ac:	240f0001 	li	t7,1
9d00b5b0:	0000c025 	move	t8,zero
9d00b5b4:	00008025 	move	s0,zero
9d00b5b8:	1000ff4f 	b	9d00b2f8 <fma+0x204>
9d00b5bc:	0000b025 	move	s6,zero
9d00b5c0:	00e04025 	move	t0,a3
9d00b5c4:	02e0c825 	move	t9,s7
9d00b5c8:	00003825 	move	a3,zero
9d00b5cc:	1000ff4a 	b	9d00b2f8 <fma+0x204>
9d00b5d0:	0000b825 	move	s7,zero
9d00b5d4:	24080001 	li	t0,1
9d00b5d8:	1000fffb 	b	9d00b5c8 <fma+0x4d4>
9d00b5dc:	0000c825 	move	t9,zero
9d00b5e0:	01e85023 	subu	t2,t7,t0
9d00b5e4:	01ea182b 	sltu	v1,t7,t2
9d00b5e8:	03194823 	subu	t1,t8,t9
9d00b5ec:	0123a023 	subu	s4,t1,v1
9d00b5f0:	0314102b 	sltu	v0,t8,s4
9d00b5f4:	0140a825 	move	s5,t2
9d00b5f8:	241f0001 	li	ra,1
9d00b5fc:	14400006 	bnez	v0,9d00b618 <fma+0x524>
9d00b600:	00002025 	move	a0,zero
9d00b604:	56980004 	bnel	s4,t8,9d00b618 <fma+0x524>
9d00b608:	0000f825 	move	ra,zero
9d00b60c:	14600003 	bnez	v1,9d00b61c <fma+0x528>
9d00b610:	02071823 	subu	v1,s0,a3
9d00b614:	0000f825 	move	ra,zero
9d00b618:	02071823 	subu	v1,s0,a3
9d00b61c:	0203682b 	sltu	t5,s0,v1
9d00b620:	02d71023 	subu	v0,s6,s7
9d00b624:	004d1023 	subu	v0,v0,t5
9d00b628:	007f6023 	subu	t4,v1,ra
9d00b62c:	006c182b 	sltu	v1,v1,t4
9d00b630:	00441023 	subu	v0,v0,a0
9d00b634:	00436823 	subu	t5,v0,v1
9d00b638:	05a10013 	bgez	t5,9d00b688 <fma+0x594>
9d00b63c:	010f5023 	subu	t2,t0,t7
9d00b640:	010a402b 	sltu	t0,t0,t2
9d00b644:	03384823 	subu	t1,t9,t8
9d00b648:	00f03023 	subu	a2,a3,s0
9d00b64c:	0128a023 	subu	s4,t1,t0
9d00b650:	00e6102b 	sltu	v0,a3,a2
9d00b654:	02f61823 	subu	v1,s7,s6
9d00b658:	01546025 	or	t4,t2,s4
9d00b65c:	00dff821 	addu	ra,a2,ra
9d00b660:	00621823 	subu	v1,v1,v0
9d00b664:	000c602b 	sltu	t4,zero,t4
9d00b668:	03e6302b 	sltu	a2,ra,a2
9d00b66c:	00641021 	addu	v0,v1,a0
9d00b670:	03ec6023 	subu	t4,ra,t4
9d00b674:	00c21021 	addu	v0,a2,v0
9d00b678:	03ecf82b 	sltu	ra,ra,t4
9d00b67c:	0140a825 	move	s5,t2
9d00b680:	005f6823 	subu	t5,v0,ra
9d00b684:	2e310001 	sltiu	s1,s1,1
9d00b688:	018d1025 	or	v0,t4,t5
9d00b68c:	1440ff33 	bnez	v0,9d00b35c <fma+0x268>
9d00b690:	02b41025 	or	v0,s5,s4
9d00b694:	1040febb 	beqz	v0,9d00b184 <fma+0x90>
9d00b698:	02a02025 	move	a0,s5
9d00b69c:	0f404fc1 	jal	9d013f04 <a_clz_64>
9d00b6a0:	02802825 	move	a1,s4
9d00b6a4:	2453ffff 	addiu	s3,v0,-1
9d00b6a8:	06610007 	bgez	s3,9d00b6c8 <fma+0x5d4>
9d00b6ac:	001417c0 	sll	v0,s4,0x1f
9d00b6b0:	00158042 	srl	s0,s5,0x1
9d00b6b4:	00508025 	or	s0,v0,s0
9d00b6b8:	32aa0001 	andi	t2,s5,0x1
9d00b6bc:	020a8025 	or	s0,s0,t2
9d00b6c0:	1000ff43 	b	9d00b3d0 <fma+0x2dc>
9d00b6c4:	00149042 	srl	s2,s4,0x1
9d00b6c8:	02603025 	move	a2,s3
9d00b6cc:	02a02025 	move	a0,s5
9d00b6d0:	0f405229 	jal	9d0148a4 <__ashldi3>
9d00b6d4:	02802825 	move	a1,s4
9d00b6d8:	00408025 	move	s0,v0
9d00b6dc:	1000ff3c 	b	9d00b3d0 <fma+0x2dc>
9d00b6e0:	00609025 	move	s2,v1
9d00b6e4:	3c029d00 	lui	v0,0x9d00
9d00b6e8:	8c547618 	lw	s4,30232(v0)
9d00b6ec:	1000ff4c 	b	9d00b420 <fma+0x32c>
9d00b6f0:	8c55761c 	lw	s5,30236(v0)
9d00b6f4:	00101540 	sll	v0,s0,0x15
9d00b6f8:	10400039 	beqz	v0,9d00b7e0 <fma+0x6ec>
9d00b6fc:	001217c0 	sll	v0,s2,0x1f
9d00b700:	00102042 	srl	a0,s0,0x1
9d00b704:	00442025 	or	a0,v0,a0
9d00b708:	00122842 	srl	a1,s2,0x1
9d00b70c:	32100001 	andi	s0,s0,0x1
9d00b710:	3c024000 	lui	v0,0x4000
9d00b714:	00902025 	or	a0,a0,s0
9d00b718:	12200005 	beqz	s1,9d00b730 <fma+0x63c>
9d00b71c:	00452825 	or	a1,v0,a1
9d00b720:	00042023 	negu	a0,a0
9d00b724:	0004102b 	sltu	v0,zero,a0
9d00b728:	00052823 	negu	a1,a1
9d00b72c:	00a22823 	subu	a1,a1,v0
9d00b730:	0f404efd 	jal	9d013bf4 <__floatdidf>
9d00b734:	00000000 	nop
9d00b738:	00403025 	move	a2,v0
9d00b73c:	00603825 	move	a3,v1
9d00b740:	00402025 	move	a0,v0
9d00b744:	0f4036bb 	jal	9d00daec <__adddf3>
9d00b748:	00602825 	move	a1,v1
9d00b74c:	00402025 	move	a0,v0
9d00b750:	02803025 	move	a2,s4
9d00b754:	02a03825 	move	a3,s5
9d00b758:	0f4036b9 	jal	9d00dae4 <__subdf3>
9d00b75c:	00602825 	move	a1,v1
9d00b760:	00408025 	move	s0,v0
9d00b764:	3c029d00 	lui	v0,0x9d00
9d00b768:	8c467630 	lw	a2,30256(v0)
9d00b76c:	8c477634 	lw	a3,30260(v0)
9d00b770:	02002025 	move	a0,s0
9d00b774:	00602825 	move	a1,v1
9d00b778:	0f403b8f 	jal	9d00ee3c <__muldf3>
9d00b77c:	00608825 	move	s1,v1
9d00b780:	00403025 	move	a2,v0
9d00b784:	00603825 	move	a3,v1
9d00b788:	00402025 	move	a0,v0
9d00b78c:	0f403b8f 	jal	9d00ee3c <__muldf3>
9d00b790:	00602825 	move	a1,v1
9d00b794:	02003025 	move	a2,s0
9d00b798:	02203825 	move	a3,s1
9d00b79c:	02002025 	move	a0,s0
9d00b7a0:	02202825 	move	a1,s1
9d00b7a4:	00409025 	move	s2,v0
9d00b7a8:	0f4036b9 	jal	9d00dae4 <__subdf3>
9d00b7ac:	00609825 	move	s3,v1
9d00b7b0:	00403025 	move	a2,v0
9d00b7b4:	00603825 	move	a3,v1
9d00b7b8:	02402025 	move	a0,s2
9d00b7bc:	0f403b8f 	jal	9d00ee3c <__muldf3>
9d00b7c0:	02602825 	move	a1,s3
9d00b7c4:	00402025 	move	a0,v0
9d00b7c8:	02003025 	move	a2,s0
9d00b7cc:	02203825 	move	a3,s1
9d00b7d0:	0f4036bb 	jal	9d00daec <__adddf3>
9d00b7d4:	00602825 	move	a1,v1
9d00b7d8:	0040b025 	move	s6,v0
9d00b7dc:	0060b825 	move	s7,v1
9d00b7e0:	03c03025 	move	a2,s8
9d00b7e4:	02c02025 	move	a0,s6
9d00b7e8:	0f404908 	jal	9d012420 <scalbn>
9d00b7ec:	02e02825 	move	a1,s7
9d00b7f0:	1000fe6f 	b	9d00b1b0 <fma+0xbc>
9d00b7f4:	00409025 	move	s2,v0
9d00b7f8:	00121580 	sll	v0,s2,0x16
9d00b7fc:	00108282 	srl	s0,s0,0xa
9d00b800:	00508025 	or	s0,v0,s0
9d00b804:	0004202b 	sltu	a0,zero,a0
9d00b808:	00902025 	or	a0,a0,s0
9d00b80c:	02402825 	move	a1,s2
9d00b810:	00041582 	srl	v0,a0,0x16
9d00b814:	7c054804 	ins	a1,zero,0x0,0xa
9d00b818:	00452825 	or	a1,v0,a1
9d00b81c:	12200005 	beqz	s1,9d00b834 <fma+0x740>
9d00b820:	00042280 	sll	a0,a0,0xa
9d00b824:	00042023 	negu	a0,a0
9d00b828:	0004102b 	sltu	v0,zero,a0
9d00b82c:	00052823 	negu	a1,a1
9d00b830:	00a22823 	subu	a1,a1,v0
9d00b834:	0f404efd 	jal	9d013bf4 <__floatdidf>
9d00b838:	00000000 	nop
9d00b83c:	1000ffe7 	b	9d00b7dc <fma+0x6e8>
9d00b840:	0040b025 	move	s6,v0

Disassembly of section .text.__intscan:

9d00b844 <__intscan>:
9d00b844:	27bdffb8 	addiu	sp,sp,-72
9d00b848:	8fa2005c 	lw	v0,92(sp)
9d00b84c:	afb20028 	sw	s2,40(sp)
9d00b850:	afbf0044 	sw	ra,68(sp)
9d00b854:	afa20010 	sw	v0,16(sp)
9d00b858:	2ca20025 	sltiu	v0,a1,37
9d00b85c:	afbe0040 	sw	s8,64(sp)
9d00b860:	afb7003c 	sw	s7,60(sp)
9d00b864:	afb60038 	sw	s6,56(sp)
9d00b868:	afb50034 	sw	s5,52(sp)
9d00b86c:	afb40030 	sw	s4,48(sp)
9d00b870:	afb3002c 	sw	s3,44(sp)
9d00b874:	afb10024 	sw	s1,36(sp)
9d00b878:	afb00020 	sw	s0,32(sp)
9d00b87c:	10400033 	beqz	v0,9d00b94c <__intscan+0x108>
9d00b880:	8fb20058 	lw	s2,88(sp)
9d00b884:	24020001 	li	v0,1
9d00b888:	10a20030 	beq	a1,v0,9d00b94c <__intscan+0x108>
9d00b88c:	00808025 	move	s0,a0
9d00b890:	00a08825 	move	s1,a1
9d00b894:	00c09825 	move	s3,a2
9d00b898:	24140020 	li	s4,32
9d00b89c:	8e02003c 	lw	v0,60(s0)
9d00b8a0:	8e03004c 	lw	v1,76(s0)
9d00b8a4:	0043182b 	sltu	v1,v0,v1
9d00b8a8:	1060002c 	beqz	v1,9d00b95c <__intscan+0x118>
9d00b8ac:	24430001 	addiu	v1,v0,1
9d00b8b0:	ae03003c 	sw	v1,60(s0)
9d00b8b4:	90490000 	lbu	t1,0(v0)
9d00b8b8:	1134fff8 	beq	t1,s4,9d00b89c <__intscan+0x58>
9d00b8bc:	2522fff7 	addiu	v0,t1,-9
9d00b8c0:	2c420005 	sltiu	v0,v0,5
9d00b8c4:	1440fff5 	bnez	v0,9d00b89c <__intscan+0x58>
9d00b8c8:	2522ffd5 	addiu	v0,t1,-43
9d00b8cc:	7c020844 	ins	v0,zero,0x1,0x1
9d00b8d0:	1440000b 	bnez	v0,9d00b900 <__intscan+0xbc>
9d00b8d4:	0000a025 	move	s4,zero
9d00b8d8:	8e02003c 	lw	v0,60(s0)
9d00b8dc:	8e03004c 	lw	v1,76(s0)
9d00b8e0:	3934002d 	xori	s4,t1,0x2d
9d00b8e4:	2e940001 	sltiu	s4,s4,1
9d00b8e8:	0043182b 	sltu	v1,v0,v1
9d00b8ec:	1060001f 	beqz	v1,9d00b96c <__intscan+0x128>
9d00b8f0:	0014a023 	negu	s4,s4
9d00b8f4:	24430001 	addiu	v1,v0,1
9d00b8f8:	ae03003c 	sw	v1,60(s0)
9d00b8fc:	90490000 	lbu	t1,0(v0)
9d00b900:	1220001e 	beqz	s1,9d00b97c <__intscan+0x138>
9d00b904:	8e03004c 	lw	v1,76(s0)
9d00b908:	24020010 	li	v0,16
9d00b90c:	1222018e 	beq	s1,v0,9d00bf48 <__intscan+0x704>
9d00b910:	24020030 	li	v0,48
9d00b914:	3c029d01 	lui	v0,0x9d01
9d00b918:	24421f21 	addiu	v0,v0,7969
9d00b91c:	01221021 	addu	v0,t1,v0
9d00b920:	90420000 	lbu	v0,0(v0)
9d00b924:	0051102b 	sltu	v0,v0,s1
9d00b928:	14400057 	bnez	v0,9d00ba88 <__intscan+0x244>
9d00b92c:	2402000a 	li	v0,10
9d00b930:	10600004 	beqz	v1,9d00b944 <__intscan+0x100>
9d00b934:	00002825 	move	a1,zero
9d00b938:	8e02003c 	lw	v0,60(s0)
9d00b93c:	2442ffff 	addiu	v0,v0,-1
9d00b940:	ae02003c 	sw	v0,60(s0)
9d00b944:	0f4052c7 	jal	9d014b1c <__shlim>
9d00b948:	02002025 	move	a0,s0
9d00b94c:	3c02a001 	lui	v0,0xa001
9d00b950:	24030016 	li	v1,22
9d00b954:	1000002b 	b	9d00ba04 <__intscan+0x1c0>
9d00b958:	ac43a378 	sw	v1,-23688(v0)
9d00b95c:	0f404aa5 	jal	9d012a94 <__shgetc>
9d00b960:	02002025 	move	a0,s0
9d00b964:	1000ffd4 	b	9d00b8b8 <__intscan+0x74>
9d00b968:	00404825 	move	t1,v0
9d00b96c:	0f404aa5 	jal	9d012a94 <__shgetc>
9d00b970:	02002025 	move	a0,s0
9d00b974:	1000ffe2 	b	9d00b900 <__intscan+0xbc>
9d00b978:	00404825 	move	t1,v0
9d00b97c:	24020030 	li	v0,48
9d00b980:	5522ffe4 	bnel	t1,v0,9d00b914 <__intscan+0xd0>
9d00b984:	2411000a 	li	s1,10
9d00b988:	8e02003c 	lw	v0,60(s0)
9d00b98c:	0043182b 	sltu	v1,v0,v1
9d00b990:	1060002c 	beqz	v1,9d00ba44 <__intscan+0x200>
9d00b994:	24430001 	addiu	v1,v0,1
9d00b998:	ae03003c 	sw	v1,60(s0)
9d00b99c:	90490000 	lbu	t1,0(v0)
9d00b9a0:	35220020 	ori	v0,t1,0x20
9d00b9a4:	24030078 	li	v1,120
9d00b9a8:	14430035 	bne	v0,v1,9d00ba80 <__intscan+0x23c>
9d00b9ac:	00000000 	nop
9d00b9b0:	8e02003c 	lw	v0,60(s0)
9d00b9b4:	8e03004c 	lw	v1,76(s0)
9d00b9b8:	0043182b 	sltu	v1,v0,v1
9d00b9bc:	10600025 	beqz	v1,9d00ba54 <__intscan+0x210>
9d00b9c0:	24430001 	addiu	v1,v0,1
9d00b9c4:	ae03003c 	sw	v1,60(s0)
9d00b9c8:	90490000 	lbu	t1,0(v0)
9d00b9cc:	3c029d01 	lui	v0,0x9d01
9d00b9d0:	24421f21 	addiu	v0,v0,7969
9d00b9d4:	01221021 	addu	v0,t1,v0
9d00b9d8:	90420000 	lbu	v0,0(v0)
9d00b9dc:	2c420010 	sltiu	v0,v0,16
9d00b9e0:	5440002b 	bnezl	v0,9d00ba90 <__intscan+0x24c>
9d00b9e4:	24110010 	li	s1,16
9d00b9e8:	8e02004c 	lw	v0,76(s0)
9d00b9ec:	10400152 	beqz	v0,9d00bf38 <__intscan+0x6f4>
9d00b9f0:	00003825 	move	a3,zero
9d00b9f4:	1260001b 	beqz	s3,9d00ba64 <__intscan+0x220>
9d00b9f8:	8e02003c 	lw	v0,60(s0)
9d00b9fc:	2442fffe 	addiu	v0,v0,-2
9d00ba00:	ae02003c 	sw	v0,60(s0)
9d00ba04:	00003825 	move	a3,zero
9d00ba08:	00004025 	move	t0,zero
9d00ba0c:	8fbf0044 	lw	ra,68(sp)
9d00ba10:	00e01025 	move	v0,a3
9d00ba14:	01001825 	move	v1,t0
9d00ba18:	8fbe0040 	lw	s8,64(sp)
9d00ba1c:	8fb7003c 	lw	s7,60(sp)
9d00ba20:	8fb60038 	lw	s6,56(sp)
9d00ba24:	8fb50034 	lw	s5,52(sp)
9d00ba28:	8fb40030 	lw	s4,48(sp)
9d00ba2c:	8fb3002c 	lw	s3,44(sp)
9d00ba30:	8fb20028 	lw	s2,40(sp)
9d00ba34:	8fb10024 	lw	s1,36(sp)
9d00ba38:	8fb00020 	lw	s0,32(sp)
9d00ba3c:	03e00008 	jr	ra
9d00ba40:	27bd0048 	addiu	sp,sp,72
9d00ba44:	0f404aa5 	jal	9d012a94 <__shgetc>
9d00ba48:	02002025 	move	a0,s0
9d00ba4c:	1000ffd4 	b	9d00b9a0 <__intscan+0x15c>
9d00ba50:	00404825 	move	t1,v0
9d00ba54:	0f404aa5 	jal	9d012a94 <__shgetc>
9d00ba58:	02002025 	move	a0,s0
9d00ba5c:	1000ffdb 	b	9d00b9cc <__intscan+0x188>
9d00ba60:	00404825 	move	t1,v0
9d00ba64:	2442ffff 	addiu	v0,v0,-1
9d00ba68:	ae02003c 	sw	v0,60(s0)
9d00ba6c:	00002825 	move	a1,zero
9d00ba70:	0f4052c7 	jal	9d014b1c <__shlim>
9d00ba74:	02002025 	move	a0,s0
9d00ba78:	1000ffe3 	b	9d00ba08 <__intscan+0x1c4>
9d00ba7c:	00003825 	move	a3,zero
9d00ba80:	12200087 	beqz	s1,9d00bca0 <__intscan+0x45c>
9d00ba84:	2402000a 	li	v0,10
9d00ba88:	1222007b 	beq	s1,v0,9d00bc78 <__intscan+0x434>
9d00ba8c:	3c151999 	lui	s5,0x1999
9d00ba90:	2627ffff 	addiu	a3,s1,-1
9d00ba94:	3c139d01 	lui	s3,0x9d01
9d00ba98:	00f1a824 	and	s5,a3,s1
9d00ba9c:	16a000f9 	bnez	s5,9d00be84 <__intscan+0x640>
9d00baa0:	26731f21 	addiu	s3,s3,7969
9d00baa4:	24020017 	li	v0,23
9d00baa8:	72221002 	mul	v0,s1,v0
9d00baac:	3c039d01 	lui	v1,0x9d01
9d00bab0:	24631f14 	addiu	v1,v1,7956
9d00bab4:	3c1e0800 	lui	s8,0x800
9d00bab8:	7c421140 	ext	v0,v0,0x5,0x3
9d00babc:	00431021 	addu	v0,v0,v1
9d00bac0:	80560000 	lb	s6,0(v0)
9d00bac4:	02691021 	addu	v0,s3,t1
9d00bac8:	90570000 	lbu	s7,0(v0)
9d00bacc:	02f1102b 	sltu	v0,s7,s1
9d00bad0:	10400003 	beqz	v0,9d00bae0 <__intscan+0x29c>
9d00bad4:	02be102b 	sltu	v0,s5,s8
9d00bad8:	54400073 	bnezl	v0,9d00bca8 <__intscan+0x464>
9d00badc:	8e02003c 	lw	v0,60(s0)
9d00bae0:	00004025 	move	t0,zero
9d00bae4:	02c03025 	move	a2,s6
9d00bae8:	2404ffff 	li	a0,-1
9d00baec:	2405ffff 	li	a1,-1
9d00baf0:	afa9001c 	sw	t1,28(sp)
9d00baf4:	afb50018 	sw	s5,24(sp)
9d00baf8:	0f40521a 	jal	9d014868 <__lshrdi3>
9d00bafc:	afa80014 	sw	t0,20(sp)
9d00bb00:	8fa80014 	lw	t0,20(sp)
9d00bb04:	8fa70018 	lw	a3,24(sp)
9d00bb08:	8fa9001c 	lw	t1,28(sp)
9d00bb0c:	0040b825 	move	s7,v0
9d00bb10:	0060a825 	move	s5,v1
9d00bb14:	02691021 	addu	v0,s3,t1
9d00bb18:	905e0000 	lbu	s8,0(v0)
9d00bb1c:	03d1102b 	sltu	v0,s8,s1
9d00bb20:	104000a0 	beqz	v0,9d00bda4 <__intscan+0x560>
9d00bb24:	02a8102b 	sltu	v0,s5,t0
9d00bb28:	5440009f 	bnezl	v0,9d00bda8 <__intscan+0x564>
9d00bb2c:	3c139d01 	lui	s3,0x9d01
9d00bb30:	15150003 	bne	t0,s5,9d00bb40 <__intscan+0x2fc>
9d00bb34:	02e7102b 	sltu	v0,s7,a3
9d00bb38:	5440009b 	bnezl	v0,9d00bda8 <__intscan+0x564>
9d00bb3c:	3c139d01 	lui	s3,0x9d01
9d00bb40:	8e02003c 	lw	v0,60(s0)
9d00bb44:	8e03004c 	lw	v1,76(s0)
9d00bb48:	0043182b 	sltu	v1,v0,v1
9d00bb4c:	10600063 	beqz	v1,9d00bcdc <__intscan+0x498>
9d00bb50:	24430001 	addiu	v1,v0,1
9d00bb54:	ae03003c 	sw	v1,60(s0)
9d00bb58:	90490000 	lbu	t1,0(v0)
9d00bb5c:	00e02025 	move	a0,a3
9d00bb60:	01002825 	move	a1,t0
9d00bb64:	02c03025 	move	a2,s6
9d00bb68:	0f405229 	jal	9d0148a4 <__ashldi3>
9d00bb6c:	afa90014 	sw	t1,20(sp)
9d00bb70:	03c23825 	or	a3,s8,v0
9d00bb74:	00604025 	move	t0,v1
9d00bb78:	1000ffe6 	b	9d00bb14 <__intscan+0x2d0>
9d00bb7c:	8fa90014 	lw	t1,20(sp)
9d00bb80:	8e03004c 	lw	v1,76(s0)
9d00bb84:	0043182b 	sltu	v1,v0,v1
9d00bb88:	10600036 	beqz	v1,9d00bc64 <__intscan+0x420>
9d00bb8c:	24430001 	addiu	v1,v0,1
9d00bb90:	ae03003c 	sw	v1,60(s0)
9d00bb94:	90420000 	lbu	v0,0(v0)
9d00bb98:	72761802 	mul	v1,s3,s6
9d00bb9c:	00693821 	addu	a3,v1,t1
9d00bba0:	24f3ffd0 	addiu	s3,a3,-48
9d00bba4:	00404825 	move	t1,v0
9d00bba8:	2522ffd0 	addiu	v0,t1,-48
9d00bbac:	2c42000a 	sltiu	v0,v0,10
9d00bbb0:	10400003 	beqz	v0,9d00bbc0 <__intscan+0x37c>
9d00bbb4:	0275102b 	sltu	v0,s3,s5
9d00bbb8:	5440fff1 	bnezl	v0,9d00bb80 <__intscan+0x33c>
9d00bbbc:	8e02003c 	lw	v0,60(s0)
9d00bbc0:	3c151999 	lui	s5,0x1999
9d00bbc4:	36b5999a 	ori	s5,s5,0x999a
9d00bbc8:	3c1e9999 	lui	s8,0x9999
9d00bbcc:	02603825 	move	a3,s3
9d00bbd0:	00004025 	move	t0,zero
9d00bbd4:	26a5ffff 	addiu	a1,s5,-1
9d00bbd8:	37de999a 	ori	s8,s8,0x999a
9d00bbdc:	2533ffd0 	addiu	s3,t1,-48
9d00bbe0:	2e62000a 	sltiu	v0,s3,10
9d00bbe4:	10400088 	beqz	v0,9d00be08 <__intscan+0x5c4>
9d00bbe8:	0115102b 	sltu	v0,t0,s5
9d00bbec:	5040006e 	beqzl	v0,9d00bda8 <__intscan+0x564>
9d00bbf0:	3c139d01 	lui	s3,0x9d01
9d00bbf4:	15050004 	bne	t0,a1,9d00bc08 <__intscan+0x3c4>
9d00bbf8:	2402000a 	li	v0,10
9d00bbfc:	00fe102b 	sltu	v0,a3,s8
9d00bc00:	10400068 	beqz	v0,9d00bda4 <__intscan+0x560>
9d00bc04:	2402000a 	li	v0,10
9d00bc08:	00470019 	multu	v0,a3
9d00bc0c:	0000b810 	mfhi	s7
9d00bc10:	0000b012 	mflo	s6
9d00bc14:	70481802 	mul	v1,v0,t0
9d00bc18:	0077b821 	addu	s7,v1,s7
9d00bc1c:	2403ffff 	li	v1,-1
9d00bc20:	16e30004 	bne	s7,v1,9d00bc34 <__intscan+0x3f0>
9d00bc24:	00131027 	nor	v0,zero,s3
9d00bc28:	0056102b 	sltu	v0,v0,s6
9d00bc2c:	5440005e 	bnezl	v0,9d00bda8 <__intscan+0x564>
9d00bc30:	3c139d01 	lui	s3,0x9d01
9d00bc34:	8e02003c 	lw	v0,60(s0)
9d00bc38:	8e03004c 	lw	v1,76(s0)
9d00bc3c:	0043182b 	sltu	v1,v0,v1
9d00bc40:	10600011 	beqz	v1,9d00bc88 <__intscan+0x444>
9d00bc44:	00000000 	nop
9d00bc48:	24430001 	addiu	v1,v0,1
9d00bc4c:	ae03003c 	sw	v1,60(s0)
9d00bc50:	90490000 	lbu	t1,0(v0)
9d00bc54:	02763821 	addu	a3,s3,s6
9d00bc58:	00f6402b 	sltu	t0,a3,s6
9d00bc5c:	1000ffdf 	b	9d00bbdc <__intscan+0x398>
9d00bc60:	01174021 	addu	t0,t0,s7
9d00bc64:	02002025 	move	a0,s0
9d00bc68:	0f404aa5 	jal	9d012a94 <__shgetc>
9d00bc6c:	afa90014 	sw	t1,20(sp)
9d00bc70:	1000ffc9 	b	9d00bb98 <__intscan+0x354>
9d00bc74:	8fa90014 	lw	t1,20(sp)
9d00bc78:	00009825 	move	s3,zero
9d00bc7c:	36b59999 	ori	s5,s5,0x9999
9d00bc80:	1000ffc9 	b	9d00bba8 <__intscan+0x364>
9d00bc84:	2416000a 	li	s6,10
9d00bc88:	0f404aa5 	jal	9d012a94 <__shgetc>
9d00bc8c:	02002025 	move	a0,s0
9d00bc90:	00404825 	move	t1,v0
9d00bc94:	3c021999 	lui	v0,0x1999
9d00bc98:	1000ffee 	b	9d00bc54 <__intscan+0x410>
9d00bc9c:	34459999 	ori	a1,v0,0x9999
9d00bca0:	1000ff7b 	b	9d00ba90 <__intscan+0x24c>
9d00bca4:	24110008 	li	s1,8
9d00bca8:	8e03004c 	lw	v1,76(s0)
9d00bcac:	0043182b 	sltu	v1,v0,v1
9d00bcb0:	10600006 	beqz	v1,9d00bccc <__intscan+0x488>
9d00bcb4:	24430001 	addiu	v1,v0,1
9d00bcb8:	ae03003c 	sw	v1,60(s0)
9d00bcbc:	90490000 	lbu	t1,0(v0)
9d00bcc0:	02d53804 	sllv	a3,s5,s6
9d00bcc4:	1000ff7f 	b	9d00bac4 <__intscan+0x280>
9d00bcc8:	00f7a825 	or	s5,a3,s7
9d00bccc:	0f404aa5 	jal	9d012a94 <__shgetc>
9d00bcd0:	02002025 	move	a0,s0
9d00bcd4:	1000fffa 	b	9d00bcc0 <__intscan+0x47c>
9d00bcd8:	00404825 	move	t1,v0
9d00bcdc:	02002025 	move	a0,s0
9d00bce0:	afa80018 	sw	t0,24(sp)
9d00bce4:	0f404aa5 	jal	9d012a94 <__shgetc>
9d00bce8:	afa70014 	sw	a3,20(sp)
9d00bcec:	00404825 	move	t1,v0
9d00bcf0:	8fa80018 	lw	t0,24(sp)
9d00bcf4:	1000ff99 	b	9d00bb5c <__intscan+0x318>
9d00bcf8:	8fa70014 	lw	a3,20(sp)
9d00bcfc:	8e03004c 	lw	v1,76(s0)
9d00bd00:	0043182b 	sltu	v1,v0,v1
9d00bd04:	1060005b 	beqz	v1,9d00be74 <__intscan+0x630>
9d00bd08:	24430001 	addiu	v1,v0,1
9d00bd0c:	ae03003c 	sw	v1,60(s0)
9d00bd10:	90490000 	lbu	t1,0(v0)
9d00bd14:	72351002 	mul	v0,s1,s5
9d00bd18:	0057a821 	addu	s5,v0,s7
9d00bd1c:	02691021 	addu	v0,s3,t1
9d00bd20:	90570000 	lbu	s7,0(v0)
9d00bd24:	02f1102b 	sltu	v0,s7,s1
9d00bd28:	10400003 	beqz	v0,9d00bd38 <__intscan+0x4f4>
9d00bd2c:	02b6102b 	sltu	v0,s5,s6
9d00bd30:	5440fff2 	bnezl	v0,9d00bcfc <__intscan+0x4b8>
9d00bd34:	8e02003c 	lw	v0,60(s0)
9d00bd38:	02a03825 	move	a3,s5
9d00bd3c:	00004025 	move	t0,zero
9d00bd40:	241effff 	li	s8,-1
9d00bd44:	02691021 	addu	v0,s3,t1
9d00bd48:	90550000 	lbu	s5,0(v0)
9d00bd4c:	02b1102b 	sltu	v0,s5,s1
9d00bd50:	10400014 	beqz	v0,9d00bda4 <__intscan+0x560>
9d00bd54:	00f10019 	multu	a3,s1
9d00bd58:	00002012 	mflo	a0
9d00bd5c:	11000009 	beqz	t0,9d00bd84 <__intscan+0x540>
9d00bd60:	00002810 	mfhi	a1
9d00bd64:	02280019 	multu	s1,t0
9d00bd68:	00006012 	mflo	t4
9d00bd6c:	00ac1021 	addu	v0,a1,t4
9d00bd70:	004c102b 	sltu	v0,v0,t4
9d00bd74:	00006810 	mfhi	t5
9d00bd78:	004d1021 	addu	v0,v0,t5
9d00bd7c:	5440000a 	bnezl	v0,9d00bda8 <__intscan+0x564>
9d00bd80:	3c139d01 	lui	s3,0x9d01
9d00bd84:	71111002 	mul	v0,t0,s1
9d00bd88:	0080b025 	move	s6,a0
9d00bd8c:	0045b821 	addu	s7,v0,a1
9d00bd90:	16fe0040 	bne	s7,s8,9d00be94 <__intscan+0x650>
9d00bd94:	00151027 	nor	v0,zero,s5
9d00bd98:	0044102b 	sltu	v0,v0,a0
9d00bd9c:	5040003e 	beqzl	v0,9d00be98 <__intscan+0x654>
9d00bda0:	8e02003c 	lw	v0,60(s0)
9d00bda4:	3c139d01 	lui	s3,0x9d01
9d00bda8:	26731f21 	addiu	s3,s3,7969
9d00bdac:	01334821 	addu	t1,t1,s3
9d00bdb0:	91220000 	lbu	v0,0(t1)
9d00bdb4:	0051102b 	sltu	v0,v0,s1
9d00bdb8:	50400014 	beqzl	v0,9d00be0c <__intscan+0x5c8>
9d00bdbc:	8e02004c 	lw	v0,76(s0)
9d00bdc0:	8e02003c 	lw	v0,60(s0)
9d00bdc4:	8e03004c 	lw	v1,76(s0)
9d00bdc8:	0043182b 	sltu	v1,v0,v1
9d00bdcc:	10600040 	beqz	v1,9d00bed0 <__intscan+0x68c>
9d00bdd0:	24430001 	addiu	v1,v0,1
9d00bdd4:	ae03003c 	sw	v1,60(s0)
9d00bdd8:	90420000 	lbu	v0,0(v0)
9d00bddc:	02621021 	addu	v0,s3,v0
9d00bde0:	90420000 	lbu	v0,0(v0)
9d00bde4:	0051102b 	sltu	v0,v0,s1
9d00bde8:	1440fff5 	bnez	v0,9d00bdc0 <__intscan+0x57c>
9d00bdec:	3c02a001 	lui	v0,0xa001
9d00bdf0:	24030022 	li	v1,34
9d00bdf4:	8fa80010 	lw	t0,16(sp)
9d00bdf8:	ac43a378 	sw	v1,-23688(v0)
9d00bdfc:	32420001 	andi	v0,s2,0x1
9d00be00:	02403825 	move	a3,s2
9d00be04:	0002a00b 	movn	s4,zero,v0
9d00be08:	8e02004c 	lw	v0,76(s0)
9d00be0c:	10400005 	beqz	v0,9d00be24 <__intscan+0x5e0>
9d00be10:	8fa20010 	lw	v0,16(sp)
9d00be14:	8e02003c 	lw	v0,60(s0)
9d00be18:	2442ffff 	addiu	v0,v0,-1
9d00be1c:	ae02003c 	sw	v0,60(s0)
9d00be20:	8fa20010 	lw	v0,16(sp)
9d00be24:	0102102b 	sltu	v0,t0,v0
9d00be28:	1440003b 	bnez	v0,9d00bf18 <__intscan+0x6d4>
9d00be2c:	8fa20010 	lw	v0,16(sp)
9d00be30:	14480003 	bne	v0,t0,9d00be40 <__intscan+0x5fc>
9d00be34:	00f2102b 	sltu	v0,a3,s2
9d00be38:	14400038 	bnez	v0,9d00bf1c <__intscan+0x6d8>
9d00be3c:	2402ffff 	li	v0,-1
9d00be40:	32420001 	andi	v0,s2,0x1
9d00be44:	14400027 	bnez	v0,9d00bee4 <__intscan+0x6a0>
9d00be48:	8fa20010 	lw	v0,16(sp)
9d00be4c:	16800024 	bnez	s4,9d00bee0 <__intscan+0x69c>
9d00be50:	3c02a001 	lui	v0,0xa001
9d00be54:	24030022 	li	v1,34
9d00be58:	ac43a378 	sw	v1,-23688(v0)
9d00be5c:	8fa20010 	lw	v0,16(sp)
9d00be60:	2647ffff 	addiu	a3,s2,-1
9d00be64:	00f2902b 	sltu	s2,a3,s2
9d00be68:	2451ffff 	addiu	s1,v0,-1
9d00be6c:	1000fee7 	b	9d00ba0c <__intscan+0x1c8>
9d00be70:	02514021 	addu	t0,s2,s1
9d00be74:	0f404aa5 	jal	9d012a94 <__shgetc>
9d00be78:	02002025 	move	a0,s0
9d00be7c:	1000ffa5 	b	9d00bd14 <__intscan+0x4d0>
9d00be80:	00404825 	move	t1,v0
9d00be84:	3c16071c 	lui	s6,0x71c
9d00be88:	0000a825 	move	s5,zero
9d00be8c:	1000ffa3 	b	9d00bd1c <__intscan+0x4d8>
9d00be90:	26d671c7 	addiu	s6,s6,29127
9d00be94:	8e02003c 	lw	v0,60(s0)
9d00be98:	8e03004c 	lw	v1,76(s0)
9d00be9c:	0043182b 	sltu	v1,v0,v1
9d00bea0:	10600007 	beqz	v1,9d00bec0 <__intscan+0x67c>
9d00bea4:	24430001 	addiu	v1,v0,1
9d00bea8:	ae03003c 	sw	v1,60(s0)
9d00beac:	90490000 	lbu	t1,0(v0)
9d00beb0:	02b63821 	addu	a3,s5,s6
9d00beb4:	00f6402b 	sltu	t0,a3,s6
9d00beb8:	1000ffa2 	b	9d00bd44 <__intscan+0x500>
9d00bebc:	01174021 	addu	t0,t0,s7
9d00bec0:	0f404aa5 	jal	9d012a94 <__shgetc>
9d00bec4:	02002025 	move	a0,s0
9d00bec8:	1000fff9 	b	9d00beb0 <__intscan+0x66c>
9d00becc:	00404825 	move	t1,v0
9d00bed0:	0f404aa5 	jal	9d012a94 <__shgetc>
9d00bed4:	02002025 	move	a0,s0
9d00bed8:	1000ffc1 	b	9d00bde0 <__intscan+0x59c>
9d00bedc:	02621021 	addu	v0,s3,v0
9d00bee0:	8fa20010 	lw	v0,16(sp)
9d00bee4:	0048102b 	sltu	v0,v0,t0
9d00bee8:	14400005 	bnez	v0,9d00bf00 <__intscan+0x6bc>
9d00beec:	8fa20010 	lw	v0,16(sp)
9d00bef0:	15020009 	bne	t0,v0,9d00bf18 <__intscan+0x6d4>
9d00bef4:	0247102b 	sltu	v0,s2,a3
9d00bef8:	10400008 	beqz	v0,9d00bf1c <__intscan+0x6d8>
9d00befc:	2402ffff 	li	v0,-1
9d00bf00:	3c02a001 	lui	v0,0xa001
9d00bf04:	24030022 	li	v1,34
9d00bf08:	ac43a378 	sw	v1,-23688(v0)
9d00bf0c:	02403825 	move	a3,s2
9d00bf10:	1000febe 	b	9d00ba0c <__intscan+0x1c8>
9d00bf14:	8fa80010 	lw	t0,16(sp)
9d00bf18:	2402ffff 	li	v0,-1
9d00bf1c:	1682febc 	bne	s4,v0,9d00ba10 <__intscan+0x1cc>
9d00bf20:	8fbf0044 	lw	ra,68(sp)
9d00bf24:	00073823 	negu	a3,a3
9d00bf28:	0007102b 	sltu	v0,zero,a3
9d00bf2c:	00084023 	negu	t0,t0
9d00bf30:	1000feb7 	b	9d00ba10 <__intscan+0x1cc>
9d00bf34:	01024023 	subu	t0,t0,v0
9d00bf38:	1660feb4 	bnez	s3,9d00ba0c <__intscan+0x1c8>
9d00bf3c:	00004025 	move	t0,zero
9d00bf40:	1000fecb 	b	9d00ba70 <__intscan+0x22c>
9d00bf44:	00002825 	move	a1,zero
9d00bf48:	1122fe8f 	beq	t1,v0,9d00b988 <__intscan+0x144>
9d00bf4c:	3c029d01 	lui	v0,0x9d01
9d00bf50:	1000fe72 	b	9d00b91c <__intscan+0xd8>
9d00bf54:	24421f21 	addiu	v0,v0,7969

Disassembly of section .text.__printf_core:

9d00bf58 <__printf_core>:
9d00bf58:	27bdff18 	addiu	sp,sp,-232
9d00bf5c:	afb500d8 	sw	s5,216(sp)
9d00bf60:	3c159d00 	lui	s5,0x9d00
9d00bf64:	afb600dc 	sw	s6,220(sp)
9d00bf68:	afb400d4 	sw	s4,212(sp)
9d00bf6c:	afb300d0 	sw	s3,208(sp)
9d00bf70:	afb200cc 	sw	s2,204(sp)
9d00bf74:	afb100c8 	sw	s1,200(sp)
9d00bf78:	afbf00e4 	sw	ra,228(sp)
9d00bf7c:	afb700e0 	sw	s7,224(sp)
9d00bf80:	afb000c4 	sw	s0,196(sp)
9d00bf84:	00809025 	move	s2,a0
9d00bf88:	00c08825 	move	s1,a2
9d00bf8c:	afa500b0 	sw	a1,176(sp)
9d00bf90:	00009825 	move	s3,zero
9d00bf94:	27b60010 	addiu	s6,sp,16
9d00bf98:	24140025 	li	s4,37
9d00bf9c:	26b57578 	addiu	s5,s5,30072
9d00bfa0:	8fa500b0 	lw	a1,176(sp)
9d00bfa4:	80a20000 	lb	v0,0(a1)
9d00bfa8:	104000e0 	beqz	v0,9d00c32c <__printf_core+0x3d4>
9d00bfac:	2402ffff 	li	v0,-1
9d00bfb0:	afa20094 	sw	v0,148(sp)
9d00bfb4:	24020080 	li	v0,128
9d00bfb8:	afa00090 	sw	zero,144(sp)
9d00bfbc:	afa00098 	sw	zero,152(sp)
9d00bfc0:	afb6009c 	sw	s6,156(sp)
9d00bfc4:	afa200a0 	sw	v0,160(sp)
9d00bfc8:	00008025 	move	s0,zero
9d00bfcc:	00b01021 	addu	v0,a1,s0
9d00bfd0:	80420000 	lb	v0,0(v0)
9d00bfd4:	10400003 	beqz	v0,9d00bfe4 <__printf_core+0x8c>
9d00bfd8:	00000000 	nop
9d00bfdc:	5454fffb 	bnel	v0,s4,9d00bfcc <__printf_core+0x74>
9d00bfe0:	26100001 	addiu	s0,s0,1
9d00bfe4:	12000006 	beqz	s0,9d00c000 <__printf_core+0xa8>
9d00bfe8:	02003025 	move	a2,s0
9d00bfec:	0f404d57 	jal	9d01355c <__out>
9d00bff0:	02402025 	move	a0,s2
9d00bff4:	8fa200b0 	lw	v0,176(sp)
9d00bff8:	00501021 	addu	v0,v0,s0
9d00bffc:	afa200b0 	sw	v0,176(sp)
9d00c000:	8fb700b0 	lw	s7,176(sp)
9d00c004:	82e20000 	lb	v0,0(s7)
9d00c008:	145400c1 	bne	v0,s4,9d00c310 <__printf_core+0x3b8>
9d00c00c:	26f70001 	addiu	s7,s7,1
9d00c010:	afb700b0 	sw	s7,176(sp)
9d00c014:	2405002b 	li	a1,43
9d00c018:	2406002d 	li	a2,45
9d00c01c:	24030030 	li	v1,48
9d00c020:	24070020 	li	a3,32
9d00c024:	24080023 	li	t0,35
9d00c028:	8fa400b0 	lw	a0,176(sp)
9d00c02c:	80820000 	lb	v0,0(a0)
9d00c030:	5045001b 	beql	v0,a1,9d00c0a0 <__printf_core+0x148>
9d00c034:	8fa20090 	lw	v0,144(sp)
9d00c038:	2849002c 	slti	t1,v0,44
9d00c03c:	1120001e 	beqz	t1,9d00c0b8 <__printf_core+0x160>
9d00c040:	00000000 	nop
9d00c044:	50470018 	beql	v0,a3,9d00c0a8 <__printf_core+0x150>
9d00c048:	8fa20090 	lw	v0,144(sp)
9d00c04c:	50480018 	beql	v0,t0,9d00c0b0 <__printf_core+0x158>
9d00c050:	8fa20090 	lw	v0,144(sp)
9d00c054:	2403002a 	li	v1,42
9d00c058:	5043001e 	beql	v0,v1,9d00c0d4 <__printf_core+0x17c>
9d00c05c:	8e220000 	lw	v0,0(s1)
9d00c060:	0f404e84 	jal	9d013a10 <atoi>
9d00c064:	00000000 	nop
9d00c068:	afa20098 	sw	v0,152(sp)
9d00c06c:	8fa300b0 	lw	v1,176(sp)
9d00c070:	80620000 	lb	v0,0(v1)
9d00c074:	2442ffd0 	addiu	v0,v0,-48
9d00c078:	2c42000a 	sltiu	v0,v0,10
9d00c07c:	10400021 	beqz	v0,9d00c104 <__printf_core+0x1ac>
9d00c080:	24630001 	addiu	v1,v1,1
9d00c084:	1000fff9 	b	9d00c06c <__printf_core+0x114>
9d00c088:	afa300b0 	sw	v1,176(sp)
9d00c08c:	34420001 	ori	v0,v0,0x1
9d00c090:	24840001 	addiu	a0,a0,1
9d00c094:	afa20090 	sw	v0,144(sp)
9d00c098:	1000ffe3 	b	9d00c028 <__printf_core+0xd0>
9d00c09c:	afa400b0 	sw	a0,176(sp)
9d00c0a0:	1000fffb 	b	9d00c090 <__printf_core+0x138>
9d00c0a4:	34420004 	ori	v0,v0,0x4
9d00c0a8:	1000fff9 	b	9d00c090 <__printf_core+0x138>
9d00c0ac:	34420008 	ori	v0,v0,0x8
9d00c0b0:	1000fff7 	b	9d00c090 <__printf_core+0x138>
9d00c0b4:	34420010 	ori	v0,v0,0x10
9d00c0b8:	5046fff4 	beql	v0,a2,9d00c08c <__printf_core+0x134>
9d00c0bc:	8fa20090 	lw	v0,144(sp)
9d00c0c0:	5443ffe5 	bnel	v0,v1,9d00c058 <__printf_core+0x100>
9d00c0c4:	2403002a 	li	v1,42
9d00c0c8:	8fa20090 	lw	v0,144(sp)
9d00c0cc:	1000fff0 	b	9d00c090 <__printf_core+0x138>
9d00c0d0:	34420002 	ori	v0,v0,0x2
9d00c0d4:	24840001 	addiu	a0,a0,1
9d00c0d8:	afa400b0 	sw	a0,176(sp)
9d00c0dc:	24430004 	addiu	v1,v0,4
9d00c0e0:	8c420000 	lw	v0,0(v0)
9d00c0e4:	ae230000 	sw	v1,0(s1)
9d00c0e8:	04410006 	bgez	v0,9d00c104 <__printf_core+0x1ac>
9d00c0ec:	afa20098 	sw	v0,152(sp)
9d00c0f0:	8fa30090 	lw	v1,144(sp)
9d00c0f4:	00021023 	negu	v0,v0
9d00c0f8:	afa20098 	sw	v0,152(sp)
9d00c0fc:	38630001 	xori	v1,v1,0x1
9d00c100:	afa30090 	sw	v1,144(sp)
9d00c104:	8fa20090 	lw	v0,144(sp)
9d00c108:	30430001 	andi	v1,v0,0x1
9d00c10c:	10600002 	beqz	v1,9d00c118 <__printf_core+0x1c0>
9d00c110:	7c020844 	ins	v0,zero,0x1,0x1
9d00c114:	afa20090 	sw	v0,144(sp)
9d00c118:	8fa200b0 	lw	v0,176(sp)
9d00c11c:	2403002e 	li	v1,46
9d00c120:	80440000 	lb	a0,0(v0)
9d00c124:	1483000d 	bne	a0,v1,9d00c15c <__printf_core+0x204>
9d00c128:	24440001 	addiu	a0,v0,1
9d00c12c:	afa00094 	sw	zero,148(sp)
9d00c130:	afa400b0 	sw	a0,176(sp)
9d00c134:	80450001 	lb	a1,1(v0)
9d00c138:	2403002a 	li	v1,42
9d00c13c:	14a30023 	bne	a1,v1,9d00c1cc <__printf_core+0x274>
9d00c140:	24420002 	addiu	v0,v0,2
9d00c144:	afa200b0 	sw	v0,176(sp)
9d00c148:	8e220000 	lw	v0,0(s1)
9d00c14c:	24430004 	addiu	v1,v0,4
9d00c150:	8c420000 	lw	v0,0(v0)
9d00c154:	ae230000 	sw	v1,0(s1)
9d00c158:	afa20094 	sw	v0,148(sp)
9d00c15c:	0f405069 	jal	9d0141a4 <__fmt_state>
9d00c160:	27a400b0 	addiu	a0,sp,176
9d00c164:	afa200b8 	sw	v0,184(sp)
9d00c168:	8fa200b0 	lw	v0,176(sp)
9d00c16c:	0f40538f 	jal	9d014e3c <tolower>
9d00c170:	80440000 	lb	a0,0(v0)
9d00c174:	24030069 	li	v1,105
9d00c178:	10430078 	beq	v0,v1,9d00c35c <__printf_core+0x404>
9d00c17c:	8fa500b8 	lw	a1,184(sp)
9d00c180:	2843006a 	slti	v1,v0,106
9d00c184:	1060002e 	beqz	v1,9d00c240 <__printf_core+0x2e8>
9d00c188:	24030063 	li	v1,99
9d00c18c:	104300bc 	beq	v0,v1,9d00c480 <__printf_core+0x528>
9d00c190:	28430064 	slti	v1,v0,100
9d00c194:	10600018 	beqz	v1,9d00c1f8 <__printf_core+0x2a0>
9d00c198:	24030064 	li	v1,100
9d00c19c:	105400c5 	beq	v0,s4,9d00c4b4 <__printf_core+0x55c>
9d00c1a0:	24030061 	li	v1,97
9d00c1a4:	5043004e 	beql	v0,v1,9d00c2e0 <__printf_core+0x388>
9d00c1a8:	02203025 	move	a2,s1
9d00c1ac:	24020025 	li	v0,37
9d00c1b0:	a3a200a8 	sb	v0,168(sp)
9d00c1b4:	2402ffff 	li	v0,-1
9d00c1b8:	afb700b0 	sw	s7,176(sp)
9d00c1bc:	afa00090 	sw	zero,144(sp)
9d00c1c0:	afa00098 	sw	zero,152(sp)
9d00c1c4:	100000b8 	b	9d00c4a8 <__printf_core+0x550>
9d00c1c8:	afa20094 	sw	v0,148(sp)
9d00c1cc:	0f404e84 	jal	9d013a10 <atoi>
9d00c1d0:	00000000 	nop
9d00c1d4:	afa20094 	sw	v0,148(sp)
9d00c1d8:	8fa300b0 	lw	v1,176(sp)
9d00c1dc:	80620000 	lb	v0,0(v1)
9d00c1e0:	2442ffd0 	addiu	v0,v0,-48
9d00c1e4:	2c42000a 	sltiu	v0,v0,10
9d00c1e8:	1040ffdc 	beqz	v0,9d00c15c <__printf_core+0x204>
9d00c1ec:	24630001 	addiu	v1,v1,1
9d00c1f0:	1000fff9 	b	9d00c1d8 <__printf_core+0x280>
9d00c1f4:	afa300b0 	sw	v1,176(sp)
9d00c1f8:	10430058 	beq	v0,v1,9d00c35c <__printf_core+0x404>
9d00c1fc:	28420068 	slti	v0,v0,104
9d00c200:	1040ffeb 	beqz	v0,9d00c1b0 <__printf_core+0x258>
9d00c204:	24020025 	li	v0,37
9d00c208:	02203025 	move	a2,s1
9d00c20c:	0f4050d5 	jal	9d014354 <__pop_float>
9d00c210:	27a400a8 	addiu	a0,sp,168
9d00c214:	10400096 	beqz	v0,9d00c470 <__printf_core+0x518>
9d00c218:	8fa200b0 	lw	v0,176(sp)
9d00c21c:	27a600a8 	addiu	a2,sp,168
9d00c220:	27a50090 	addiu	a1,sp,144
9d00c224:	24430001 	addiu	v1,v0,1
9d00c228:	afa300b0 	sw	v1,176(sp)
9d00c22c:	80470000 	lb	a3,0(v0)
9d00c230:	0f40265f 	jal	9d00997c <__fmt_fp>
9d00c234:	02402025 	move	a0,s2
9d00c238:	10000035 	b	9d00c310 <__printf_core+0x3b8>
9d00c23c:	02028021 	addu	s0,s0,v0
9d00c240:	24030070 	li	v1,112
9d00c244:	10430070 	beq	v0,v1,9d00c408 <__printf_core+0x4b0>
9d00c248:	28430071 	slti	v1,v0,113
9d00c24c:	10600013 	beqz	v1,9d00c29c <__printf_core+0x344>
9d00c250:	2403006e 	li	v1,110
9d00c254:	10430082 	beq	v0,v1,9d00c460 <__printf_core+0x508>
9d00c258:	2403006f 	li	v1,111
9d00c25c:	1443ffd4 	bne	v0,v1,9d00c1b0 <__printf_core+0x258>
9d00c260:	24020025 	li	v0,37
9d00c264:	02203825 	move	a3,s1
9d00c268:	00003025 	move	a2,zero
9d00c26c:	0f4041e2 	jal	9d010788 <__pop_int>
9d00c270:	27a400a8 	addiu	a0,sp,168
9d00c274:	1040007e 	beqz	v0,9d00c470 <__printf_core+0x518>
9d00c278:	8fa200b0 	lw	v0,176(sp)
9d00c27c:	27a600a8 	addiu	a2,sp,168
9d00c280:	27a50090 	addiu	a1,sp,144
9d00c284:	24420001 	addiu	v0,v0,1
9d00c288:	02402025 	move	a0,s2
9d00c28c:	0f4048cb 	jal	9d01232c <__fmt_o>
9d00c290:	afa200b0 	sw	v0,176(sp)
9d00c294:	1000001e 	b	9d00c310 <__printf_core+0x3b8>
9d00c298:	02028021 	addu	s0,s0,v0
9d00c29c:	24030075 	li	v1,117
9d00c2a0:	1043003c 	beq	v0,v1,9d00c394 <__printf_core+0x43c>
9d00c2a4:	24030078 	li	v1,120
9d00c2a8:	10430048 	beq	v0,v1,9d00c3cc <__printf_core+0x474>
9d00c2ac:	24030073 	li	v1,115
9d00c2b0:	1443ffbe 	bne	v0,v1,9d00c1ac <__printf_core+0x254>
9d00c2b4:	24020080 	li	v0,128
9d00c2b8:	14a2006d 	bne	a1,v0,9d00c470 <__printf_core+0x518>
9d00c2bc:	8fa200b0 	lw	v0,176(sp)
9d00c2c0:	00003825 	move	a3,zero
9d00c2c4:	24420001 	addiu	v0,v0,1
9d00c2c8:	afa200b0 	sw	v0,176(sp)
9d00c2cc:	8e220000 	lw	v0,0(s1)
9d00c2d0:	24430004 	addiu	v1,v0,4
9d00c2d4:	ae230000 	sw	v1,0(s1)
9d00c2d8:	1000005a 	b	9d00c444 <__printf_core+0x4ec>
9d00c2dc:	8c460000 	lw	a2,0(v0)
9d00c2e0:	0f4050d5 	jal	9d014354 <__pop_float>
9d00c2e4:	27a400a8 	addiu	a0,sp,168
9d00c2e8:	10400061 	beqz	v0,9d00c470 <__printf_core+0x518>
9d00c2ec:	8fa200b0 	lw	v0,176(sp)
9d00c2f0:	27a600a8 	addiu	a2,sp,168
9d00c2f4:	27a50090 	addiu	a1,sp,144
9d00c2f8:	24430001 	addiu	v1,v0,1
9d00c2fc:	afa300b0 	sw	v1,176(sp)
9d00c300:	80470000 	lb	a3,0(v0)
9d00c304:	0f405422 	jal	9d015088 <__fmt_a>
9d00c308:	02402025 	move	a0,s2
9d00c30c:	02028021 	addu	s0,s0,v0
9d00c310:	02708021 	addu	s0,s3,s0
9d00c314:	0213982a 	slt	s3,s0,s3
9d00c318:	1260006d 	beqz	s3,9d00c4d0 <__printf_core+0x578>
9d00c31c:	3c02a001 	lui	v0,0xa001
9d00c320:	2403004f 	li	v1,79
9d00c324:	ac43a378 	sw	v1,-23688(v0)
9d00c328:	2413ffff 	li	s3,-1
9d00c32c:	8fbf00e4 	lw	ra,228(sp)
9d00c330:	02601025 	move	v0,s3
9d00c334:	8fb700e0 	lw	s7,224(sp)
9d00c338:	8fb600dc 	lw	s6,220(sp)
9d00c33c:	8fb500d8 	lw	s5,216(sp)
9d00c340:	8fb400d4 	lw	s4,212(sp)
9d00c344:	8fb300d0 	lw	s3,208(sp)
9d00c348:	8fb200cc 	lw	s2,204(sp)
9d00c34c:	8fb100c8 	lw	s1,200(sp)
9d00c350:	8fb000c4 	lw	s0,196(sp)
9d00c354:	03e00008 	jr	ra
9d00c358:	27bd00e8 	addiu	sp,sp,232
9d00c35c:	02203825 	move	a3,s1
9d00c360:	24060001 	li	a2,1
9d00c364:	0f4041e2 	jal	9d010788 <__pop_int>
9d00c368:	27a400a8 	addiu	a0,sp,168
9d00c36c:	10400040 	beqz	v0,9d00c470 <__printf_core+0x518>
9d00c370:	8fa200b0 	lw	v0,176(sp)
9d00c374:	27a600a8 	addiu	a2,sp,168
9d00c378:	27a50090 	addiu	a1,sp,144
9d00c37c:	24420001 	addiu	v0,v0,1
9d00c380:	02402025 	move	a0,s2
9d00c384:	0f404513 	jal	9d01144c <__fmt_d>
9d00c388:	afa200b0 	sw	v0,176(sp)
9d00c38c:	1000ffe0 	b	9d00c310 <__printf_core+0x3b8>
9d00c390:	02028021 	addu	s0,s0,v0
9d00c394:	02203825 	move	a3,s1
9d00c398:	00003025 	move	a2,zero
9d00c39c:	0f4041e2 	jal	9d010788 <__pop_int>
9d00c3a0:	27a400a8 	addiu	a0,sp,168
9d00c3a4:	10400032 	beqz	v0,9d00c470 <__printf_core+0x518>
9d00c3a8:	8fa200b0 	lw	v0,176(sp)
9d00c3ac:	27a600a8 	addiu	a2,sp,168
9d00c3b0:	27a50090 	addiu	a1,sp,144
9d00c3b4:	24420001 	addiu	v0,v0,1
9d00c3b8:	02402025 	move	a0,s2
9d00c3bc:	0f404a48 	jal	9d012920 <__fmt_u>
9d00c3c0:	afa200b0 	sw	v0,176(sp)
9d00c3c4:	1000ffd2 	b	9d00c310 <__printf_core+0x3b8>
9d00c3c8:	02028021 	addu	s0,s0,v0
9d00c3cc:	02203825 	move	a3,s1
9d00c3d0:	00003025 	move	a2,zero
9d00c3d4:	0f4041e2 	jal	9d010788 <__pop_int>
9d00c3d8:	27a400a8 	addiu	a0,sp,168
9d00c3dc:	10400024 	beqz	v0,9d00c470 <__printf_core+0x518>
9d00c3e0:	8fa200b0 	lw	v0,176(sp)
9d00c3e4:	24430001 	addiu	v1,v0,1
9d00c3e8:	afa300b0 	sw	v1,176(sp)
9d00c3ec:	80470000 	lb	a3,0(v0)
9d00c3f0:	27a600a8 	addiu	a2,sp,168
9d00c3f4:	27a50090 	addiu	a1,sp,144
9d00c3f8:	0f403f9f 	jal	9d00fe7c <__fmt_x>
9d00c3fc:	02402025 	move	a0,s2
9d00c400:	1000ffc3 	b	9d00c310 <__printf_core+0x3b8>
9d00c404:	02028021 	addu	s0,s0,v0
9d00c408:	02203825 	move	a3,s1
9d00c40c:	00003025 	move	a2,zero
9d00c410:	240500f0 	li	a1,240
9d00c414:	0f4041e2 	jal	9d010788 <__pop_int>
9d00c418:	27a400a8 	addiu	a0,sp,168
9d00c41c:	10400014 	beqz	v0,9d00c470 <__printf_core+0x518>
9d00c420:	8fa200b0 	lw	v0,176(sp)
9d00c424:	8fa300ac 	lw	v1,172(sp)
9d00c428:	24420001 	addiu	v0,v0,1
9d00c42c:	afa200b0 	sw	v0,176(sp)
9d00c430:	8fa200a8 	lw	v0,168(sp)
9d00c434:	00431025 	or	v0,v0,v1
9d00c438:	14400007 	bnez	v0,9d00c458 <__printf_core+0x500>
9d00c43c:	02a03025 	move	a2,s5
9d00c440:	00003825 	move	a3,zero
9d00c444:	27a50090 	addiu	a1,sp,144
9d00c448:	0f404bd4 	jal	9d012f50 <__fmt_s>
9d00c44c:	02402025 	move	a0,s2
9d00c450:	1000ffaf 	b	9d00c310 <__printf_core+0x3b8>
9d00c454:	02028021 	addu	s0,s0,v0
9d00c458:	1000ffe5 	b	9d00c3f0 <__printf_core+0x498>
9d00c45c:	24070078 	li	a3,120
9d00c460:	02203825 	move	a3,s1
9d00c464:	02703021 	addu	a2,s3,s0
9d00c468:	0f404944 	jal	9d012510 <__pop_ptr>
9d00c46c:	27a400a8 	addiu	a0,sp,168
9d00c470:	8fa200b0 	lw	v0,176(sp)
9d00c474:	24420001 	addiu	v0,v0,1
9d00c478:	1000ffa5 	b	9d00c310 <__printf_core+0x3b8>
9d00c47c:	afa200b0 	sw	v0,176(sp)
9d00c480:	24020080 	li	v0,128
9d00c484:	14a2fffa 	bne	a1,v0,9d00c470 <__printf_core+0x518>
9d00c488:	8fa200b0 	lw	v0,176(sp)
9d00c48c:	24420001 	addiu	v0,v0,1
9d00c490:	afa200b0 	sw	v0,176(sp)
9d00c494:	8e220000 	lw	v0,0(s1)
9d00c498:	24430004 	addiu	v1,v0,4
9d00c49c:	8c420000 	lw	v0,0(v0)
9d00c4a0:	ae230000 	sw	v1,0(s1)
9d00c4a4:	a3a200a8 	sb	v0,168(sp)
9d00c4a8:	24070001 	li	a3,1
9d00c4ac:	1000ffe5 	b	9d00c444 <__printf_core+0x4ec>
9d00c4b0:	27a600a8 	addiu	a2,sp,168
9d00c4b4:	24020080 	li	v0,128
9d00c4b8:	14a2ffed 	bne	a1,v0,9d00c470 <__printf_core+0x518>
9d00c4bc:	8fa200b0 	lw	v0,176(sp)
9d00c4c0:	a3b400a8 	sb	s4,168(sp)
9d00c4c4:	24420001 	addiu	v0,v0,1
9d00c4c8:	1000fff7 	b	9d00c4a8 <__printf_core+0x550>
9d00c4cc:	afa200b0 	sw	v0,176(sp)
9d00c4d0:	1000feb3 	b	9d00bfa0 <__printf_core+0x48>
9d00c4d4:	02009825 	move	s3,s0

Disassembly of section .text.dp32mul:

9d00c4d8 <__divdf3>:
9d00c4d8:	00055040 000a5542 00054ac0 00047d42     @P..BU...J..B}..
9d00c4e8:	012f4825 000442c0 3c0e8000 012e4825     %H/..B.....<%H..
9d00c4f8:	00076840 000d6d42 000762c0 00067d42     @h..Bm...b..B}..
9d00c508:	018f6025 00065ac0 018e6025 00a72826     %`...Z..%`..&(..
9d00c518:	00ae2824 254fffff 2de107fe 102000cb     $(....O%...-.. .
9d00c528:	00000000                                ....

9d00c52c <Dlab1>:
9d00c52c:	25afffff 	addiu	t7,t5,-1
9d00c530:	2de107fe 	sltiu	at,t7,2046
9d00c534:	102000f4 	beqz	at,9d00c908 <DspecB>
9d00c538:	00000000 	nop

9d00c53c <Dlab2>:
9d00c53c:	014d5023 	subu	t2,t2,t5
9d00c540:	254a03ff 	addiu	t2,t2,1023
9d00c544:	00084042 	srl	t0,t0,0x1
9d00c548:	00097fc0 	sll	t7,t1,0x1f
9d00c54c:	010f4025 	or	t0,t0,t7
9d00c550:	00094842 	srl	t1,t1,0x1
9d00c554:	000c3c02 	srl	a3,t4,0x10
9d00c558:	00e001f4 	teq	a3,zero,0x7
9d00c55c:	0127001b 	divu	zero,t1,a3
9d00c560:	00007012 	mflo	t6
9d00c564:	00004810 	mfhi	t1
9d00c568:	3186ffff 	andi	a2,t4,0xffff
9d00c56c:	00ce0019 	multu	a2,t6
9d00c570:	00002012 	mflo	a0
9d00c574:	00094c00 	sll	t1,t1,0x10
9d00c578:	00087c02 	srl	t7,t0,0x10
9d00c57c:	012f4825 	or	t1,t1,t7
9d00c580:	0124782b 	sltu	t7,t1,a0
9d00c584:	11e00006 	beqz	t7,9d00c5a0 <i20>
9d00c588:	01244823 	subu	t1,t1,a0

9d00c58c <b21>:
9d00c58c:	25ceffff 	addiu	t6,t6,-1
9d00c590:	012c4821 	addu	t1,t1,t4
9d00c594:	012c082b 	sltu	at,t1,t4
9d00c598:	1020fffc 	beqz	at,9d00c58c <b21>
9d00c59c:	00000000 	nop

9d00c5a0 <i20>:
9d00c5a0:	00e001f4 	teq	a3,zero,0x7
9d00c5a4:	0127001b 	divu	zero,t1,a3
9d00c5a8:	00003812 	mflo	a3
9d00c5ac:	00004810 	mfhi	t1
9d00c5b0:	00c70019 	multu	a2,a3
9d00c5b4:	00002012 	mflo	a0
9d00c5b8:	00094c00 	sll	t1,t1,0x10
9d00c5bc:	310fffff 	andi	t7,t0,0xffff
9d00c5c0:	012f4825 	or	t1,t1,t7
9d00c5c4:	0124782b 	sltu	t7,t1,a0
9d00c5c8:	11e00006 	beqz	t7,9d00c5e4 <i22>
9d00c5cc:	01244823 	subu	t1,t1,a0

9d00c5d0 <b23>:
9d00c5d0:	24e7ffff 	addiu	a3,a3,-1
9d00c5d4:	012c4821 	addu	t1,t1,t4
9d00c5d8:	012c082b 	sltu	at,t1,t4
9d00c5dc:	1020fffc 	beqz	at,9d00c5d0 <b23>
9d00c5e0:	00000000 	nop

9d00c5e4 <i22>:
9d00c5e4:	000e7400 	sll	t6,t6,0x10
9d00c5e8:	01c77021 	addu	t6,t6,a3
9d00c5ec:	01cb0019 	multu	t6,t3
9d00c5f0:	00003812 	mflo	a3
9d00c5f4:	00002010 	mfhi	a0
9d00c5f8:	24080000 	li	t0,0
9d00c5fc:	0107782b 	sltu	t7,t0,a3
9d00c600:	01074023 	subu	t0,t0,a3
9d00c604:	012f102b 	sltu	v0,t1,t7
9d00c608:	012f4823 	subu	t1,t1,t7
9d00c60c:	0124782b 	sltu	t7,t1,a0
9d00c610:	01e27825 	or	t7,t7,v0
9d00c614:	11e0000b 	beqz	t7,9d00c644 <i24>
9d00c618:	01244823 	subu	t1,t1,a0

9d00c61c <Dlab3>:
9d00c61c:	25ceffff 	addiu	t6,t6,-1
9d00c620:	010b4021 	addu	t0,t0,t3
9d00c624:	010b782b 	sltu	t7,t0,t3
9d00c628:	012c4821 	addu	t1,t1,t4
9d00c62c:	012f4821 	addu	t1,t1,t7
9d00c630:	112c0002 	beq	t1,t4,9d00c63c <L31>
9d00c634:	00000000 	nop
9d00c638:	012c782b 	sltu	t7,t1,t4

9d00c63c <L31>:
9d00c63c:	11e0fff7 	beqz	t7,9d00c61c <Dlab3>
9d00c640:	00000000 	nop

9d00c644 <i24>:
9d00c644:	152c0006 	bne	t1,t4,9d00c660 <i25>
9d00c648:	00000000 	nop
9d00c64c:	000b2025 	or	a0,zero,t3
9d00c650:	00084825 	or	t1,zero,t0
9d00c654:	240d0000 	li	t5,0
9d00c658:	1000002a 	b	9d00c704 <e25>
9d00c65c:	000d3825 	or	a3,zero,t5

9d00c660 <i25>:
9d00c660:	000c3c02 	srl	a3,t4,0x10
9d00c664:	00e001f4 	teq	a3,zero,0x7
9d00c668:	0127001b 	divu	zero,t1,a3
9d00c66c:	00006812 	mflo	t5
9d00c670:	00004810 	mfhi	t1
9d00c674:	3186ffff 	andi	a2,t4,0xffff
9d00c678:	00cd0019 	multu	a2,t5
9d00c67c:	00002012 	mflo	a0
9d00c680:	00094c00 	sll	t1,t1,0x10
9d00c684:	00087c02 	srl	t7,t0,0x10
9d00c688:	012f4825 	or	t1,t1,t7
9d00c68c:	0124782b 	sltu	t7,t1,a0
9d00c690:	11e00006 	beqz	t7,9d00c6ac <i26>
9d00c694:	01244823 	subu	t1,t1,a0

9d00c698 <b27>:
9d00c698:	25adffff 	addiu	t5,t5,-1
9d00c69c:	012c4821 	addu	t1,t1,t4
9d00c6a0:	012c082b 	sltu	at,t1,t4
9d00c6a4:	1020fffc 	beqz	at,9d00c698 <b27>
9d00c6a8:	00000000 	nop

9d00c6ac <i26>:
9d00c6ac:	00e001f4 	teq	a3,zero,0x7
9d00c6b0:	0127001b 	divu	zero,t1,a3
9d00c6b4:	00003812 	mflo	a3
9d00c6b8:	00004810 	mfhi	t1
9d00c6bc:	00c70019 	multu	a2,a3
9d00c6c0:	00002012 	mflo	a0
9d00c6c4:	00094c00 	sll	t1,t1,0x10
9d00c6c8:	310fffff 	andi	t7,t0,0xffff
9d00c6cc:	012f4825 	or	t1,t1,t7
9d00c6d0:	0124782b 	sltu	t7,t1,a0
9d00c6d4:	11e00006 	beqz	t7,9d00c6f0 <i28>
9d00c6d8:	01244823 	subu	t1,t1,a0

9d00c6dc <b29>:
9d00c6dc:	24e7ffff 	addiu	a3,a3,-1
9d00c6e0:	012c4821 	addu	t1,t1,t4
9d00c6e4:	012c082b 	sltu	at,t1,t4
9d00c6e8:	1020fffc 	beqz	at,9d00c6dc <b29>
9d00c6ec:	00000000 	nop

9d00c6f0 <i28>:
9d00c6f0:	000d6c00 	sll	t5,t5,0x10
9d00c6f4:	01a76821 	addu	t5,t5,a3
9d00c6f8:	01ab0019 	multu	t5,t3
9d00c6fc:	00003812 	mflo	a3
9d00c700:	00002010 	mfhi	a0

9d00c704 <e25>:
9d00c704:	24080000 	li	t0,0
9d00c708:	0107782b 	sltu	t7,t0,a3
9d00c70c:	01074023 	subu	t0,t0,a3
9d00c710:	012f102b 	sltu	v0,t1,t7
9d00c714:	012f4823 	subu	t1,t1,t7
9d00c718:	0124782b 	sltu	t7,t1,a0
9d00c71c:	01e27825 	or	t7,t7,v0
9d00c720:	11e0000b 	beqz	t7,9d00c750 <i30>
9d00c724:	01244823 	subu	t1,t1,a0

9d00c728 <Dlab4>:
9d00c728:	25adffff 	addiu	t5,t5,-1
9d00c72c:	010b4021 	addu	t0,t0,t3
9d00c730:	010b782b 	sltu	t7,t0,t3
9d00c734:	012c4821 	addu	t1,t1,t4
9d00c738:	012f4821 	addu	t1,t1,t7
9d00c73c:	112c0002 	beq	t1,t4,9d00c748 <L32>
9d00c740:	00000000 	nop
9d00c744:	012c782b 	sltu	t7,t1,t4

9d00c748 <L32>:
9d00c748:	11e0fff7 	beqz	t7,9d00c728 <Dlab4>
9d00c74c:	00000000 	nop

9d00c750 <i30>:
9d00c750:	05c00006 	bltz	t6,9d00c76c <i31>
9d00c754:	00000000 	nop
9d00c758:	01a0782a 	slt	t7,t5,zero
9d00c75c:	01ad6821 	addu	t5,t5,t5
9d00c760:	01ce7021 	addu	t6,t6,t6
9d00c764:	01cf7021 	addu	t6,t6,t7
9d00c768:	254affff 	addiu	t2,t2,-1

9d00c76c <i31>:
9d00c76c:	01287825 	or	t7,t1,t0
9d00c770:	11e00002 	beqz	t7,9d00c77c <i32>
9d00c774:	00000000 	nop
9d00c778:	35ad0001 	ori	t5,t5,0x1

9d00c77c <i32>:
9d00c77c:	000e4825 	or	t1,zero,t6
9d00c780:	000d4025 	or	t0,zero,t5
9d00c784:	254fffff 	addiu	t7,t2,-1
9d00c788:	2de107fe 	sltiu	at,t7,2046
9d00c78c:	10200015 	beqz	at,9d00c7e4 <Doveund>
9d00c790:	00000000 	nop
9d00c794:	25080400 	addiu	t0,t0,1024
9d00c798:	2d0f0400 	sltiu	t7,t0,1024
9d00c79c:	012f4821 	addu	t1,t1,t7
9d00c7a0:	012f782b 	sltu	t7,t1,t7
9d00c7a4:	014f5021 	addu	t2,t2,t7

9d00c7a8 <Dlab8>:
9d00c7a8:	00087ac2 	srl	t7,t0,0xb
9d00c7ac:	31ef0001 	andi	t7,t7,0x1
9d00c7b0:	010f4023 	subu	t0,t0,t7
9d00c7b4:	000822c2 	srl	a0,t0,0xb
9d00c7b8:	00097d40 	sll	t7,t1,0x15
9d00c7bc:	008f2025 	or	a0,a0,t7
9d00c7c0:	00097840 	sll	t7,t1,0x1
9d00c7c4:	000f7b02 	srl	t7,t7,0xc
9d00c7c8:	00af2825 	or	a1,a1,t7
9d00c7cc:	000a7d00 	sll	t7,t2,0x14
9d00c7d0:	00af2825 	or	a1,a1,t7

9d00c7d4 <Dret>:
9d00c7d4:	00041025 	or	v0,zero,a0
9d00c7d8:	00051825 	or	v1,zero,a1

9d00c7dc <D999>:
9d00c7dc:	03e00008 	jr	ra
9d00c7e0:	00000000 	nop

9d00c7e4 <Doveund>:
9d00c7e4:	1d400044 	bgtz	t2,9d00c8f8 <Dinf>
9d00c7e8:	00000000 	nop
9d00c7ec:	240e0001 	li	t6,1
9d00c7f0:	01ca7023 	subu	t6,t6,t2

9d00c7f4 <L33>:
9d00c7f4:	2dc10020 	sltiu	at,t6,32
9d00c7f8:	14200007 	bnez	at,9d00c818 <L34>
9d00c7fc:	00000000 	nop
9d00c800:	21ceffe0 	addi	t6,t6,-32
9d00c804:	0008202b 	sltu	a0,zero,t0
9d00c808:	1009000d 	beq	zero,t1,9d00c840 <L35>
9d00c80c:	01244025 	or	t0,t1,a0
9d00c810:	1000fff8 	b	9d00c7f4 <L33>
9d00c814:	34090000 	li	t1,0x0

9d00c818 <L34>:
9d00c818:	11c00009 	beqz	t6,9d00c840 <L35>
9d00c81c:	00000000 	nop
9d00c820:	000e3022 	neg	a2,t6
9d00c824:	00c82004 	sllv	a0,t0,a2
9d00c828:	00c93004 	sllv	a2,t1,a2
9d00c82c:	01c84006 	srlv	t0,t0,t6
9d00c830:	01c94806 	srlv	t1,t1,t6
9d00c834:	10800002 	beqz	a0,9d00c840 <L35>
9d00c838:	00c84025 	or	t0,a2,t0
9d00c83c:	35080002 	ori	t0,t0,0x2

9d00c840 <L35>:
9d00c840:	25080400 	addiu	t0,t0,1024
9d00c844:	2d0f0400 	sltiu	t7,t0,1024
9d00c848:	012f4821 	addu	t1,t1,t7
9d00c84c:	1000ffd6 	b	9d00c7a8 <Dlab8>
9d00c850:	000957c2 	srl	t2,t1,0x1f

9d00c854 <DspecA>:
9d00c854:	0100782a 	slt	t7,t0,zero
9d00c858:	01084021 	addu	t0,t0,t0
9d00c85c:	01294821 	addu	t1,t1,t1
9d00c860:	15400017 	bnez	t2,9d00c8c0 <i33>
9d00c864:	012f4821 	addu	t1,t1,t7
9d00c868:	01287825 	or	t7,t1,t0
9d00c86c:	11e00014 	beqz	t7,9d00c8c0 <i33>
9d00c870:	00000000 	nop
9d00c874:	15200008 	bnez	t1,9d00c898 <L36>
9d00c878:	00000000 	nop
9d00c87c:	15000003 	bnez	t0,9d00c88c <L37>
9d00c880:	00000000 	nop
9d00c884:	1000ff29 	b	9d00c52c <Dlab1>
9d00c888:	240a0000 	li	t2,0

9d00c88c <L37>:
9d00c88c:	01004825 	move	t1,t0
9d00c890:	24080000 	li	t0,0
9d00c894:	254affe0 	addiu	t2,t2,-32

9d00c898 <L36>:
9d00c898:	712e7020 	clz	t6,t1
9d00c89c:	11c0ff23 	beqz	t6,9d00c52c <Dlab1>
9d00c8a0:	00000000 	nop
9d00c8a4:	014e5023 	subu	t2,t2,t6
9d00c8a8:	000e3022 	neg	a2,t6
9d00c8ac:	00c83006 	srlv	a2,t0,a2
9d00c8b0:	01c84004 	sllv	t0,t0,t6
9d00c8b4:	01c94804 	sllv	t1,t1,t6
9d00c8b8:	1000ff1c 	b	9d00c52c <Dlab1>
9d00c8bc:	01264825 	or	t1,t1,a2

9d00c8c0 <i33>:
9d00c8c0:	154d0005 	bne	t2,t5,9d00c8d8 <i35>
9d00c8c4:	00000000 	nop
9d00c8c8:	000c7840 	sll	t7,t4,0x1
9d00c8cc:	01eb7825 	or	t7,t7,t3
9d00c8d0:	11e0002b 	beqz	t7,9d00c980 <Dnan>
9d00c8d4:	00000000 	nop

9d00c8d8 <i35>:
9d00c8d8:	240107ff 	li	at,2047
9d00c8dc:	11a1000a 	beq	t5,at,9d00c908 <DspecB>
9d00c8e0:	00000000 	nop
9d00c8e4:	1140ffbb 	beqz	t2,9d00c7d4 <Dret>
9d00c8e8:	00000000 	nop
9d00c8ec:	01287825 	or	t7,t1,t0
9d00c8f0:	15e00023 	bnez	t7,9d00c980 <Dnan>
9d00c8f4:	00000000 	nop

9d00c8f8 <Dinf>:
9d00c8f8:	3c017ff0 	lui	at,0x7ff0
9d00c8fc:	00a12825 	or	a1,a1,at
9d00c900:	1000ffb4 	b	9d00c7d4 <Dret>
9d00c904:	24040000 	li	a0,0

9d00c908 <DspecB>:
9d00c908:	0160782a 	slt	t7,t3,zero
9d00c90c:	016b5821 	addu	t3,t3,t3
9d00c910:	018c6021 	addu	t4,t4,t4
9d00c914:	15a00017 	bnez	t5,9d00c974 <i36>
9d00c918:	018f6021 	addu	t4,t4,t7
9d00c91c:	018b7825 	or	t7,t4,t3
9d00c920:	11e0fff5 	beqz	t7,9d00c8f8 <Dinf>
9d00c924:	00000000 	nop
9d00c928:	15800008 	bnez	t4,9d00c94c <L39>
9d00c92c:	00000000 	nop
9d00c930:	15600003 	bnez	t3,9d00c940 <L40>
9d00c934:	00000000 	nop
9d00c938:	1000ff00 	b	9d00c53c <Dlab2>
9d00c93c:	240d0000 	li	t5,0

9d00c940 <L40>:
9d00c940:	01606025 	move	t4,t3
9d00c944:	240b0000 	li	t3,0
9d00c948:	25adffe0 	addiu	t5,t5,-32

9d00c94c <L39>:
9d00c94c:	718e7020 	clz	t6,t4
9d00c950:	11c0fefa 	beqz	t6,9d00c53c <Dlab2>
9d00c954:	00000000 	nop
9d00c958:	01ae6823 	subu	t5,t5,t6
9d00c95c:	000e3022 	neg	a2,t6
9d00c960:	00cb3006 	srlv	a2,t3,a2
9d00c964:	01cb5804 	sllv	t3,t3,t6
9d00c968:	01cc6004 	sllv	t4,t4,t6
9d00c96c:	1000fef3 	b	9d00c53c <Dlab2>
9d00c970:	01866025 	or	t4,t4,a2

9d00c974 <i36>:
9d00c974:	018b7825 	or	t7,t4,t3
9d00c978:	11e00002 	beqz	t7,9d00c984 <i38>
9d00c97c:	00000000 	nop

9d00c980 <Dnan>:
9d00c980:	3c05fff8 	lui	a1,0xfff8

9d00c984 <i38>:
9d00c984:	1000ff93 	b	9d00c7d4 <Dret>
9d00c988:	24040000 	li	a0,0
9d00c98c:	00000000 	nop

Disassembly of section .text:

9d00c990 <position_controller>:
int N = 0;




void __ISR(_TIMER_4_VECTOR, IPL6SOFT) position_controller(void) {
9d00c990:	415de800 	rdpgpr	sp,sp
9d00c994:	401a7000 	mfc0	k0,c0_epc
9d00c998:	401b6000 	mfc0	k1,c0_status
9d00c99c:	27bdff70 	addiu	sp,sp,-144
9d00c9a0:	afba008c 	sw	k0,140(sp)
9d00c9a4:	401a6002 	mfc0	k0,c0_srsctl
9d00c9a8:	afbb0088 	sw	k1,136(sp)
9d00c9ac:	afba0084 	sw	k0,132(sp)
9d00c9b0:	7c1b7844 	ins	k1,zero,0x1,0xf
9d00c9b4:	377b1800 	ori	k1,k1,0x1800
9d00c9b8:	409b6000 	mtc0	k1,c0_status
9d00c9bc:	afbf0074 	sw	ra,116(sp)
9d00c9c0:	afbe0070 	sw	s8,112(sp)
9d00c9c4:	afb9006c 	sw	t9,108(sp)
9d00c9c8:	afb80068 	sw	t8,104(sp)
9d00c9cc:	afb60064 	sw	s6,100(sp)
9d00c9d0:	afb50060 	sw	s5,96(sp)
9d00c9d4:	afb4005c 	sw	s4,92(sp)
9d00c9d8:	afb30058 	sw	s3,88(sp)
9d00c9dc:	afb20054 	sw	s2,84(sp)
9d00c9e0:	afb10050 	sw	s1,80(sp)
9d00c9e4:	afb0004c 	sw	s0,76(sp)
9d00c9e8:	afaf0048 	sw	t7,72(sp)
9d00c9ec:	afae0044 	sw	t6,68(sp)
9d00c9f0:	afad0040 	sw	t5,64(sp)
9d00c9f4:	afac003c 	sw	t4,60(sp)
9d00c9f8:	afab0038 	sw	t3,56(sp)
9d00c9fc:	afaa0034 	sw	t2,52(sp)
9d00ca00:	afa90030 	sw	t1,48(sp)
9d00ca04:	afa8002c 	sw	t0,44(sp)
9d00ca08:	afa70028 	sw	a3,40(sp)
9d00ca0c:	afa60024 	sw	a2,36(sp)
9d00ca10:	afa50020 	sw	a1,32(sp)
9d00ca14:	afa4001c 	sw	a0,28(sp)
9d00ca18:	afa30018 	sw	v1,24(sp)
9d00ca1c:	afa20014 	sw	v0,20(sp)
9d00ca20:	afa10010 	sw	at,16(sp)
9d00ca24:	00001012 	mflo	v0
9d00ca28:	afa2007c 	sw	v0,124(sp)
9d00ca2c:	00001810 	mfhi	v1
9d00ca30:	afa30078 	sw	v1,120(sp)
9d00ca34:	03a0f025 	move	s8,sp
  static float u = 0;       // forcing term
  static float unew = 0;
  static float r = 0;       // reference
  static int array_count = 0;
    
  switch (get_mode()) {
9d00ca38:	0f4053f0 	jal	9d014fc0 <get_mode>
9d00ca3c:	24110003 	li	s1,3
9d00ca40:	10510031 	beq	v0,s1,9d00cb08 <position_controller+0x178>
9d00ca44:	24110004 	li	s1,4
9d00ca48:	10510068 	beq	v0,s1,9d00cbec <position_controller+0x25c>
9d00ca4c:	8f828048 	lw	v0,-32696(gp)
    }
    break;
  }
  }
  // insert line to clear interrupt flag
  IFS0bits.T4IF = 0;
9d00ca50:	3c10bf88 	lui	s0,0xbf88
9d00ca54:	8e111030 	lw	s1,4144(s0)
9d00ca58:	7c119cc4 	ins	s1,zero,0x13,0x1
9d00ca5c:	ae111030 	sw	s1,4144(s0)
}
9d00ca60:	03c0e825 	move	sp,s8
9d00ca64:	8fa2007c 	lw	v0,124(sp)
9d00ca68:	00400013 	mtlo	v0
9d00ca6c:	8fa30078 	lw	v1,120(sp)
9d00ca70:	00600011 	mthi	v1
9d00ca74:	8fbf0074 	lw	ra,116(sp)
9d00ca78:	8fbe0070 	lw	s8,112(sp)
9d00ca7c:	8fb9006c 	lw	t9,108(sp)
9d00ca80:	8fb80068 	lw	t8,104(sp)
9d00ca84:	8fb60064 	lw	s6,100(sp)
9d00ca88:	8fb50060 	lw	s5,96(sp)
9d00ca8c:	8fb4005c 	lw	s4,92(sp)
9d00ca90:	8fb30058 	lw	s3,88(sp)
9d00ca94:	8fb20054 	lw	s2,84(sp)
9d00ca98:	8fb10050 	lw	s1,80(sp)
9d00ca9c:	8fb0004c 	lw	s0,76(sp)
9d00caa0:	8faf0048 	lw	t7,72(sp)
9d00caa4:	8fae0044 	lw	t6,68(sp)
9d00caa8:	8fad0040 	lw	t5,64(sp)
9d00caac:	8fac003c 	lw	t4,60(sp)
9d00cab0:	8fab0038 	lw	t3,56(sp)
9d00cab4:	8faa0034 	lw	t2,52(sp)
9d00cab8:	8fa90030 	lw	t1,48(sp)
9d00cabc:	8fa8002c 	lw	t0,44(sp)
9d00cac0:	8fa70028 	lw	a3,40(sp)
9d00cac4:	8fa60024 	lw	a2,36(sp)
9d00cac8:	8fa50020 	lw	a1,32(sp)
9d00cacc:	8fa4001c 	lw	a0,28(sp)
9d00cad0:	8fa30018 	lw	v1,24(sp)
9d00cad4:	8fa20014 	lw	v0,20(sp)
9d00cad8:	8fa10010 	lw	at,16(sp)
9d00cadc:	41606000 	di
9d00cae0:	000000c0 	ehb
9d00cae4:	8fba008c 	lw	k0,140(sp)
9d00cae8:	8fbb0088 	lw	k1,136(sp)
9d00caec:	409a7000 	mtc0	k0,c0_epc
9d00caf0:	8fba0084 	lw	k0,132(sp)
9d00caf4:	27bd0090 	addiu	sp,sp,144
9d00caf8:	409a6002 	mtc0	k0,c0_srsctl
9d00cafc:	41dde800 	wrpgpr	sp,sp
9d00cb00:	409b6000 	mtc0	k1,c0_status
9d00cb04:	42000018 	eret
    r = angle;
9d00cb08:	8f90805c 	lw	s0,-32676(gp)
    e = r - get_encoder_degrees();
9d00cb0c:	0f403930 	jal	9d00e4c0 <get_encoder_degrees>
9d00cb10:	af908050 	sw	s0,-32688(gp)
9d00cb14:	00402825 	move	a1,v0
9d00cb18:	0f403f01 	jal	9d00fc04 <__subsf3>
9d00cb1c:	02002025 	move	a0,s0
9d00cb20:	00408025 	move	s0,v0
    Eint = Eint + e;
9d00cb24:	8f858058 	lw	a1,-32680(gp)
9d00cb28:	0f403f03 	jal	9d00fc0c <__addsf3>
9d00cb2c:	00402025 	move	a0,v0
9d00cb30:	af828058 	sw	v0,-32680(gp)
    if (Eint > EINTMAX) { // ADDED: integrator anti-windup
9d00cb34:	8f848058 	lw	a0,-32680(gp)
9d00cb38:	3c029d00 	lui	v0,0x9d00
9d00cb3c:	0f404c76 	jal	9d0131d8 <__eqsf2>
9d00cb40:	8c457540 	lw	a1,30016(v0)
9d00cb44:	1840001f 	blez	v0,9d00cbc4 <position_controller+0x234>
9d00cb48:	3c029d00 	lui	v0,0x9d00
        Eint = EINTMAX;
9d00cb4c:	8c427540 	lw	v0,30016(v0)
9d00cb50:	af828058 	sw	v0,-32680(gp)
    u = kp_pos * e + ki_pos * Eint + kd_pos * edot;
9d00cb54:	8f858068 	lw	a1,-32664(gp)
9d00cb58:	8f938064 	lw	s3,-32668(gp)
9d00cb5c:	8f948058 	lw	s4,-32680(gp)
9d00cb60:	8f928060 	lw	s2,-32672(gp)
9d00cb64:	0f40410d 	jal	9d010434 <__mulsf3>
9d00cb68:	02002025 	move	a0,s0
9d00cb6c:	00408825 	move	s1,v0
9d00cb70:	02802825 	move	a1,s4
9d00cb74:	0f40410d 	jal	9d010434 <__mulsf3>
9d00cb78:	02602025 	move	a0,s3
9d00cb7c:	00402825 	move	a1,v0
9d00cb80:	0f403f03 	jal	9d00fc0c <__addsf3>
9d00cb84:	02202025 	move	a0,s1
9d00cb88:	00408825 	move	s1,v0
    edot = e - eprev;
9d00cb8c:	8f85804c 	lw	a1,-32692(gp)
9d00cb90:	0f403f01 	jal	9d00fc04 <__subsf3>
9d00cb94:	02002025 	move	a0,s0
    u = kp_pos * e + ki_pos * Eint + kd_pos * edot;
9d00cb98:	02402825 	move	a1,s2
9d00cb9c:	0f40410d 	jal	9d010434 <__mulsf3>
9d00cba0:	00402025 	move	a0,v0
9d00cba4:	00402825 	move	a1,v0
9d00cba8:	0f403f03 	jal	9d00fc0c <__addsf3>
9d00cbac:	02202025 	move	a0,s1
    eprev = e;
9d00cbb0:	af90804c 	sw	s0,-32692(gp)
    set_ref_curr(u);
9d00cbb4:	0f40265b 	jal	9d00996c <set_ref_curr>
9d00cbb8:	00402025 	move	a0,v0
    break;
9d00cbbc:	1000ffa5 	b	9d00ca54 <position_controller+0xc4>
9d00cbc0:	3c10bf88 	lui	s0,0xbf88
    } else if (Eint < -EINTMAX) {
9d00cbc4:	8f848058 	lw	a0,-32680(gp)
9d00cbc8:	3c029d00 	lui	v0,0x9d00
9d00cbcc:	0f404c9d 	jal	9d013274 <fpcmplt>
9d00cbd0:	8c457544 	lw	a1,30020(v0)
9d00cbd4:	0441ffdf 	bgez	v0,9d00cb54 <position_controller+0x1c4>
9d00cbd8:	3c029d00 	lui	v0,0x9d00
        Eint = -EINTMAX;
9d00cbdc:	8c427544 	lw	v0,30020(v0)
9d00cbe0:	af828058 	sw	v0,-32680(gp)
9d00cbe4:	1000ffdb 	b	9d00cb54 <position_controller+0x1c4>
9d00cbe8:	00000000 	nop
    r = pos_ref_array[array_count];
9d00cbec:	00021080 	sll	v0,v0,0x2
9d00cbf0:	3c03a000 	lui	v1,0xa000
9d00cbf4:	2463038c 	addiu	v1,v1,908
9d00cbf8:	00431021 	addu	v0,v0,v1
9d00cbfc:	8c420000 	lw	v0,0(v0)
    float angle_1 = get_encoder_degrees();
9d00cc00:	0f403930 	jal	9d00e4c0 <get_encoder_degrees>
9d00cc04:	af828050 	sw	v0,-32688(gp)
9d00cc08:	00409025 	move	s2,v0
    angle_array[array_count] = angle_1;
9d00cc0c:	8f908048 	lw	s0,-32696(gp)
9d00cc10:	00101080 	sll	v0,s0,0x2
9d00cc14:	3c03a000 	lui	v1,0xa000
9d00cc18:	246351ac 	addiu	v1,v1,20908
9d00cc1c:	00431021 	addu	v0,v0,v1
9d00cc20:	ac520000 	sw	s2,0(v0)
    e = r - angle_1;
9d00cc24:	02402825 	move	a1,s2
9d00cc28:	0f403f01 	jal	9d00fc04 <__subsf3>
9d00cc2c:	8f848050 	lw	a0,-32688(gp)
9d00cc30:	00408825 	move	s1,v0
    Eint = Eint + e;
9d00cc34:	8f858058 	lw	a1,-32680(gp)
9d00cc38:	0f403f03 	jal	9d00fc0c <__addsf3>
9d00cc3c:	00402025 	move	a0,v0
9d00cc40:	af828058 	sw	v0,-32680(gp)
    if (Eint > EINTMAX) { // ADDED: integrator anti-windup
9d00cc44:	8f848058 	lw	a0,-32680(gp)
9d00cc48:	3c029d00 	lui	v0,0x9d00
9d00cc4c:	0f404c76 	jal	9d0131d8 <__eqsf2>
9d00cc50:	8c457540 	lw	a1,30016(v0)
9d00cc54:	18400029 	blez	v0,9d00ccfc <position_controller+0x36c>
9d00cc58:	3c029d00 	lui	v0,0x9d00
        Eint = EINTMAX;
9d00cc5c:	8c427540 	lw	v0,30016(v0)
9d00cc60:	af828058 	sw	v0,-32680(gp)
    u = kp_pos * e + ki_pos * Eint + kd_pos * edot;
9d00cc64:	8f858068 	lw	a1,-32664(gp)
9d00cc68:	8f958064 	lw	s5,-32668(gp)
9d00cc6c:	8f968058 	lw	s6,-32680(gp)
9d00cc70:	8f948060 	lw	s4,-32672(gp)
9d00cc74:	0f40410d 	jal	9d010434 <__mulsf3>
9d00cc78:	02202025 	move	a0,s1
9d00cc7c:	00409825 	move	s3,v0
9d00cc80:	02c02825 	move	a1,s6
9d00cc84:	0f40410d 	jal	9d010434 <__mulsf3>
9d00cc88:	02a02025 	move	a0,s5
9d00cc8c:	00402825 	move	a1,v0
9d00cc90:	0f403f03 	jal	9d00fc0c <__addsf3>
9d00cc94:	02602025 	move	a0,s3
9d00cc98:	00409825 	move	s3,v0
    edot = e - eprev;
9d00cc9c:	8f85804c 	lw	a1,-32692(gp)
9d00cca0:	0f403f01 	jal	9d00fc04 <__subsf3>
9d00cca4:	02202025 	move	a0,s1
    u = kp_pos * e + ki_pos * Eint + kd_pos * edot;
9d00cca8:	02802825 	move	a1,s4
9d00ccac:	0f40410d 	jal	9d010434 <__mulsf3>
9d00ccb0:	00402025 	move	a0,v0
9d00ccb4:	00402825 	move	a1,v0
9d00ccb8:	0f403f03 	jal	9d00fc0c <__addsf3>
9d00ccbc:	02602025 	move	a0,s3
    eprev = e;
9d00ccc0:	af91804c 	sw	s1,-32692(gp)
    array_count++;
9d00ccc4:	26100001 	addiu	s0,s0,1
9d00ccc8:	af908048 	sw	s0,-32696(gp)
    set_ref_curr(u);
9d00cccc:	0f40265b 	jal	9d00996c <set_ref_curr>
9d00ccd0:	00402025 	move	a0,v0
    if (array_count == N){
9d00ccd4:	8f918048 	lw	s1,-32696(gp)
9d00ccd8:	8f908054 	lw	s0,-32684(gp)
9d00ccdc:	5630ff5d 	bnel	s1,s0,9d00ca54 <position_controller+0xc4>
9d00cce0:	3c10bf88 	lui	s0,0xbf88
        array_count = 0;
9d00cce4:	af808048 	sw	zero,-32696(gp)
        set_mode(HOLD);
9d00cce8:	0f4053f3 	jal	9d014fcc <set_mode>
9d00ccec:	24040003 	li	a0,3
        angle = angle_1;
9d00ccf0:	af92805c 	sw	s2,-32676(gp)
  IFS0bits.T4IF = 0;
9d00ccf4:	1000ff57 	b	9d00ca54 <position_controller+0xc4>
9d00ccf8:	3c10bf88 	lui	s0,0xbf88
    } else if (Eint < -EINTMAX) {
9d00ccfc:	8f848058 	lw	a0,-32680(gp)
9d00cd00:	3c029d00 	lui	v0,0x9d00
9d00cd04:	0f404c9d 	jal	9d013274 <fpcmplt>
9d00cd08:	8c457544 	lw	a1,30020(v0)
9d00cd0c:	0441ffd5 	bgez	v0,9d00cc64 <position_controller+0x2d4>
9d00cd10:	3c029d00 	lui	v0,0x9d00
        Eint = -EINTMAX;
9d00cd14:	8c427544 	lw	v0,30020(v0)
9d00cd18:	af828058 	sw	v0,-32680(gp)
9d00cd1c:	1000ffd1 	b	9d00cc64 <position_controller+0x2d4>
9d00cd20:	00000000 	nop

9d00cd24 <position_control_setup>:


void position_control_setup(void){
9d00cd24:	27bdfff8 	addiu	sp,sp,-8
9d00cd28:	afbf0004 	sw	ra,4(sp)
        __builtin_disable_interrupts();
9d00cd2c:	41626000 	di	v0
9d00cd30:	000000c0 	ehb
    PR4 = 29999; //should be 29999
9d00cd34:	3c02bf80 	lui	v0,0xbf80
9d00cd38:	2403752f 	li	v1,29999
9d00cd3c:	ac430c20 	sw	v1,3104(v0)
    TMR4 = 0;
9d00cd40:	3c02bf80 	lui	v0,0xbf80
9d00cd44:	ac400c10 	sw	zero,3088(v0)
    T4CONbits.TCKPS = 3;          // set prescaler to 8
9d00cd48:	3c02bf80 	lui	v0,0xbf80
9d00cd4c:	94430c00 	lhu	v1,3072(v0)
9d00cd50:	24040003 	li	a0,3
9d00cd54:	7c833104 	ins	v1,a0,0x4,0x3
9d00cd58:	a4430c00 	sh	v1,3072(v0)
    T4CONbits.ON = 1;             // turn on Timer4
9d00cd5c:	94430c00 	lhu	v1,3072(v0)
9d00cd60:	24040001 	li	a0,1
9d00cd64:	7c837bc4 	ins	v1,a0,0xf,0x1
9d00cd68:	a4430c00 	sh	v1,3072(v0)
    IPC4bits.T4IP = 6;            // INT step 4: priority 6
9d00cd6c:	3c02bf88 	lui	v0,0xbf88
9d00cd70:	8c4310d0 	lw	v1,4304(v0)
9d00cd74:	24050006 	li	a1,6
9d00cd78:	7ca32084 	ins	v1,a1,0x2,0x3
9d00cd7c:	ac4310d0 	sw	v1,4304(v0)
    IPC4bits.T4IS = 0;            // subpriority 0
9d00cd80:	8c4310d0 	lw	v1,4304(v0)
9d00cd84:	7c030804 	ins	v1,zero,0x0,0x2
9d00cd88:	ac4310d0 	sw	v1,4304(v0)
    IFS0bits.T4IF = 0;            // INT step 5: clear interrupt flag
9d00cd8c:	3c02bf88 	lui	v0,0xbf88
9d00cd90:	8c431030 	lw	v1,4144(v0)
9d00cd94:	7c039cc4 	ins	v1,zero,0x13,0x1
9d00cd98:	ac431030 	sw	v1,4144(v0)
    IEC0bits.T4IE = 1;            // INT step 6: enable interrupt
9d00cd9c:	3c02bf88 	lui	v0,0xbf88
9d00cda0:	8c431060 	lw	v1,4192(v0)
9d00cda4:	7c839cc4 	ins	v1,a0,0x13,0x1
9d00cda8:	ac431060 	sw	v1,4192(v0)
    __builtin_enable_interrupts();
9d00cdac:	41626020 	ei	v0
}
9d00cdb0:	8fbf0004 	lw	ra,4(sp)
9d00cdb4:	03e00008 	jr	ra
9d00cdb8:	27bd0008 	addiu	sp,sp,8

9d00cdbc <set_position_gains>:

void set_position_gains(float kp, float ki, float kd){
    kp_pos = kp;
9d00cdbc:	af848068 	sw	a0,-32664(gp)
    ki_pos = ki;
9d00cdc0:	af858064 	sw	a1,-32668(gp)
    kd_pos = kd;
9d00cdc4:	af868060 	sw	a2,-32672(gp)
}
9d00cdc8:	03e00008 	jr	ra
9d00cdcc:	00000000 	nop

9d00cdd0 <get_position_gains>:

void get_position_gains(float *kp, float *ki, float *kd){
    *kp = kp_pos;
9d00cdd0:	8f828068 	lw	v0,-32664(gp)
9d00cdd4:	ac820000 	sw	v0,0(a0)
    *ki = ki_pos;
9d00cdd8:	8f828064 	lw	v0,-32668(gp)
9d00cddc:	aca20000 	sw	v0,0(a1)
    *kd = kd_pos;
9d00cde0:	8f828060 	lw	v0,-32672(gp)
}
9d00cde4:	03e00008 	jr	ra
9d00cde8:	acc20000 	sw	v0,0(a2)

9d00cdec <set_eint>:

void set_eint(void){
    Eint = 0;
9d00cdec:	00001025 	move	v0,zero
9d00cdf0:	af828058 	sw	v0,-32680(gp)
}
9d00cdf4:	03e00008 	jr	ra
9d00cdf8:	00000000 	nop

9d00cdfc <set_angle>:

void set_angle(float ang){
    angle = ang;
9d00cdfc:	af84805c 	sw	a0,-32676(gp)
}
9d00ce00:	03e00008 	jr	ra
9d00ce04:	00000000 	nop

9d00ce08 <set_N>:

void set_N(int n){
    N = n;
}
9d00ce08:	03e00008 	jr	ra
9d00ce0c:	af848054 	sw	a0,-32684(gp)

9d00ce10 <get_N>:

int get_N(void){
    return N;
}
9d00ce10:	03e00008 	jr	ra
9d00ce14:	8f828054 	lw	v0,-32684(gp)

Disassembly of section .text.dreml:

9d00ce18 <dreml>:
9d00ce18:	27bdffa8 	addiu	sp,sp,-88
9d00ce1c:	afa70064 	sw	a3,100(sp)
9d00ce20:	afa5005c 	sw	a1,92(sp)
9d00ce24:	afbe0050 	sw	s8,80(sp)
9d00ce28:	afb10034 	sw	s1,52(sp)
9d00ce2c:	97be005e 	lhu	s8,94(sp)
9d00ce30:	97b10066 	lhu	s1,102(sp)
9d00ce34:	afb40040 	sw	s4,64(sp)
9d00ce38:	afb00030 	sw	s0,48(sp)
9d00ce3c:	24147ff0 	li	s4,32752
9d00ce40:	32307fff 	andi	s0,s1,0x7fff
9d00ce44:	33c27ff0 	andi	v0,s8,0x7ff0
9d00ce48:	afbf0054 	sw	ra,84(sp)
9d00ce4c:	afb7004c 	sw	s7,76(sp)
9d00ce50:	afb60048 	sw	s6,72(sp)
9d00ce54:	afb50044 	sw	s5,68(sp)
9d00ce58:	afb3003c 	sw	s3,60(sp)
9d00ce5c:	afb20038 	sw	s2,56(sp)
9d00ce60:	afa60060 	sw	a2,96(sp)
9d00ce64:	afa40058 	sw	a0,88(sp)
9d00ce68:	105400a6 	beq	v0,s4,9d00d104 <dreml+0x2ec>
9d00ce6c:	a7b00066 	sh	s0,102(sp)
9d00ce70:	8fb20060 	lw	s2,96(sp)
9d00ce74:	8fb30064 	lw	s3,100(sp)
9d00ce78:	00003025 	move	a2,zero
9d00ce7c:	00003825 	move	a3,zero
9d00ce80:	02402025 	move	a0,s2
9d00ce84:	0f404657 	jal	9d01195c <__eqdf2>
9d00ce88:	02602825 	move	a1,s3
9d00ce8c:	10400088 	beqz	v0,9d00d0b0 <dreml+0x298>
9d00ce90:	32317ff0 	andi	s1,s1,0x7ff0
9d00ce94:	123400b3 	beq	s1,s4,9d00d164 <dreml+0x34c>
9d00ce98:	00108103 	sra	s0,s0,0x4
9d00ce9c:	321007fe 	andi	s0,s0,0x7fe
9d00cea0:	120000cb 	beqz	s0,9d00d1d0 <dreml+0x3b8>
9d00cea4:	3c109d00 	lui	s0,0x9d00
9d00cea8:	8e067608 	lw	a2,30216(s0)
9d00ceac:	8e07760c 	lw	a3,30220(s0)
9d00ceb0:	02402025 	move	a0,s2
9d00ceb4:	0f403b8f 	jal	9d00ee3c <__muldf3>
9d00ceb8:	02602825 	move	a1,s3
9d00cebc:	afa20020 	sw	v0,32(sp)
9d00cec0:	3c029d00 	lui	v0,0x9d00
9d00cec4:	8c467610 	lw	a2,30224(v0)
9d00cec8:	8c477614 	lw	a3,30228(v0)
9d00cecc:	02402025 	move	a0,s2
9d00ced0:	02602825 	move	a1,s3
9d00ced4:	0f404657 	jal	9d01195c <__eqdf2>
9d00ced8:	afa30024 	sw	v1,36(sp)
9d00cedc:	044100aa 	bgez	v0,9d00d188 <dreml+0x370>
9d00cee0:	33c87fff 	andi	t0,s8,0x7fff
9d00cee4:	02403025 	move	a2,s2
9d00cee8:	02603825 	move	a3,s3
9d00ceec:	02402025 	move	a0,s2
9d00cef0:	02602825 	move	a1,s3
9d00cef4:	0f4036bb 	jal	9d00daec <__adddf3>
9d00cef8:	afa80018 	sw	t0,24(sp)
9d00cefc:	8fa80018 	lw	t0,24(sp)
9d00cf00:	8fb00058 	lw	s0,88(sp)
9d00cf04:	7c1e7004 	ins	s8,zero,0x0,0xf
9d00cf08:	a7a8005e 	sh	t0,94(sp)
9d00cf0c:	8fb1005c 	lw	s1,92(sp)
9d00cf10:	00402025 	move	a0,v0
9d00cf14:	0040a825 	move	s5,v0
9d00cf18:	00602825 	move	a1,v1
9d00cf1c:	7c1e1620 	seh	v0,s8
9d00cf20:	02003025 	move	a2,s0
9d00cf24:	02203825 	move	a3,s1
9d00cf28:	0003b402 	srl	s6,v1,0x10
9d00cf2c:	0060a025 	move	s4,v1
9d00cf30:	0f4046a2 	jal	9d011a88 <dpcmplt>
9d00cf34:	afa20028 	sw	v0,40(sp)
9d00cf38:	32d77ff0 	andi	s7,s6,0x7ff0
9d00cf3c:	04400003 	bltz	v0,9d00cf4c <dreml+0x134>
9d00cf40:	8fa80018 	lw	t0,24(sp)
9d00cf44:	10000029 	b	9d00cfec <dreml+0x1d4>
9d00cf48:	8fb40020 	lw	s4,32(sp)
9d00cf4c:	31037ff0 	andi	v1,t0,0x7ff0
9d00cf50:	02c31821 	addu	v1,s6,v1
9d00cf54:	00771823 	subu	v1,v1,s7
9d00cf58:	307effff 	andi	s8,v1,0xffff
9d00cf5c:	afb40014 	sw	s4,20(sp)
9d00cf60:	afb50010 	sw	s5,16(sp)
9d00cf64:	a7be0016 	sh	s8,22(sp)
9d00cf68:	8fa80010 	lw	t0,16(sp)
9d00cf6c:	8fa90014 	lw	t1,20(sp)
9d00cf70:	02003025 	move	a2,s0
9d00cf74:	01002025 	move	a0,t0
9d00cf78:	01202825 	move	a1,t1
9d00cf7c:	02203825 	move	a3,s1
9d00cf80:	afa80018 	sw	t0,24(sp)
9d00cf84:	0f404657 	jal	9d01195c <__eqdf2>
9d00cf88:	afa9001c 	sw	t1,28(sp)
9d00cf8c:	02002025 	move	a0,s0
9d00cf90:	02202825 	move	a1,s1
9d00cf94:	27c3fff0 	addiu	v1,s8,-16
9d00cf98:	8fa80018 	lw	t0,24(sp)
9d00cf9c:	18400004 	blez	v0,9d00cfb0 <dreml+0x198>
9d00cfa0:	8fa9001c 	lw	t1,28(sp)
9d00cfa4:	a7a30016 	sh	v1,22(sp)
9d00cfa8:	8fa80010 	lw	t0,16(sp)
9d00cfac:	8fa90014 	lw	t1,20(sp)
9d00cfb0:	01003025 	move	a2,t0
9d00cfb4:	0f4036b9 	jal	9d00dae4 <__subdf3>
9d00cfb8:	01203825 	move	a3,t1
9d00cfbc:	00403025 	move	a2,v0
9d00cfc0:	02a02025 	move	a0,s5
9d00cfc4:	02802825 	move	a1,s4
9d00cfc8:	00603825 	move	a3,v1
9d00cfcc:	00408025 	move	s0,v0
9d00cfd0:	00608825 	move	s1,v1
9d00cfd4:	afa20058 	sw	v0,88(sp)
9d00cfd8:	0f4046a2 	jal	9d011a88 <dpcmplt>
9d00cfdc:	afa3005c 	sw	v1,92(sp)
9d00cfe0:	0440ffda 	bltz	v0,9d00cf4c <dreml+0x134>
9d00cfe4:	97a8005e 	lhu	t0,94(sp)
9d00cfe8:	8fb40020 	lw	s4,32(sp)
9d00cfec:	8fb50024 	lw	s5,36(sp)
9d00cff0:	02002025 	move	a0,s0
9d00cff4:	02803025 	move	a2,s4
9d00cff8:	02a03825 	move	a3,s5
9d00cffc:	0f404657 	jal	9d01195c <__eqdf2>
9d00d000:	02202825 	move	a1,s1
9d00d004:	18400017 	blez	v0,9d00d064 <dreml+0x24c>
9d00d008:	97a2005e 	lhu	v0,94(sp)
9d00d00c:	02002025 	move	a0,s0
9d00d010:	02202825 	move	a1,s1
9d00d014:	02403025 	move	a2,s2
9d00d018:	0f4036b9 	jal	9d00dae4 <__subdf3>
9d00d01c:	02603825 	move	a3,s3
9d00d020:	00402025 	move	a0,v0
9d00d024:	02803025 	move	a2,s4
9d00d028:	02a03825 	move	a3,s5
9d00d02c:	00602825 	move	a1,v1
9d00d030:	00408025 	move	s0,v0
9d00d034:	0f404657 	jal	9d01195c <__eqdf2>
9d00d038:	00608825 	move	s1,v1
9d00d03c:	04420089 	bltzl	v0,9d00d264 <dreml+0x44c>
9d00d040:	afb00058 	sw	s0,88(sp)
9d00d044:	02403025 	move	a2,s2
9d00d048:	02603825 	move	a3,s3
9d00d04c:	02002025 	move	a0,s0
9d00d050:	0f4036b9 	jal	9d00dae4 <__subdf3>
9d00d054:	02202825 	move	a1,s1
9d00d058:	afa20058 	sw	v0,88(sp)
9d00d05c:	afa3005c 	sw	v1,92(sp)
9d00d060:	97a2005e 	lhu	v0,94(sp)
9d00d064:	8fa30028 	lw	v1,40(sp)
9d00d068:	0062f026 	xor	s8,v1,v0
9d00d06c:	a7be005e 	sh	s8,94(sp)
9d00d070:	8fb20058 	lw	s2,88(sp)
9d00d074:	8fb3005c 	lw	s3,92(sp)
9d00d078:	8fbf0054 	lw	ra,84(sp)
9d00d07c:	02401025 	move	v0,s2
9d00d080:	02601825 	move	v1,s3
9d00d084:	8fbe0050 	lw	s8,80(sp)
9d00d088:	8fb7004c 	lw	s7,76(sp)
9d00d08c:	8fb60048 	lw	s6,72(sp)
9d00d090:	8fb50044 	lw	s5,68(sp)
9d00d094:	8fb40040 	lw	s4,64(sp)
9d00d098:	8fb3003c 	lw	s3,60(sp)
9d00d09c:	8fb20038 	lw	s2,56(sp)
9d00d0a0:	8fb10034 	lw	s1,52(sp)
9d00d0a4:	8fb00030 	lw	s0,48(sp)
9d00d0a8:	03e00008 	jr	ra
9d00d0ac:	27bd0058 	addiu	sp,sp,88
9d00d0b0:	00003025 	move	a2,zero
9d00d0b4:	00003825 	move	a3,zero
9d00d0b8:	00c02025 	move	a0,a2
9d00d0bc:	0f403136 	jal	9d00c4d8 <__divdf3>
9d00d0c0:	00e02825 	move	a1,a3
9d00d0c4:	00409025 	move	s2,v0
9d00d0c8:	00609825 	move	s3,v1
9d00d0cc:	8fbf0054 	lw	ra,84(sp)
9d00d0d0:	02401025 	move	v0,s2
9d00d0d4:	02601825 	move	v1,s3
9d00d0d8:	8fbe0050 	lw	s8,80(sp)
9d00d0dc:	8fb7004c 	lw	s7,76(sp)
9d00d0e0:	8fb60048 	lw	s6,72(sp)
9d00d0e4:	8fb50044 	lw	s5,68(sp)
9d00d0e8:	8fb40040 	lw	s4,64(sp)
9d00d0ec:	8fb3003c 	lw	s3,60(sp)
9d00d0f0:	8fb20038 	lw	s2,56(sp)
9d00d0f4:	8fb10034 	lw	s1,52(sp)
9d00d0f8:	8fb00030 	lw	s0,48(sp)
9d00d0fc:	03e00008 	jr	ra
9d00d100:	27bd0058 	addiu	sp,sp,88
9d00d104:	8fa60060 	lw	a2,96(sp)
9d00d108:	0f4036b9 	jal	9d00dae4 <__subdf3>
9d00d10c:	8fa70064 	lw	a3,100(sp)
9d00d110:	00403025 	move	a2,v0
9d00d114:	00603825 	move	a3,v1
9d00d118:	00402025 	move	a0,v0
9d00d11c:	0f4036b9 	jal	9d00dae4 <__subdf3>
9d00d120:	00602825 	move	a1,v1
9d00d124:	8fbf0054 	lw	ra,84(sp)
9d00d128:	00409025 	move	s2,v0
9d00d12c:	00609825 	move	s3,v1
9d00d130:	02401025 	move	v0,s2
9d00d134:	02601825 	move	v1,s3
9d00d138:	8fbe0050 	lw	s8,80(sp)
9d00d13c:	8fb7004c 	lw	s7,76(sp)
9d00d140:	8fb60048 	lw	s6,72(sp)
9d00d144:	8fb50044 	lw	s5,68(sp)
9d00d148:	8fb40040 	lw	s4,64(sp)
9d00d14c:	8fb3003c 	lw	s3,60(sp)
9d00d150:	8fb20038 	lw	s2,56(sp)
9d00d154:	8fb10034 	lw	s1,52(sp)
9d00d158:	8fb00030 	lw	s0,48(sp)
9d00d15c:	03e00008 	jr	ra
9d00d160:	27bd0058 	addiu	sp,sp,88
9d00d164:	02403025 	move	a2,s2
9d00d168:	02603825 	move	a3,s3
9d00d16c:	02402025 	move	a0,s2
9d00d170:	0f404657 	jal	9d01195c <__eqdf2>
9d00d174:	02602825 	move	a1,s3
9d00d178:	1440ffd5 	bnez	v0,9d00d0d0 <dreml+0x2b8>
9d00d17c:	8fbf0054 	lw	ra,84(sp)
9d00d180:	1000ffbc 	b	9d00d074 <dreml+0x25c>
9d00d184:	8fb20058 	lw	s2,88(sp)
9d00d188:	8e067608 	lw	a2,30216(s0)
9d00d18c:	8e07760c 	lw	a3,30220(s0)
9d00d190:	8fa40058 	lw	a0,88(sp)
9d00d194:	0f403b8f 	jal	9d00ee3c <__muldf3>
9d00d198:	8fa5005c 	lw	a1,92(sp)
9d00d19c:	8fa60020 	lw	a2,32(sp)
9d00d1a0:	8fa70024 	lw	a3,36(sp)
9d00d1a4:	00402025 	move	a0,v0
9d00d1a8:	0f403386 	jal	9d00ce18 <dreml>
9d00d1ac:	00602825 	move	a1,v1
9d00d1b0:	00403025 	move	a2,v0
9d00d1b4:	00603825 	move	a3,v1
9d00d1b8:	00402025 	move	a0,v0
9d00d1bc:	0f4036bb 	jal	9d00daec <__adddf3>
9d00d1c0:	00602825 	move	a1,v1
9d00d1c4:	00409025 	move	s2,v0
9d00d1c8:	1000ffc0 	b	9d00d0cc <dreml+0x2b4>
9d00d1cc:	00609825 	move	s3,v1
9d00d1d0:	3c029d00 	lui	v0,0x9d00
9d00d1d4:	8c447600 	lw	a0,30208(v0)
9d00d1d8:	8c457604 	lw	a1,30212(v0)
9d00d1dc:	0f40435e 	jal	9d010d78 <__mchp_ldexp>
9d00d1e0:	24060036 	li	a2,54
9d00d1e4:	00403025 	move	a2,v0
9d00d1e8:	02402025 	move	a0,s2
9d00d1ec:	02602825 	move	a1,s3
9d00d1f0:	00603825 	move	a3,v1
9d00d1f4:	00408025 	move	s0,v0
9d00d1f8:	0f403b8f 	jal	9d00ee3c <__muldf3>
9d00d1fc:	00608825 	move	s1,v1
9d00d200:	8fa40058 	lw	a0,88(sp)
9d00d204:	8fa5005c 	lw	a1,92(sp)
9d00d208:	00403025 	move	a2,v0
9d00d20c:	00603825 	move	a3,v1
9d00d210:	00409025 	move	s2,v0
9d00d214:	0f403386 	jal	9d00ce18 <dreml>
9d00d218:	00609825 	move	s3,v1
9d00d21c:	00402025 	move	a0,v0
9d00d220:	02003025 	move	a2,s0
9d00d224:	02203825 	move	a3,s1
9d00d228:	0f403b8f 	jal	9d00ee3c <__muldf3>
9d00d22c:	00602825 	move	a1,v1
9d00d230:	00402025 	move	a0,v0
9d00d234:	02403025 	move	a2,s2
9d00d238:	02603825 	move	a3,s3
9d00d23c:	0f403386 	jal	9d00ce18 <dreml>
9d00d240:	00602825 	move	a1,v1
9d00d244:	00402025 	move	a0,v0
9d00d248:	02003025 	move	a2,s0
9d00d24c:	02203825 	move	a3,s1
9d00d250:	0f403136 	jal	9d00c4d8 <__divdf3>
9d00d254:	00602825 	move	a1,v1
9d00d258:	00409025 	move	s2,v0
9d00d25c:	1000ff9b 	b	9d00d0cc <dreml+0x2b4>
9d00d260:	00609825 	move	s3,v1
9d00d264:	1000ff7e 	b	9d00d060 <dreml+0x248>
9d00d268:	afb1005c 	sw	s1,92(sp)

Disassembly of section .text:

9d00d26c <__divdi3>:
9d00d26c:	04a10007 	bgez	a1,9d00d28c <__divdi3+0x20>
9d00d270:	00005025 	move	t2,zero
9d00d274:	00041023 	negu	v0,a0
9d00d278:	0002182b 	sltu	v1,zero,v0
9d00d27c:	00052823 	negu	a1,a1
9d00d280:	00402025 	move	a0,v0
9d00d284:	00a32823 	subu	a1,a1,v1
9d00d288:	240affff 	li	t2,-1
9d00d28c:	04e10008 	bgez	a3,9d00d2b0 <__divdi3+0x44>
9d00d290:	00c04025 	move	t0,a2
9d00d294:	00061023 	negu	v0,a2
9d00d298:	0002182b 	sltu	v1,zero,v0
9d00d29c:	00073823 	negu	a3,a3
9d00d2a0:	000a5027 	nor	t2,zero,t2
9d00d2a4:	00403025 	move	a2,v0
9d00d2a8:	00e33823 	subu	a3,a3,v1
9d00d2ac:	00c04025 	move	t0,a2
9d00d2b0:	00e01825 	move	v1,a3
9d00d2b4:	00804825 	move	t1,a0
9d00d2b8:	14e000ab 	bnez	a3,9d00d568 <__divdi3+0x2fc>
9d00d2bc:	00a01025 	move	v0,a1
9d00d2c0:	00a6302b 	sltu	a2,a1,a2
9d00d2c4:	10c0003c 	beqz	a2,9d00d3b8 <__divdi3+0x14c>
9d00d2c8:	00000000 	nop
9d00d2cc:	71052820 	clz	a1,t0
9d00d2d0:	10a00006 	beqz	a1,9d00d2ec <__divdi3+0x80>
9d00d2d4:	00a22004 	sllv	a0,v0,a1
9d00d2d8:	00051023 	negu	v0,a1
9d00d2dc:	00491006 	srlv	v0,t1,v0
9d00d2e0:	00a84004 	sllv	t0,t0,a1
9d00d2e4:	00441025 	or	v0,v0,a0
9d00d2e8:	00a94804 	sllv	t1,t1,a1
9d00d2ec:	00083402 	srl	a2,t0,0x10
9d00d2f0:	0046001b 	divu	zero,v0,a2
9d00d2f4:	00c001f4 	teq	a2,zero,0x7
9d00d2f8:	310bffff 	andi	t3,t0,0xffff
9d00d2fc:	00091402 	srl	v0,t1,0x10
9d00d300:	00003812 	mflo	a3
9d00d304:	00002010 	mfhi	a0
9d00d308:	00042400 	sll	a0,a0,0x10
9d00d30c:	00821025 	or	v0,a0,v0
9d00d310:	71676002 	mul	t4,t3,a3
9d00d314:	004c202b 	sltu	a0,v0,t4
9d00d318:	1080000a 	beqz	a0,9d00d344 <__divdi3+0xd8>
9d00d31c:	00e02825 	move	a1,a3
9d00d320:	00481021 	addu	v0,v0,t0
9d00d324:	0048202b 	sltu	a0,v0,t0
9d00d328:	14800006 	bnez	a0,9d00d344 <__divdi3+0xd8>
9d00d32c:	24e5ffff 	addiu	a1,a3,-1
9d00d330:	004c202b 	sltu	a0,v0,t4
9d00d334:	50800004 	beqzl	a0,9d00d348 <__divdi3+0xdc>
9d00d338:	004c1023 	subu	v0,v0,t4
9d00d33c:	24e5fffe 	addiu	a1,a3,-2
9d00d340:	00481021 	addu	v0,v0,t0
9d00d344:	004c1023 	subu	v0,v0,t4
9d00d348:	0046001b 	divu	zero,v0,a2
9d00d34c:	00c001f4 	teq	a2,zero,0x7
9d00d350:	3129ffff 	andi	t1,t1,0xffff
9d00d354:	00001012 	mflo	v0
9d00d358:	00003010 	mfhi	a2
9d00d35c:	00063400 	sll	a2,a2,0x10
9d00d360:	00c94825 	or	t1,a2,t1
9d00d364:	71625802 	mul	t3,t3,v0
9d00d368:	012b302b 	sltu	a2,t1,t3
9d00d36c:	10c00008 	beqz	a2,9d00d390 <__divdi3+0x124>
9d00d370:	00402025 	move	a0,v0
9d00d374:	01094821 	addu	t1,t0,t1
9d00d378:	0128402b 	sltu	t0,t1,t0
9d00d37c:	15000004 	bnez	t0,9d00d390 <__divdi3+0x124>
9d00d380:	2444ffff 	addiu	a0,v0,-1
9d00d384:	012b482b 	sltu	t1,t1,t3
9d00d388:	55200001 	bnezl	t1,9d00d390 <__divdi3+0x124>
9d00d38c:	2444fffe 	addiu	a0,v0,-2
9d00d390:	00051400 	sll	v0,a1,0x10
9d00d394:	00441025 	or	v0,v0,a0
9d00d398:	11400005 	beqz	t2,9d00d3b0 <__divdi3+0x144>
9d00d39c:	00000000 	nop
9d00d3a0:	00021023 	negu	v0,v0
9d00d3a4:	0002202b 	sltu	a0,zero,v0
9d00d3a8:	00031823 	negu	v1,v1
9d00d3ac:	00641823 	subu	v1,v1,a0
9d00d3b0:	03e00008 	jr	ra
9d00d3b4:	00000000 	nop
9d00d3b8:	15000006 	bnez	t0,9d00d3d4 <__divdi3+0x168>
9d00d3bc:	710b5820 	clz	t3,t0
9d00d3c0:	24080001 	li	t0,1
9d00d3c4:	0107001b 	divu	zero,t0,a3
9d00d3c8:	00e001f4 	teq	a3,zero,0x7
9d00d3cc:	00004012 	mflo	t0
9d00d3d0:	710b5820 	clz	t3,t0
9d00d3d4:	1560002d 	bnez	t3,9d00d48c <__divdi3+0x220>
9d00d3d8:	24030001 	li	v1,1
9d00d3dc:	00a82823 	subu	a1,a1,t0
9d00d3e0:	00083c02 	srl	a3,t0,0x10
9d00d3e4:	00a7001b 	divu	zero,a1,a3
9d00d3e8:	00e001f4 	teq	a3,zero,0x7
9d00d3ec:	310bffff 	andi	t3,t0,0xffff
9d00d3f0:	00091402 	srl	v0,t1,0x10
9d00d3f4:	00002812 	mflo	a1
9d00d3f8:	00002010 	mfhi	a0
9d00d3fc:	00042400 	sll	a0,a0,0x10
9d00d400:	00821025 	or	v0,a0,v0
9d00d404:	71656002 	mul	t4,t3,a1
9d00d408:	004c202b 	sltu	a0,v0,t4
9d00d40c:	1080000a 	beqz	a0,9d00d438 <__divdi3+0x1cc>
9d00d410:	00a03025 	move	a2,a1
9d00d414:	00481021 	addu	v0,v0,t0
9d00d418:	0048202b 	sltu	a0,v0,t0
9d00d41c:	14800006 	bnez	a0,9d00d438 <__divdi3+0x1cc>
9d00d420:	24a6ffff 	addiu	a2,a1,-1
9d00d424:	004c202b 	sltu	a0,v0,t4
9d00d428:	50800004 	beqzl	a0,9d00d43c <__divdi3+0x1d0>
9d00d42c:	004c1023 	subu	v0,v0,t4
9d00d430:	24a6fffe 	addiu	a2,a1,-2
9d00d434:	00481021 	addu	v0,v0,t0
9d00d438:	004c1023 	subu	v0,v0,t4
9d00d43c:	0047001b 	divu	zero,v0,a3
9d00d440:	00e001f4 	teq	a3,zero,0x7
9d00d444:	3129ffff 	andi	t1,t1,0xffff
9d00d448:	00001012 	mflo	v0
9d00d44c:	00003810 	mfhi	a3
9d00d450:	00073c00 	sll	a3,a3,0x10
9d00d454:	00e93825 	or	a3,a3,t1
9d00d458:	71622802 	mul	a1,t3,v0
9d00d45c:	00e5482b 	sltu	t1,a3,a1
9d00d460:	11200008 	beqz	t1,9d00d484 <__divdi3+0x218>
9d00d464:	00402025 	move	a0,v0
9d00d468:	01073821 	addu	a3,t0,a3
9d00d46c:	00e8402b 	sltu	t0,a3,t0
9d00d470:	15000004 	bnez	t0,9d00d484 <__divdi3+0x218>
9d00d474:	2444ffff 	addiu	a0,v0,-1
9d00d478:	00e5382b 	sltu	a3,a3,a1
9d00d47c:	54e00001 	bnezl	a3,9d00d484 <__divdi3+0x218>
9d00d480:	2444fffe 	addiu	a0,v0,-2
9d00d484:	1000ffc3 	b	9d00d394 <__divdi3+0x128>
9d00d488:	00061400 	sll	v0,a2,0x10
9d00d48c:	24070020 	li	a3,32
9d00d490:	00eb3823 	subu	a3,a3,t3
9d00d494:	01684004 	sllv	t0,t0,t3
9d00d498:	01651004 	sllv	v0,a1,t3
9d00d49c:	00081c02 	srl	v1,t0,0x10
9d00d4a0:	00e52806 	srlv	a1,a1,a3
9d00d4a4:	00a3001b 	divu	zero,a1,v1
9d00d4a8:	006001f4 	teq	v1,zero,0x7
9d00d4ac:	3106ffff 	andi	a2,t0,0xffff
9d00d4b0:	00e44806 	srlv	t1,a0,a3
9d00d4b4:	01224825 	or	t1,t1,v0
9d00d4b8:	00091402 	srl	v0,t1,0x10
9d00d4bc:	00002812 	mflo	a1
9d00d4c0:	00003810 	mfhi	a3
9d00d4c4:	00073c00 	sll	a3,a3,0x10
9d00d4c8:	00e23825 	or	a3,a3,v0
9d00d4cc:	70c56002 	mul	t4,a2,a1
9d00d4d0:	00ec682b 	sltu	t5,a3,t4
9d00d4d4:	11a0000a 	beqz	t5,9d00d500 <__divdi3+0x294>
9d00d4d8:	00a01025 	move	v0,a1
9d00d4dc:	00e83821 	addu	a3,a3,t0
9d00d4e0:	00e8682b 	sltu	t5,a3,t0
9d00d4e4:	15a00006 	bnez	t5,9d00d500 <__divdi3+0x294>
9d00d4e8:	24a2ffff 	addiu	v0,a1,-1
9d00d4ec:	00ec682b 	sltu	t5,a3,t4
9d00d4f0:	51a00004 	beqzl	t5,9d00d504 <__divdi3+0x298>
9d00d4f4:	00ec3823 	subu	a3,a3,t4
9d00d4f8:	24a2fffe 	addiu	v0,a1,-2
9d00d4fc:	00e83821 	addu	a3,a3,t0
9d00d500:	00ec3823 	subu	a3,a3,t4
9d00d504:	00e3001b 	divu	zero,a3,v1
9d00d508:	006001f4 	teq	v1,zero,0x7
9d00d50c:	3125ffff 	andi	a1,t1,0xffff
9d00d510:	00001812 	mflo	v1
9d00d514:	00003810 	mfhi	a3
9d00d518:	00073c00 	sll	a3,a3,0x10
9d00d51c:	00e52825 	or	a1,a3,a1
9d00d520:	70c33002 	mul	a2,a2,v1
9d00d524:	00a6482b 	sltu	t1,a1,a2
9d00d528:	1120000a 	beqz	t1,9d00d554 <__divdi3+0x2e8>
9d00d52c:	00603825 	move	a3,v1
9d00d530:	00a82821 	addu	a1,a1,t0
9d00d534:	00a8482b 	sltu	t1,a1,t0
9d00d538:	15200006 	bnez	t1,9d00d554 <__divdi3+0x2e8>
9d00d53c:	2467ffff 	addiu	a3,v1,-1
9d00d540:	00a6482b 	sltu	t1,a1,a2
9d00d544:	51200004 	beqzl	t1,9d00d558 <__divdi3+0x2ec>
9d00d548:	00021c00 	sll	v1,v0,0x10
9d00d54c:	2467fffe 	addiu	a3,v1,-2
9d00d550:	00a82821 	addu	a1,a1,t0
9d00d554:	00021c00 	sll	v1,v0,0x10
9d00d558:	01644804 	sllv	t1,a0,t3
9d00d55c:	00a62823 	subu	a1,a1,a2
9d00d560:	1000ff9f 	b	9d00d3e0 <__divdi3+0x174>
9d00d564:	00671825 	or	v1,v1,a3
9d00d568:	00a7402b 	sltu	t0,a1,a3
9d00d56c:	00001825 	move	v1,zero
9d00d570:	1500ff89 	bnez	t0,9d00d398 <__divdi3+0x12c>
9d00d574:	00001025 	move	v0,zero
9d00d578:	70eb5820 	clz	t3,a3
9d00d57c:	15600007 	bnez	t3,9d00d59c <__divdi3+0x330>
9d00d580:	24090020 	li	t1,32
9d00d584:	00e5282b 	sltu	a1,a3,a1
9d00d588:	14a0ff83 	bnez	a1,9d00d398 <__divdi3+0x12c>
9d00d58c:	24020001 	li	v0,1
9d00d590:	0086102b 	sltu	v0,a0,a2
9d00d594:	1000ff80 	b	9d00d398 <__divdi3+0x12c>
9d00d598:	38420001 	xori	v0,v0,0x1
9d00d59c:	012b4823 	subu	t1,t1,t3
9d00d5a0:	01261006 	srlv	v0,a2,t1
9d00d5a4:	01673804 	sllv	a3,a3,t3
9d00d5a8:	00473825 	or	a3,v0,a3
9d00d5ac:	00074402 	srl	t0,a3,0x10
9d00d5b0:	01651004 	sllv	v0,a1,t3
9d00d5b4:	01252806 	srlv	a1,a1,t1
9d00d5b8:	00a8001b 	divu	zero,a1,t0
9d00d5bc:	010001f4 	teq	t0,zero,0x7
9d00d5c0:	30ecffff 	andi	t4,a3,0xffff
9d00d5c4:	01241806 	srlv	v1,a0,t1
9d00d5c8:	00621025 	or	v0,v1,v0
9d00d5cc:	00021c02 	srl	v1,v0,0x10
9d00d5d0:	00002812 	mflo	a1
9d00d5d4:	00004810 	mfhi	t1
9d00d5d8:	00094c00 	sll	t1,t1,0x10
9d00d5dc:	01234825 	or	t1,t1,v1
9d00d5e0:	71856802 	mul	t5,t4,a1
9d00d5e4:	012d702b 	sltu	t6,t1,t5
9d00d5e8:	11c0000a 	beqz	t6,9d00d614 <__divdi3+0x3a8>
9d00d5ec:	00a01825 	move	v1,a1
9d00d5f0:	01274821 	addu	t1,t1,a3
9d00d5f4:	0127702b 	sltu	t6,t1,a3
9d00d5f8:	15c00006 	bnez	t6,9d00d614 <__divdi3+0x3a8>
9d00d5fc:	24a3ffff 	addiu	v1,a1,-1
9d00d600:	012d702b 	sltu	t6,t1,t5
9d00d604:	51c00004 	beqzl	t6,9d00d618 <__divdi3+0x3ac>
9d00d608:	012d4823 	subu	t1,t1,t5
9d00d60c:	24a3fffe 	addiu	v1,a1,-2
9d00d610:	01274821 	addu	t1,t1,a3
9d00d614:	012d4823 	subu	t1,t1,t5
9d00d618:	0128001b 	divu	zero,t1,t0
9d00d61c:	010001f4 	teq	t0,zero,0x7
9d00d620:	3045ffff 	andi	a1,v0,0xffff
9d00d624:	00004012 	mflo	t0
9d00d628:	00004810 	mfhi	t1
9d00d62c:	00094c00 	sll	t1,t1,0x10
9d00d630:	01252825 	or	a1,t1,a1
9d00d634:	71886002 	mul	t4,t4,t0
9d00d638:	00ac102b 	sltu	v0,a1,t4
9d00d63c:	1040000a 	beqz	v0,9d00d668 <__divdi3+0x3fc>
9d00d640:	01004825 	move	t1,t0
9d00d644:	00a72821 	addu	a1,a1,a3
9d00d648:	00a7102b 	sltu	v0,a1,a3
9d00d64c:	14400006 	bnez	v0,9d00d668 <__divdi3+0x3fc>
9d00d650:	2509ffff 	addiu	t1,t0,-1
9d00d654:	00ac102b 	sltu	v0,a1,t4
9d00d658:	10400004 	beqz	v0,9d00d66c <__divdi3+0x400>
9d00d65c:	00031400 	sll	v0,v1,0x10
9d00d660:	2509fffe 	addiu	t1,t0,-2
9d00d664:	00a72821 	addu	a1,a1,a3
9d00d668:	00031400 	sll	v0,v1,0x10
9d00d66c:	01663004 	sllv	a2,a2,t3
9d00d670:	00491025 	or	v0,v0,t1
9d00d674:	00c20019 	multu	a2,v0
9d00d678:	00ac2823 	subu	a1,a1,t4
9d00d67c:	00003810 	mfhi	a3
9d00d680:	00a7182b 	sltu	v1,a1,a3
9d00d684:	14600007 	bnez	v1,9d00d6a4 <__divdi3+0x438>
9d00d688:	00003012 	mflo	a2
9d00d68c:	14a7ff42 	bne	a1,a3,9d00d398 <__divdi3+0x12c>
9d00d690:	00001825 	move	v1,zero
9d00d694:	01642004 	sllv	a0,a0,t3
9d00d698:	0086202b 	sltu	a0,a0,a2
9d00d69c:	1080ff3e 	beqz	a0,9d00d398 <__divdi3+0x12c>
9d00d6a0:	00000000 	nop
9d00d6a4:	2442ffff 	addiu	v0,v0,-1
9d00d6a8:	1000ff3b 	b	9d00d398 <__divdi3+0x12c>
9d00d6ac:	00001825 	move	v1,zero

9d00d6b0 <__moddi3>:
9d00d6b0:	04a10007 	bgez	a1,9d00d6d0 <__moddi3+0x20>
9d00d6b4:	00006025 	move	t4,zero
9d00d6b8:	00041023 	negu	v0,a0
9d00d6bc:	0002482b 	sltu	t1,zero,v0
9d00d6c0:	00052823 	negu	a1,a1
9d00d6c4:	00402025 	move	a0,v0
9d00d6c8:	00a92823 	subu	a1,a1,t1
9d00d6cc:	240cffff 	li	t4,-1
9d00d6d0:	04e10006 	bgez	a3,9d00d6ec <__moddi3+0x3c>
9d00d6d4:	00c04825 	move	t1,a2
9d00d6d8:	00063023 	negu	a2,a2
9d00d6dc:	0006102b 	sltu	v0,zero,a2
9d00d6e0:	00073823 	negu	a3,a3
9d00d6e4:	00e23823 	subu	a3,a3,v0
9d00d6e8:	00c04825 	move	t1,a2
9d00d6ec:	00801025 	move	v0,a0
9d00d6f0:	14e0009c 	bnez	a3,9d00d964 <__moddi3+0x2b4>
9d00d6f4:	00a01825 	move	v1,a1
9d00d6f8:	00a6302b 	sltu	a2,a1,a2
9d00d6fc:	10c00039 	beqz	a2,9d00d7e4 <__moddi3+0x134>
9d00d700:	712a5020 	clz	t2,t1
9d00d704:	51400008 	beqzl	t2,9d00d728 <__moddi3+0x78>
9d00d708:	00092402 	srl	a0,t1,0x10
9d00d70c:	01451804 	sllv	v1,a1,t2
9d00d710:	000a2823 	negu	a1,t2
9d00d714:	00a42806 	srlv	a1,a0,a1
9d00d718:	01494804 	sllv	t1,t1,t2
9d00d71c:	00a31825 	or	v1,a1,v1
9d00d720:	01441004 	sllv	v0,a0,t2
9d00d724:	00092402 	srl	a0,t1,0x10
9d00d728:	0064001b 	divu	zero,v1,a0
9d00d72c:	008001f4 	teq	a0,zero,0x7
9d00d730:	3127ffff 	andi	a3,t1,0xffff
9d00d734:	00001812 	mflo	v1
9d00d738:	00002810 	mfhi	a1
9d00d73c:	70673002 	mul	a2,v1,a3
9d00d740:	00051c00 	sll	v1,a1,0x10
9d00d744:	00022c02 	srl	a1,v0,0x10
9d00d748:	00651825 	or	v1,v1,a1
9d00d74c:	0066282b 	sltu	a1,v1,a2
9d00d750:	50a00008 	beqzl	a1,9d00d774 <__moddi3+0xc4>
9d00d754:	00661823 	subu	v1,v1,a2
9d00d758:	00691821 	addu	v1,v1,t1
9d00d75c:	0069282b 	sltu	a1,v1,t1
9d00d760:	14a00003 	bnez	a1,9d00d770 <__moddi3+0xc0>
9d00d764:	0066282b 	sltu	a1,v1,a2
9d00d768:	54a00001 	bnezl	a1,9d00d770 <__moddi3+0xc0>
9d00d76c:	00691821 	addu	v1,v1,t1
9d00d770:	00661823 	subu	v1,v1,a2
9d00d774:	0064001b 	divu	zero,v1,a0
9d00d778:	008001f4 	teq	a0,zero,0x7
9d00d77c:	3042ffff 	andi	v0,v0,0xffff
9d00d780:	00001812 	mflo	v1
9d00d784:	00003010 	mfhi	a2
9d00d788:	70672002 	mul	a0,v1,a3
9d00d78c:	00061c00 	sll	v1,a2,0x10
9d00d790:	00621025 	or	v0,v1,v0
9d00d794:	0044182b 	sltu	v1,v0,a0
9d00d798:	50600008 	beqzl	v1,9d00d7bc <__moddi3+0x10c>
9d00d79c:	00441023 	subu	v0,v0,a0
9d00d7a0:	00491021 	addu	v0,v0,t1
9d00d7a4:	0049182b 	sltu	v1,v0,t1
9d00d7a8:	14600003 	bnez	v1,9d00d7b8 <__moddi3+0x108>
9d00d7ac:	0044182b 	sltu	v1,v0,a0
9d00d7b0:	54600001 	bnezl	v1,9d00d7b8 <__moddi3+0x108>
9d00d7b4:	00491021 	addu	v0,v0,t1
9d00d7b8:	00441023 	subu	v0,v0,a0
9d00d7bc:	01421006 	srlv	v0,v0,t2
9d00d7c0:	00001825 	move	v1,zero
9d00d7c4:	11800005 	beqz	t4,9d00d7dc <__moddi3+0x12c>
9d00d7c8:	00000000 	nop
9d00d7cc:	00021023 	negu	v0,v0
9d00d7d0:	0002202b 	sltu	a0,zero,v0
9d00d7d4:	00031823 	negu	v1,v1
9d00d7d8:	00641823 	subu	v1,v1,a0
9d00d7dc:	03e00008 	jr	ra
9d00d7e0:	00000000 	nop
9d00d7e4:	15200006 	bnez	t1,9d00d800 <__moddi3+0x150>
9d00d7e8:	00000000 	nop
9d00d7ec:	24090001 	li	t1,1
9d00d7f0:	0127001b 	divu	zero,t1,a3
9d00d7f4:	00e001f4 	teq	a3,zero,0x7
9d00d7f8:	00004812 	mflo	t1
9d00d7fc:	712a5020 	clz	t2,t1
9d00d800:	15400029 	bnez	t2,9d00d8a8 <__moddi3+0x1f8>
9d00d804:	24070020 	li	a3,32
9d00d808:	00a92823 	subu	a1,a1,t1
9d00d80c:	00092402 	srl	a0,t1,0x10
9d00d810:	00a4001b 	divu	zero,a1,a0
9d00d814:	008001f4 	teq	a0,zero,0x7
9d00d818:	3127ffff 	andi	a3,t1,0xffff
9d00d81c:	00002812 	mflo	a1
9d00d820:	00001810 	mfhi	v1
9d00d824:	70a73002 	mul	a2,a1,a3
9d00d828:	00032c00 	sll	a1,v1,0x10
9d00d82c:	00021c02 	srl	v1,v0,0x10
9d00d830:	00a32825 	or	a1,a1,v1
9d00d834:	00a6182b 	sltu	v1,a1,a2
9d00d838:	50600008 	beqzl	v1,9d00d85c <__moddi3+0x1ac>
9d00d83c:	00a63023 	subu	a2,a1,a2
9d00d840:	00a92821 	addu	a1,a1,t1
9d00d844:	00a9182b 	sltu	v1,a1,t1
9d00d848:	14600003 	bnez	v1,9d00d858 <__moddi3+0x1a8>
9d00d84c:	00a6182b 	sltu	v1,a1,a2
9d00d850:	54600001 	bnezl	v1,9d00d858 <__moddi3+0x1a8>
9d00d854:	00a92821 	addu	a1,a1,t1
9d00d858:	00a63023 	subu	a2,a1,a2
9d00d85c:	00c4001b 	divu	zero,a2,a0
9d00d860:	008001f4 	teq	a0,zero,0x7
9d00d864:	3042ffff 	andi	v0,v0,0xffff
9d00d868:	00003012 	mflo	a2
9d00d86c:	00002810 	mfhi	a1
9d00d870:	70c71802 	mul	v1,a2,a3
9d00d874:	00053400 	sll	a2,a1,0x10
9d00d878:	00c21025 	or	v0,a2,v0
9d00d87c:	0043202b 	sltu	a0,v0,v1
9d00d880:	5080ffce 	beqzl	a0,9d00d7bc <__moddi3+0x10c>
9d00d884:	00431023 	subu	v0,v0,v1
9d00d888:	00491021 	addu	v0,v0,t1
9d00d88c:	0049202b 	sltu	a0,v0,t1
9d00d890:	14800003 	bnez	a0,9d00d8a0 <__moddi3+0x1f0>
9d00d894:	0043202b 	sltu	a0,v0,v1
9d00d898:	54800001 	bnezl	a0,9d00d8a0 <__moddi3+0x1f0>
9d00d89c:	00491021 	addu	v0,v0,t1
9d00d8a0:	1000ffc6 	b	9d00d7bc <__moddi3+0x10c>
9d00d8a4:	00431023 	subu	v0,v0,v1
9d00d8a8:	00ea3823 	subu	a3,a3,t2
9d00d8ac:	01494804 	sllv	t1,t1,t2
9d00d8b0:	00e41806 	srlv	v1,a0,a3
9d00d8b4:	00093402 	srl	a2,t1,0x10
9d00d8b8:	00e53806 	srlv	a3,a1,a3
9d00d8bc:	00e6001b 	divu	zero,a3,a2
9d00d8c0:	00c001f4 	teq	a2,zero,0x7
9d00d8c4:	01451004 	sllv	v0,a1,t2
9d00d8c8:	3128ffff 	andi	t0,t1,0xffff
9d00d8cc:	00621825 	or	v1,v1,v0
9d00d8d0:	00032c02 	srl	a1,v1,0x10
9d00d8d4:	00003812 	mflo	a3
9d00d8d8:	00005810 	mfhi	t3
9d00d8dc:	70e81002 	mul	v0,a3,t0
9d00d8e0:	000b3c00 	sll	a3,t3,0x10
9d00d8e4:	00e53825 	or	a3,a3,a1
9d00d8e8:	00e2282b 	sltu	a1,a3,v0
9d00d8ec:	50a00008 	beqzl	a1,9d00d910 <__moddi3+0x260>
9d00d8f0:	00e23823 	subu	a3,a3,v0
9d00d8f4:	00e93821 	addu	a3,a3,t1
9d00d8f8:	00e9282b 	sltu	a1,a3,t1
9d00d8fc:	14a00003 	bnez	a1,9d00d90c <__moddi3+0x25c>
9d00d900:	00e2282b 	sltu	a1,a3,v0
9d00d904:	54a00001 	bnezl	a1,9d00d90c <__moddi3+0x25c>
9d00d908:	00e93821 	addu	a3,a3,t1
9d00d90c:	00e23823 	subu	a3,a3,v0
9d00d910:	00e6001b 	divu	zero,a3,a2
9d00d914:	00c001f4 	teq	a2,zero,0x7
9d00d918:	3065ffff 	andi	a1,v1,0xffff
9d00d91c:	00003012 	mflo	a2
9d00d920:	00003810 	mfhi	a3
9d00d924:	00073c00 	sll	a3,a3,0x10
9d00d928:	00e52825 	or	a1,a3,a1
9d00d92c:	70c83002 	mul	a2,a2,t0
9d00d930:	00a6102b 	sltu	v0,a1,a2
9d00d934:	10400009 	beqz	v0,9d00d95c <__moddi3+0x2ac>
9d00d938:	01441004 	sllv	v0,a0,t2
9d00d93c:	00a92821 	addu	a1,a1,t1
9d00d940:	00a9102b 	sltu	v0,a1,t1
9d00d944:	14400005 	bnez	v0,9d00d95c <__moddi3+0x2ac>
9d00d948:	01441004 	sllv	v0,a0,t2
9d00d94c:	00a6102b 	sltu	v0,a1,a2
9d00d950:	54400001 	bnezl	v0,9d00d958 <__moddi3+0x2a8>
9d00d954:	00a92821 	addu	a1,a1,t1
9d00d958:	01441004 	sllv	v0,a0,t2
9d00d95c:	1000ffab 	b	9d00d80c <__moddi3+0x15c>
9d00d960:	00a62823 	subu	a1,a1,a2
9d00d964:	00a7402b 	sltu	t0,a1,a3
9d00d968:	1500ff96 	bnez	t0,9d00d7c4 <__moddi3+0x114>
9d00d96c:	70ed6820 	clz	t5,a3
9d00d970:	15a0000a 	bnez	t5,9d00d99c <__moddi3+0x2ec>
9d00d974:	00e5402b 	sltu	t0,a3,a1
9d00d978:	15000003 	bnez	t0,9d00d988 <__moddi3+0x2d8>
9d00d97c:	0086402b 	sltu	t0,a0,a2
9d00d980:	1500ff90 	bnez	t0,9d00d7c4 <__moddi3+0x114>
9d00d984:	00000000 	nop
9d00d988:	00861023 	subu	v0,a0,a2
9d00d98c:	00a72823 	subu	a1,a1,a3
9d00d990:	0082182b 	sltu	v1,a0,v0
9d00d994:	1000ff8b 	b	9d00d7c4 <__moddi3+0x114>
9d00d998:	00a31823 	subu	v1,a1,v1
9d00d99c:	240b0020 	li	t3,32
9d00d9a0:	016d5823 	subu	t3,t3,t5
9d00d9a4:	01664006 	srlv	t0,a2,t3
9d00d9a8:	01a73804 	sllv	a3,a3,t5
9d00d9ac:	01073825 	or	a3,t0,a3
9d00d9b0:	01a51004 	sllv	v0,a1,t5
9d00d9b4:	00074c02 	srl	t1,a3,0x10
9d00d9b8:	01652806 	srlv	a1,a1,t3
9d00d9bc:	00a9001b 	divu	zero,a1,t1
9d00d9c0:	012001f4 	teq	t1,zero,0x7
9d00d9c4:	30e8ffff 	andi	t0,a3,0xffff
9d00d9c8:	01641806 	srlv	v1,a0,t3
9d00d9cc:	00621825 	or	v1,v1,v0
9d00d9d0:	00031402 	srl	v0,v1,0x10
9d00d9d4:	00002812 	mflo	a1
9d00d9d8:	00005010 	mfhi	t2
9d00d9dc:	000a5400 	sll	t2,t2,0x10
9d00d9e0:	01425025 	or	t2,t2,v0
9d00d9e4:	71057002 	mul	t6,t0,a1
9d00d9e8:	014e782b 	sltu	t7,t2,t6
9d00d9ec:	11e0000a 	beqz	t7,9d00da18 <__moddi3+0x368>
9d00d9f0:	00a01025 	move	v0,a1
9d00d9f4:	01475021 	addu	t2,t2,a3
9d00d9f8:	0147782b 	sltu	t7,t2,a3
9d00d9fc:	15e00006 	bnez	t7,9d00da18 <__moddi3+0x368>
9d00da00:	24a2ffff 	addiu	v0,a1,-1
9d00da04:	014e782b 	sltu	t7,t2,t6
9d00da08:	51e00004 	beqzl	t7,9d00da1c <__moddi3+0x36c>
9d00da0c:	014e5023 	subu	t2,t2,t6
9d00da10:	24a2fffe 	addiu	v0,a1,-2
9d00da14:	01475021 	addu	t2,t2,a3
9d00da18:	014e5023 	subu	t2,t2,t6
9d00da1c:	0149001b 	divu	zero,t2,t1
9d00da20:	012001f4 	teq	t1,zero,0x7
9d00da24:	00004812 	mflo	t1
9d00da28:	00005010 	mfhi	t2
9d00da2c:	000a5400 	sll	t2,t2,0x10
9d00da30:	71092802 	mul	a1,t0,t1
9d00da34:	3068ffff 	andi	t0,v1,0xffff
9d00da38:	01484025 	or	t0,t2,t0
9d00da3c:	0105182b 	sltu	v1,t0,a1
9d00da40:	1060000a 	beqz	v1,9d00da6c <__moddi3+0x3bc>
9d00da44:	01205025 	move	t2,t1
9d00da48:	01074021 	addu	t0,t0,a3
9d00da4c:	0107182b 	sltu	v1,t0,a3
9d00da50:	14600006 	bnez	v1,9d00da6c <__moddi3+0x3bc>
9d00da54:	252affff 	addiu	t2,t1,-1
9d00da58:	0105182b 	sltu	v1,t0,a1
9d00da5c:	10600004 	beqz	v1,9d00da70 <__moddi3+0x3c0>
9d00da60:	00027400 	sll	t6,v0,0x10
9d00da64:	252afffe 	addiu	t2,t1,-2
9d00da68:	01074021 	addu	t0,t0,a3
9d00da6c:	00027400 	sll	t6,v0,0x10
9d00da70:	01ca7025 	or	t6,t6,t2
9d00da74:	01a63004 	sllv	a2,a2,t5
9d00da78:	01c60019 	multu	t6,a2
9d00da7c:	01054023 	subu	t0,t0,a1
9d00da80:	01a41804 	sllv	v1,a0,t5
9d00da84:	00007810 	mfhi	t7
9d00da88:	010f102b 	sltu	v0,t0,t7
9d00da8c:	01e02825 	move	a1,t7
9d00da90:	00007012 	mflo	t6
9d00da94:	14400006 	bnez	v0,9d00dab0 <__moddi3+0x400>
9d00da98:	00002012 	mflo	a0
9d00da9c:	150f0009 	bne	t0,t7,9d00dac4 <__moddi3+0x414>
9d00daa0:	00642023 	subu	a0,v1,a0
9d00daa4:	006e102b 	sltu	v0,v1,t6
9d00daa8:	50400007 	beqzl	v0,9d00dac8 <__moddi3+0x418>
9d00daac:	0064182b 	sltu	v1,v1,a0
9d00dab0:	01c62023 	subu	a0,t6,a2
9d00dab4:	01e73823 	subu	a3,t7,a3
9d00dab8:	01c4702b 	sltu	t6,t6,a0
9d00dabc:	00ee2823 	subu	a1,a3,t6
9d00dac0:	00642023 	subu	a0,v1,a0
9d00dac4:	0064182b 	sltu	v1,v1,a0
9d00dac8:	01054023 	subu	t0,t0,a1
9d00dacc:	01031823 	subu	v1,t0,v1
9d00dad0:	01631004 	sllv	v0,v1,t3
9d00dad4:	01a42006 	srlv	a0,a0,t5
9d00dad8:	00441025 	or	v0,v0,a0
9d00dadc:	1000ff39 	b	9d00d7c4 <__moddi3+0x114>
9d00dae0:	01a31806 	srlv	v1,v1,t5

Disassembly of section .text.dp32subadd:

9d00dae4 <__subdf3>:
9d00dae4:	3c018000 00e13826                       ...<&8..

9d00daec <__adddf3>:
9d00daec:	00055840 000b5d42 000552c0 00047d42     @X..B]...R..B}..
9d00dafc:	014f5025 00044ac0 3c088000 01485025     %PO..J.....<%PH.
9d00db0c:	00077040 000e7542 00076ac0 00067d42     @p..Bu...j..B}..
9d00db1c:	01af6825 000662c0 01a86825 256fffff     %h...b..%h....o%
9d00db2c:	2de107fe 1020008d 00000000              ...-.. .....

9d00db38 <Blab1>:
9d00db38:	25cfffff 	addiu	t7,t6,-1
9d00db3c:	2de107fe 	sltiu	at,t7,2046
9d00db40:	102000bb 	beqz	at,9d00de30 <BspecB>
9d00db44:	00000000 	nop

9d00db48 <Blab2>:
9d00db48:	3c018000 	lui	at,0x8000
9d00db4c:	00a12824 	and	a1,a1,at
9d00db50:	016e4023 	subu	t0,t3,t6
9d00db54:	1100002c 	beqz	t0,9d00dc08 <Badd3>
9d00db58:	00000000 	nop
9d00db5c:	19000015 	blez	t0,9d00dbb4 <i1>
9d00db60:	00000000 	nop

9d00db64 <L1>:
9d00db64:	2d010020 	sltiu	at,t0,32
9d00db68:	14200007 	bnez	at,9d00db88 <L2>
9d00db6c:	00000000 	nop
9d00db70:	2108ffe0 	addi	t0,t0,-32
9d00db74:	000c302b 	sltu	a2,zero,t4
9d00db78:	100d0023 	beq	zero,t5,9d00dc08 <Badd3>
9d00db7c:	01a66025 	or	t4,t5,a2
9d00db80:	1000fff8 	b	9d00db64 <L1>
9d00db84:	340d0000 	li	t5,0x0

9d00db88 <L2>:
9d00db88:	1100001f 	beqz	t0,9d00dc08 <Badd3>
9d00db8c:	00000000 	nop
9d00db90:	00082022 	neg	a0,t0
9d00db94:	008c3004 	sllv	a2,t4,a0
9d00db98:	008d2004 	sllv	a0,t5,a0
9d00db9c:	010c6006 	srlv	t4,t4,t0
9d00dba0:	010d6806 	srlv	t5,t5,t0
9d00dba4:	10c00018 	beqz	a2,9d00dc08 <Badd3>
9d00dba8:	008c6025 	or	t4,a0,t4
9d00dbac:	10000016 	b	9d00dc08 <Badd3>
9d00dbb0:	358c0002 	ori	t4,t4,0x2

9d00dbb4 <i1>:
9d00dbb4:	000e5825 	or	t3,zero,t6
9d00dbb8:	00084023 	negu	t0,t0

9d00dbbc <L4>:
9d00dbbc:	2d010020 	sltiu	at,t0,32
9d00dbc0:	14200007 	bnez	at,9d00dbe0 <L5>
9d00dbc4:	00000000 	nop
9d00dbc8:	2108ffe0 	addi	t0,t0,-32
9d00dbcc:	0009302b 	sltu	a2,zero,t1
9d00dbd0:	100a000d 	beq	zero,t2,9d00dc08 <Badd3>
9d00dbd4:	01464825 	or	t1,t2,a2
9d00dbd8:	1000fff8 	b	9d00dbbc <L4>
9d00dbdc:	340a0000 	li	t2,0x0

9d00dbe0 <L5>:
9d00dbe0:	11000009 	beqz	t0,9d00dc08 <Badd3>
9d00dbe4:	00000000 	nop
9d00dbe8:	00082022 	neg	a0,t0
9d00dbec:	00893004 	sllv	a2,t1,a0
9d00dbf0:	008a2004 	sllv	a0,t2,a0
9d00dbf4:	01094806 	srlv	t1,t1,t0
9d00dbf8:	010a5006 	srlv	t2,t2,t0
9d00dbfc:	10c00002 	beqz	a2,9d00dc08 <Badd3>
9d00dc00:	00894825 	or	t1,a0,t1
9d00dc04:	35290002 	ori	t1,t1,0x2

9d00dc08 <Badd3>:
9d00dc08:	00a77826 	xor	t7,a1,a3
9d00dc0c:	05e0001c 	bltz	t7,9d00dc80 <Bsub1>
9d00dc10:	00000000 	nop
9d00dc14:	012c4821 	addu	t1,t1,t4
9d00dc18:	012c782b 	sltu	t7,t1,t4
9d00dc1c:	014d5021 	addu	t2,t2,t5
9d00dc20:	014f5021 	addu	t2,t2,t7
9d00dc24:	114d0002 	beq	t2,t5,9d00dc30 <L7>
9d00dc28:	00000000 	nop
9d00dc2c:	014d782b 	sltu	t7,t2,t5

9d00dc30 <L7>:
9d00dc30:	11e00037 	beqz	t7,9d00dd10 <Bres>
9d00dc34:	00000000 	nop
9d00dc38:	312f0001 	andi	t7,t1,0x1
9d00dc3c:	11e00002 	beqz	t7,9d00dc48 <i3>
9d00dc40:	00000000 	nop
9d00dc44:	35290002 	ori	t1,t1,0x2

9d00dc48 <i3>:
9d00dc48:	00094842 	srl	t1,t1,0x1
9d00dc4c:	000a7fc0 	sll	t7,t2,0x1f
9d00dc50:	012f4825 	or	t1,t1,t7
9d00dc54:	000a5042 	srl	t2,t2,0x1
9d00dc58:	3c018000 	lui	at,0x8000
9d00dc5c:	01415025 	or	t2,t2,at
9d00dc60:	256b0001 	addiu	t3,t3,1
9d00dc64:	240107ff 	li	at,2047
9d00dc68:	15610029 	bne	t3,at,9d00dd10 <Bres>
9d00dc6c:	00000000 	nop
9d00dc70:	3c017ff0 	lui	at,0x7ff0
9d00dc74:	00a12825 	or	a1,a1,at
9d00dc78:	10000037 	b	9d00dd58 <BretA>
9d00dc7c:	24040000 	li	a0,0

9d00dc80 <Bsub1>:
9d00dc80:	012c782b 	sltu	t7,t1,t4
9d00dc84:	012c4823 	subu	t1,t1,t4
9d00dc88:	014f102b 	sltu	v0,t2,t7
9d00dc8c:	014f5023 	subu	t2,t2,t7
9d00dc90:	014d782b 	sltu	t7,t2,t5
9d00dc94:	01e27825 	or	t7,t7,v0
9d00dc98:	11e00007 	beqz	t7,9d00dcb8 <i5>
9d00dc9c:	014d5023 	subu	t2,t2,t5
9d00dca0:	3c018000 	lui	at,0x8000
9d00dca4:	00a12826 	xor	a1,a1,at
9d00dca8:	0009782b 	sltu	t7,zero,t1
9d00dcac:	00094823 	negu	t1,t1
9d00dcb0:	000a5023 	negu	t2,t2
9d00dcb4:	014f5023 	subu	t2,t2,t7

9d00dcb8 <i5>:
9d00dcb8:	15400008 	bnez	t2,9d00dcdc <L8>
9d00dcbc:	00000000 	nop
9d00dcc0:	15200003 	bnez	t1,9d00dcd0 <L9>
9d00dcc4:	00000000 	nop
9d00dcc8:	1000000d 	b	9d00dd00 <L10>
9d00dccc:	240b0000 	li	t3,0

9d00dcd0 <L9>:
9d00dcd0:	01205025 	move	t2,t1
9d00dcd4:	24090000 	li	t1,0
9d00dcd8:	256bffe0 	addiu	t3,t3,-32

9d00dcdc <L8>:
9d00dcdc:	71484020 	clz	t0,t2
9d00dce0:	11000007 	beqz	t0,9d00dd00 <L10>
9d00dce4:	00000000 	nop
9d00dce8:	01685823 	subu	t3,t3,t0
9d00dcec:	00082022 	neg	a0,t0
9d00dcf0:	00892006 	srlv	a0,t1,a0
9d00dcf4:	01094804 	sllv	t1,t1,t0
9d00dcf8:	010a5004 	sllv	t2,t2,t0
9d00dcfc:	01445025 	or	t2,t2,a0

9d00dd00 <L10>:
9d00dd00:	01497825 	or	t7,t2,t1
9d00dd04:	15e00002 	bnez	t7,9d00dd10 <Bres>
9d00dd08:	00000000 	nop
9d00dd0c:	24050000 	li	a1,0

9d00dd10 <Bres>:
9d00dd10:	19600068 	blez	t3,9d00deb4 <Bund>
9d00dd14:	00000000 	nop

9d00dd18 <Blab8>:
9d00dd18:	25290400 	addiu	t1,t1,1024
9d00dd1c:	2d2f0400 	sltiu	t7,t1,1024
9d00dd20:	014f5021 	addu	t2,t2,t7
9d00dd24:	014f782b 	sltu	t7,t2,t7
9d00dd28:	016f5821 	addu	t3,t3,t7
9d00dd2c:	00097ac2 	srl	t7,t1,0xb
9d00dd30:	31ef0001 	andi	t7,t7,0x1
9d00dd34:	012f4823 	subu	t1,t1,t7
9d00dd38:	000922c2 	srl	a0,t1,0xb
9d00dd3c:	000a7d40 	sll	t7,t2,0x15
9d00dd40:	008f2025 	or	a0,a0,t7
9d00dd44:	000a7840 	sll	t7,t2,0x1
9d00dd48:	000f7b02 	srl	t7,t7,0xc
9d00dd4c:	00af2825 	or	a1,a1,t7
9d00dd50:	000b7d00 	sll	t7,t3,0x14
9d00dd54:	00af2825 	or	a1,a1,t7

9d00dd58 <BretA>:
9d00dd58:	00041025 	or	v0,zero,a0
9d00dd5c:	00051825 	or	v1,zero,a1

9d00dd60 <B999>:
9d00dd60:	03e00008 	jr	ra
9d00dd64:	00000000 	nop

9d00dd68 <BspecA>:
9d00dd68:	0120782a 	slt	t7,t1,zero
9d00dd6c:	01294821 	addu	t1,t1,t1
9d00dd70:	014a5021 	addu	t2,t2,t2
9d00dd74:	15600023 	bnez	t3,9d00de04 <i7>
9d00dd78:	014f5021 	addu	t2,t2,t7
9d00dd7c:	01497825 	or	t7,t2,t1
9d00dd80:	11e00014 	beqz	t7,9d00ddd4 <i8>
9d00dd84:	00000000 	nop
9d00dd88:	15400008 	bnez	t2,9d00ddac <L11>
9d00dd8c:	00000000 	nop
9d00dd90:	15200003 	bnez	t1,9d00dda0 <L12>
9d00dd94:	00000000 	nop
9d00dd98:	1000ff67 	b	9d00db38 <Blab1>
9d00dd9c:	240b0000 	li	t3,0

9d00dda0 <L12>:
9d00dda0:	01205025 	move	t2,t1
9d00dda4:	24090000 	li	t1,0
9d00dda8:	256bffe0 	addiu	t3,t3,-32

9d00ddac <L11>:
9d00ddac:	71484020 	clz	t0,t2
9d00ddb0:	1100ff61 	beqz	t0,9d00db38 <Blab1>
9d00ddb4:	00000000 	nop
9d00ddb8:	01685823 	subu	t3,t3,t0
9d00ddbc:	00082022 	neg	a0,t0
9d00ddc0:	00892006 	srlv	a0,t1,a0
9d00ddc4:	01094804 	sllv	t1,t1,t0
9d00ddc8:	010a5004 	sllv	t2,t2,t0
9d00ddcc:	1000ff5a 	b	9d00db38 <Blab1>
9d00ddd0:	01445025 	or	t2,t2,a0

9d00ddd4 <i8>:
9d00ddd4:	240107ff 	li	at,2047
9d00ddd8:	11c10015 	beq	t6,at,9d00de30 <BspecB>
9d00dddc:	00000000 	nop
9d00dde0:	00e74021 	addu	t0,a3,a3
9d00dde4:	01067825 	or	t7,t0,a2
9d00dde8:	15e00003 	bnez	t7,9d00ddf8 <BretB>
9d00ddec:	00000000 	nop
9d00ddf0:	04e0ffd9 	bltz	a3,9d00dd58 <BretA>
9d00ddf4:	00000000 	nop

9d00ddf8 <BretB>:
9d00ddf8:	00061025 	or	v0,zero,a2
9d00ddfc:	1000ffd8 	b	9d00dd60 <B999>
9d00de00:	00071825 	or	v1,zero,a3

9d00de04 <i7>:
9d00de04:	01497825 	or	t7,t2,t1
9d00de08:	15e00027 	bnez	t7,9d00dea8 <Bnan>
9d00de0c:	00000000 	nop
9d00de10:	240107ff 	li	at,2047
9d00de14:	15c1ffd0 	bne	t6,at,9d00dd58 <BretA>
9d00de18:	00000000 	nop
9d00de1c:	00a77826 	xor	t7,a1,a3
9d00de20:	05e00021 	bltz	t7,9d00dea8 <Bnan>
9d00de24:	00000000 	nop
9d00de28:	1000fff3 	b	9d00ddf8 <BretB>
9d00de2c:	00000000 	nop

9d00de30 <BspecB>:
9d00de30:	0180782a 	slt	t7,t4,zero
9d00de34:	018c6021 	addu	t4,t4,t4
9d00de38:	01ad6821 	addu	t5,t5,t5
9d00de3c:	15c00017 	bnez	t6,9d00de9c <i11>
9d00de40:	01af6821 	addu	t5,t5,t7
9d00de44:	01ac7825 	or	t7,t5,t4
9d00de48:	11e0ffc3 	beqz	t7,9d00dd58 <BretA>
9d00de4c:	00000000 	nop
9d00de50:	15a00008 	bnez	t5,9d00de74 <L14>
9d00de54:	00000000 	nop
9d00de58:	15800003 	bnez	t4,9d00de68 <L15>
9d00de5c:	00000000 	nop
9d00de60:	1000ff39 	b	9d00db48 <Blab2>
9d00de64:	240e0000 	li	t6,0

9d00de68 <L15>:
9d00de68:	01806825 	move	t5,t4
9d00de6c:	240c0000 	li	t4,0
9d00de70:	25ceffe0 	addiu	t6,t6,-32

9d00de74 <L14>:
9d00de74:	71a84020 	clz	t0,t5
9d00de78:	1100ff33 	beqz	t0,9d00db48 <Blab2>
9d00de7c:	00000000 	nop
9d00de80:	01c87023 	subu	t6,t6,t0
9d00de84:	00082022 	neg	a0,t0
9d00de88:	008c2006 	srlv	a0,t4,a0
9d00de8c:	010c6004 	sllv	t4,t4,t0
9d00de90:	010d6804 	sllv	t5,t5,t0
9d00de94:	1000ff2c 	b	9d00db48 <Blab2>
9d00de98:	01a46825 	or	t5,t5,a0

9d00de9c <i11>:
9d00de9c:	01ac7825 	or	t7,t5,t4
9d00dea0:	11e0ffd5 	beqz	t7,9d00ddf8 <BretB>
9d00dea4:	00000000 	nop

9d00dea8 <Bnan>:
9d00dea8:	3c05fff8 	lui	a1,0xfff8
9d00deac:	1000ffaa 	b	9d00dd58 <BretA>
9d00deb0:	24040000 	li	a0,0

9d00deb4 <Bund>:
9d00deb4:	24080001 	li	t0,1
9d00deb8:	010b4023 	subu	t0,t0,t3

9d00debc <L17>:
9d00debc:	2d010020 	sltiu	at,t0,32
9d00dec0:	14200007 	bnez	at,9d00dee0 <L18>
9d00dec4:	00000000 	nop
9d00dec8:	2108ffe0 	addi	t0,t0,-32
9d00decc:	0009302b 	sltu	a2,zero,t1
9d00ded0:	100a000d 	beq	zero,t2,9d00df08 <L19>
9d00ded4:	01464825 	or	t1,t2,a2
9d00ded8:	1000fff8 	b	9d00debc <L17>
9d00dedc:	340a0000 	li	t2,0x0

9d00dee0 <L18>:
9d00dee0:	11000009 	beqz	t0,9d00df08 <L19>
9d00dee4:	00000000 	nop
9d00dee8:	00082022 	neg	a0,t0
9d00deec:	00893004 	sllv	a2,t1,a0
9d00def0:	008a2004 	sllv	a0,t2,a0
9d00def4:	01094806 	srlv	t1,t1,t0
9d00def8:	010a5006 	srlv	t2,t2,t0
9d00defc:	10c00002 	beqz	a2,9d00df08 <L19>
9d00df00:	00894825 	or	t1,a0,t1
9d00df04:	35290002 	ori	t1,t1,0x2

9d00df08 <L19>:
9d00df08:	1000ff83 	b	9d00dd18 <Blab8>
9d00df0c:	240b0000 	li	t3,0
9d00df10:	00000000 	nop

Disassembly of section .text.__scan_fp:

9d00df14 <__scan_fp>:
9d00df14:	27bdffb0 	addiu	sp,sp,-80
9d00df18:	afb60040 	sw	s6,64(sp)
9d00df1c:	afb00028 	sw	s0,40(sp)
9d00df20:	00e0b025 	move	s6,a3
9d00df24:	8cd00010 	lw	s0,16(a2)
9d00df28:	afb70044 	sw	s7,68(sp)
9d00df2c:	afb5003c 	sw	s5,60(sp)
9d00df30:	afb40038 	sw	s4,56(sp)
9d00df34:	afb30034 	sw	s3,52(sp)
9d00df38:	afb20030 	sw	s2,48(sp)
9d00df3c:	afb1002c 	sw	s1,44(sp)
9d00df40:	00809825 	move	s3,a0
9d00df44:	8cd10008 	lw	s1,8(a2)
9d00df48:	8cd4000c 	lw	s4,12(a2)
9d00df4c:	afbf004c 	sw	ra,76(sp)
9d00df50:	afbe0048 	sw	s8,72(sp)
9d00df54:	0f404ad2 	jal	9d012b48 <__skipws>
9d00df58:	afa50054 	sw	a1,84(sp)
9d00df5c:	8ec40000 	lw	a0,0(s6)
9d00df60:	2603ffff 	addiu	v1,s0,-1
9d00df64:	0071880a 	movz	s1,v1,s1
9d00df68:	00821021 	addu	v0,a0,v0
9d00df6c:	aec20000 	sw	v0,0(s6)
9d00df70:	0071102a 	slt	v0,v1,s1
9d00df74:	0222180a 	movz	v1,s1,v0
9d00df78:	afa30024 	sw	v1,36(sp)
9d00df7c:	02808825 	move	s1,s4
9d00df80:	24170001 	li	s7,1
9d00df84:	00008025 	move	s0,zero
9d00df88:	afa0001c 	sw	zero,28(sp)
9d00df8c:	00009025 	move	s2,zero
9d00df90:	0000a825 	move	s5,zero
9d00df94:	afa00020 	sw	zero,32(sp)
9d00df98:	8fa20024 	lw	v0,36(sp)
9d00df9c:	0202102a 	slt	v0,s0,v0
9d00dfa0:	10400017 	beqz	v0,9d00e000 <__scan_fp+0xec>
9d00dfa4:	afb00018 	sw	s0,24(sp)
9d00dfa8:	8e62003c 	lw	v0,60(s3)
9d00dfac:	8e63004c 	lw	v1,76(s3)
9d00dfb0:	0043182b 	sltu	v1,v0,v1
9d00dfb4:	10600022 	beqz	v1,9d00e040 <__scan_fp+0x12c>
9d00dfb8:	24430001 	addiu	v1,v0,1
9d00dfbc:	ae63003c 	sw	v1,60(s3)
9d00dfc0:	905e0000 	lbu	s8,0(v0)
9d00dfc4:	27c2ffd5 	addiu	v0,s8,-43
9d00dfc8:	7c020844 	ins	v0,zero,0x1,0x1
9d00dfcc:	00521025 	or	v0,v0,s2
9d00dfd0:	54400038 	bnezl	v0,9d00e0b4 <__scan_fp+0x1a0>
9d00dfd4:	8fa20020 	lw	v0,32(sp)
9d00dfd8:	5200002e 	beqzl	s0,9d00e094 <__scan_fp+0x180>
9d00dfdc:	a23e0000 	sb	s8,0(s1)
9d00dfe0:	52b0002c 	beql	s5,s0,9d00e094 <__scan_fp+0x180>
9d00dfe4:	a23e0000 	sb	s8,0(s1)
9d00dfe8:	8e62004c 	lw	v0,76(s3)
9d00dfec:	10400005 	beqz	v0,9d00e004 <__scan_fp+0xf0>
9d00dff0:	8fa20018 	lw	v0,24(sp)
9d00dff4:	8e62003c 	lw	v0,60(s3)
9d00dff8:	2442ffff 	addiu	v0,v0,-1
9d00dffc:	ae62003c 	sw	v0,60(s3)
9d00e000:	8fa20018 	lw	v0,24(sp)
9d00e004:	02802025 	move	a0,s4
9d00e008:	27a50010 	addiu	a1,sp,16
9d00e00c:	02829821 	addu	s3,s4,v0
9d00e010:	0f405373 	jal	9d014dcc <strtold>
9d00e014:	a2600000 	sb	zero,0(s3)
9d00e018:	8fa40054 	lw	a0,84(sp)
9d00e01c:	ac830004 	sw	v1,4(a0)
9d00e020:	8fa30010 	lw	v1,16(sp)
9d00e024:	ac820000 	sw	v0,0(a0)
9d00e028:	2402fffe 	li	v0,-2
9d00e02c:	0074a026 	xor	s4,v1,s4
9d00e030:	24030001 	li	v1,1
9d00e034:	0054180a 	movz	v1,v0,s4
9d00e038:	10000009 	b	9d00e060 <__scan_fp+0x14c>
9d00e03c:	0060f025 	move	s8,v1
9d00e040:	0f404aa5 	jal	9d012a94 <__shgetc>
9d00e044:	02602025 	move	a0,s3
9d00e048:	0040f025 	move	s8,v0
9d00e04c:	2402ffff 	li	v0,-1
9d00e050:	17c2ffdc 	bne	s8,v0,9d00dfc4 <__scan_fp+0xb0>
9d00e054:	8fa20018 	lw	v0,24(sp)
9d00e058:	5440ffeb 	bnezl	v0,9d00e008 <__scan_fp+0xf4>
9d00e05c:	02802025 	move	a0,s4
9d00e060:	8fbf004c 	lw	ra,76(sp)
9d00e064:	03c01025 	move	v0,s8
9d00e068:	8fb70044 	lw	s7,68(sp)
9d00e06c:	8fbe0048 	lw	s8,72(sp)
9d00e070:	8fb60040 	lw	s6,64(sp)
9d00e074:	8fb5003c 	lw	s5,60(sp)
9d00e078:	8fb40038 	lw	s4,56(sp)
9d00e07c:	8fb30034 	lw	s3,52(sp)
9d00e080:	8fb20030 	lw	s2,48(sp)
9d00e084:	8fb1002c 	lw	s1,44(sp)
9d00e088:	8fb00028 	lw	s0,40(sp)
9d00e08c:	03e00008 	jr	ra
9d00e090:	27bd0050 	addiu	sp,sp,80
9d00e094:	8ec20000 	lw	v0,0(s6)
9d00e098:	24120001 	li	s2,1
9d00e09c:	24420001 	addiu	v0,v0,1
9d00e0a0:	aec20000 	sw	v0,0(s6)
9d00e0a4:	26100001 	addiu	s0,s0,1
9d00e0a8:	26f70001 	addiu	s7,s7,1
9d00e0ac:	1000ffba 	b	9d00df98 <__scan_fp+0x84>
9d00e0b0:	26310001 	addiu	s1,s1,1
9d00e0b4:	1440000c 	bnez	v0,9d00e0e8 <__scan_fp+0x1d4>
9d00e0b8:	2402002e 	li	v0,46
9d00e0bc:	17c2000a 	bne	s8,v0,9d00e0e8 <__scan_fp+0x1d4>
9d00e0c0:	00000000 	nop
9d00e0c4:	56a0ffc9 	bnezl	s5,9d00dfec <__scan_fp+0xd8>
9d00e0c8:	8e62004c 	lw	v0,76(s3)
9d00e0cc:	a23e0000 	sb	s8,0(s1)
9d00e0d0:	8ec20000 	lw	v0,0(s6)
9d00e0d4:	24420001 	addiu	v0,v0,1
9d00e0d8:	aec20000 	sw	v0,0(s6)
9d00e0dc:	24020001 	li	v0,1
9d00e0e0:	1000fff0 	b	9d00e0a4 <__scan_fp+0x190>
9d00e0e4:	afa20020 	sw	v0,32(sp)
9d00e0e8:	16a0004b 	bnez	s5,9d00e218 <__scan_fp+0x304>
9d00e0ec:	8fa2001c 	lw	v0,28(sp)
9d00e0f0:	1040000e 	beqz	v0,9d00e12c <__scan_fp+0x218>
9d00e0f4:	03c02025 	move	a0,s8
9d00e0f8:	0f40538f 	jal	9d014e3c <tolower>
9d00e0fc:	00000000 	nop
9d00e100:	38420070 	xori	v0,v0,0x70
9d00e104:	2c420001 	sltiu	v0,v0,1
9d00e108:	10400041 	beqz	v0,9d00e210 <__scan_fp+0x2fc>
9d00e10c:	26420001 	addiu	v0,s2,1
9d00e110:	a23e0000 	sb	s8,0(s1)
9d00e114:	8ec20000 	lw	v0,0(s6)
9d00e118:	00009025 	move	s2,zero
9d00e11c:	02e0a825 	move	s5,s7
9d00e120:	24420001 	addiu	v0,v0,1
9d00e124:	1000ffdf 	b	9d00e0a4 <__scan_fp+0x190>
9d00e128:	aec20000 	sw	v0,0(s6)
9d00e12c:	0f40538f 	jal	9d014e3c <tolower>
9d00e130:	00000000 	nop
9d00e134:	1000fff3 	b	9d00e104 <__scan_fp+0x1f0>
9d00e138:	38420065 	xori	v0,v0,0x65
9d00e13c:	0f40538f 	jal	9d014e3c <tolower>
9d00e140:	03c02025 	move	a0,s8
9d00e144:	24030078 	li	v1,120
9d00e148:	14430033 	bne	v0,v1,9d00e218 <__scan_fp+0x304>
9d00e14c:	24030030 	li	v1,48
9d00e150:	8222ffff 	lb	v0,-1(s1)
9d00e154:	14430031 	bne	v0,v1,9d00e21c <__scan_fp+0x308>
9d00e158:	8fa2001c 	lw	v0,28(sp)
9d00e15c:	a23e0000 	sb	s8,0(s1)
9d00e160:	8ec20000 	lw	v0,0(s6)
9d00e164:	24420001 	addiu	v0,v0,1
9d00e168:	aec20000 	sw	v0,0(s6)
9d00e16c:	24020001 	li	v0,1
9d00e170:	1000ffcc 	b	9d00e0a4 <__scan_fp+0x190>
9d00e174:	afa2001c 	sw	v0,28(sp)
9d00e178:	2c42000a 	sltiu	v0,v0,10
9d00e17c:	1000002c 	b	9d00e230 <__scan_fp+0x31c>
9d00e180:	38420001 	xori	v0,v0,0x1
9d00e184:	0f404aa5 	jal	9d012a94 <__shgetc>
9d00e188:	02602025 	move	a0,s3
9d00e18c:	0040b825 	move	s7,v0
9d00e190:	2402ffff 	li	v0,-1
9d00e194:	52e2ff9b 	beql	s7,v0,9d00e004 <__scan_fp+0xf0>
9d00e198:	8fa20018 	lw	v0,24(sp)
9d00e19c:	10000043 	b	9d00e2ac <__scan_fp+0x398>
9d00e1a0:	02e02025 	move	a0,s7
9d00e1a4:	0f40538f 	jal	9d014e3c <tolower>
9d00e1a8:	00000000 	nop
9d00e1ac:	00122080 	sll	a0,s2,0x2
9d00e1b0:	27a30010 	addiu	v1,sp,16
9d00e1b4:	00642021 	addu	a0,v1,a0
9d00e1b8:	8c840000 	lw	a0,0(a0)
9d00e1bc:	00952021 	addu	a0,a0,s5
9d00e1c0:	80840000 	lb	a0,0(a0)
9d00e1c4:	54440044 	bnel	v0,a0,9d00e2d8 <__scan_fp+0x3c4>
9d00e1c8:	023e882a 	slt	s1,s1,s8
9d00e1cc:	029e1821 	addu	v1,s4,s8
9d00e1d0:	26b50001 	addiu	s5,s5,1
9d00e1d4:	24020003 	li	v0,3
9d00e1d8:	16a2002a 	bne	s5,v0,9d00e284 <__scan_fp+0x370>
9d00e1dc:	a0770000 	sb	s7,0(v1)
9d00e1e0:	26020003 	addiu	v0,s0,3
9d00e1e4:	afa20018 	sw	v0,24(sp)
9d00e1e8:	8ec20000 	lw	v0,0(s6)
9d00e1ec:	24420003 	addiu	v0,v0,3
9d00e1f0:	1000ff83 	b	9d00e000 <__scan_fp+0xec>
9d00e1f4:	aec20000 	sw	v0,0(s6)
9d00e1f8:	1000fff4 	b	9d00e1cc <__scan_fp+0x2b8>
9d00e1fc:	00009025 	move	s2,zero
9d00e200:	8ec20000 	lw	v0,0(s6)
9d00e204:	24420001 	addiu	v0,v0,1
9d00e208:	1000ffa6 	b	9d00e0a4 <__scan_fp+0x190>
9d00e20c:	aec20000 	sw	v0,0(s6)
9d00e210:	1050ffca 	beq	v0,s0,9d00e13c <__scan_fp+0x228>
9d00e214:	00000000 	nop
9d00e218:	8fa2001c 	lw	v0,28(sp)
9d00e21c:	1040ffd6 	beqz	v0,9d00e178 <__scan_fp+0x264>
9d00e220:	27c2ffd0 	addiu	v0,s8,-48
9d00e224:	0f405343 	jal	9d014d0c <isxdigit>
9d00e228:	03c02025 	move	a0,s8
9d00e22c:	2c420001 	sltiu	v0,v0,1
9d00e230:	5040fff3 	beqzl	v0,9d00e200 <__scan_fp+0x2ec>
9d00e234:	a23e0000 	sb	s8,0(s1)
9d00e238:	8e62004c 	lw	v0,76(s3)
9d00e23c:	10400004 	beqz	v0,9d00e250 <__scan_fp+0x33c>
9d00e240:	00000000 	nop
9d00e244:	8e62003c 	lw	v0,60(s3)
9d00e248:	2442ffff 	addiu	v0,v0,-1
9d00e24c:	ae62003c 	sw	v0,60(s3)
9d00e250:	1612ff6b 	bne	s0,s2,9d00e000 <__scan_fp+0xec>
9d00e254:	3c029d00 	lui	v0,0x9d00
9d00e258:	24427580 	addiu	v0,v0,30080
9d00e25c:	afa20010 	sw	v0,16(sp)
9d00e260:	8fa20024 	lw	v0,36(sp)
9d00e264:	26110002 	addiu	s1,s0,2
9d00e268:	0222102a 	slt	v0,s1,v0
9d00e26c:	1040ff64 	beqz	v0,9d00e000 <__scan_fp+0xec>
9d00e270:	3c029d00 	lui	v0,0x9d00
9d00e274:	24427584 	addiu	v0,v0,30084
9d00e278:	afa20014 	sw	v0,20(sp)
9d00e27c:	0000a825 	move	s5,zero
9d00e280:	2412ffff 	li	s2,-1
9d00e284:	8e62003c 	lw	v0,60(s3)
9d00e288:	8e64004c 	lw	a0,76(s3)
9d00e28c:	0044202b 	sltu	a0,v0,a0
9d00e290:	1080ffbc 	beqz	a0,9d00e184 <__scan_fp+0x270>
9d00e294:	02b0f021 	addu	s8,s5,s0
9d00e298:	24440001 	addiu	a0,v0,1
9d00e29c:	ae64003c 	sw	a0,60(s3)
9d00e2a0:	90570000 	lbu	s7,0(v0)
9d00e2a4:	2402ffff 	li	v0,-1
9d00e2a8:	02e02025 	move	a0,s7
9d00e2ac:	1642ffbd 	bne	s2,v0,9d00e1a4 <__scan_fp+0x290>
9d00e2b0:	00000000 	nop
9d00e2b4:	0f40538f 	jal	9d014e3c <tolower>
9d00e2b8:	00000000 	nop
9d00e2bc:	0040b825 	move	s7,v0
9d00e2c0:	24020069 	li	v0,105
9d00e2c4:	12e2ffcc 	beq	s7,v0,9d00e1f8 <__scan_fp+0x2e4>
9d00e2c8:	2402006e 	li	v0,110
9d00e2cc:	52e2ffbf 	beql	s7,v0,9d00e1cc <__scan_fp+0x2b8>
9d00e2d0:	24120001 	li	s2,1
9d00e2d4:	023e882a 	slt	s1,s1,s8
9d00e2d8:	1620ffc2 	bnez	s1,9d00e1e4 <__scan_fp+0x2d0>
9d00e2dc:	26020003 	addiu	v0,s0,3
9d00e2e0:	27deffff 	addiu	s8,s8,-1
9d00e2e4:	03d0102a 	slt	v0,s8,s0
9d00e2e8:	1440ff46 	bnez	v0,9d00e004 <__scan_fp+0xf0>
9d00e2ec:	8fa20018 	lw	v0,24(sp)
9d00e2f0:	8e62004c 	lw	v0,76(s3)
9d00e2f4:	5040fffb 	beqzl	v0,9d00e2e4 <__scan_fp+0x3d0>
9d00e2f8:	27deffff 	addiu	s8,s8,-1
9d00e2fc:	8e62003c 	lw	v0,60(s3)
9d00e300:	2442ffff 	addiu	v0,v0,-1
9d00e304:	1000fff6 	b	9d00e2e0 <__scan_fp+0x3cc>
9d00e308:	ae62003c 	sw	v0,60(s3)

Disassembly of section .text:

9d00e30c <UART2_Startup>:
  else if(IFS1bits.U2EIF) { // if it is an error interrupt. check U3STA for reason 

  }
}

void UART2_Startup() {
9d00e30c:	27bdfff8 	addiu	sp,sp,-8
9d00e310:	afbf0004 	sw	ra,4(sp)
    __builtin_disable_interrupts(); // disable interrupts while initializing things
9d00e314:	41626000 	di	v0
9d00e318:	000000c0 	ehb

    //UART2 pins
    U2RXRbits.U2RXR = 0b0011;     //setting RB11 as U2RX
9d00e31c:	3c02bf81 	lui	v0,0xbf81
9d00e320:	9043fa58 	lbu	v1,-1448(v0)
9d00e324:	24040003 	li	a0,3
9d00e328:	7c831804 	ins	v1,a0,0x0,0x4
9d00e32c:	a043fa58 	sb	v1,-1448(v0)
    RPB0Rbits.RPB0R = 0b0010;     //setting RB0 as U2TX
9d00e330:	3c02bf81 	lui	v0,0xbf81
9d00e334:	9043fb2c 	lbu	v1,-1236(v0)
9d00e338:	24040002 	li	a0,2
9d00e33c:	7c831804 	ins	v1,a0,0x0,0x4
9d00e340:	a043fb2c 	sb	v1,-1236(v0)

    // turn on UART1 without an interrupt CHANGE!!!
    U2MODEbits.BRGH = 0; // set baud to NU32_DESIRED_BAUD
9d00e344:	3c02bf80 	lui	v0,0xbf80
9d00e348:	94436200 	lhu	v1,25088(v0)
9d00e34c:	7c0318c4 	ins	v1,zero,0x3,0x1
9d00e350:	a4436200 	sh	v1,25088(v0)
    U2BRG = ((NU32DIP_SYS_FREQ / NU32DIP_DESIRED_BAUD) / 16) - 1;
9d00e354:	3c03bf80 	lui	v1,0xbf80
9d00e358:	2404000c 	li	a0,12
9d00e35c:	ac646240 	sw	a0,25152(v1)

    // 8 bit, no parity bit, and 1 stop bit (8N1 setup)
    U2MODEbits.PDSEL = 0;
9d00e360:	94436200 	lhu	v1,25088(v0)
9d00e364:	7c031044 	ins	v1,zero,0x1,0x2
9d00e368:	a4436200 	sh	v1,25088(v0)
    U2MODEbits.STSEL = 0;
9d00e36c:	94436200 	lhu	v1,25088(v0)
9d00e370:	7c030004 	ins	v1,zero,0x0,0x1
9d00e374:	a4436200 	sh	v1,25088(v0)

    // configure TX & RX pins as output & input pins
    U2STAbits.URXEN = 1;          //enable receive
9d00e378:	3c03bf80 	lui	v1,0xbf80
9d00e37c:	8c656210 	lw	a1,25104(v1)
9d00e380:	24040001 	li	a0,1
9d00e384:	7c856304 	ins	a1,a0,0xc,0x1
9d00e388:	ac656210 	sw	a1,25104(v1)
    U2STAbits.UTXEN = 1;          //enable transmit
9d00e38c:	8c656210 	lw	a1,25104(v1)
9d00e390:	7c855284 	ins	a1,a0,0xa,0x1
9d00e394:	ac656210 	sw	a1,25104(v1)
    // configure without hardware flow control
    U2MODEbits.UEN = 0;
9d00e398:	94456200 	lhu	a1,25088(v0)
9d00e39c:	7c054a04 	ins	a1,zero,0x8,0x2
9d00e3a0:	a4456200 	sh	a1,25088(v0)

    U2STAbits.URXISEL = 0x0;    // RX interrupt when receive buffer not empty
9d00e3a4:	8c656210 	lw	a1,25104(v1)
9d00e3a8:	7c053984 	ins	a1,zero,0x6,0x2
9d00e3ac:	ac656210 	sw	a1,25104(v1)
    IFS1bits.U2RXIF = 0;        // clear the rx interrupt flag. for
9d00e3b0:	3c03bf88 	lui	v1,0xbf88
9d00e3b4:	8c651040 	lw	a1,4160(v1)
9d00e3b8:	7c05b584 	ins	a1,zero,0x16,0x1
9d00e3bc:	ac651040 	sw	a1,4160(v1)
                                // tx or error interrupts you would also need to clear
                                // the respective flags

    IPC9bits.U2IP = 7;          // interrupt priority 7
9d00e3c0:	3c03bf88 	lui	v1,0xbf88
9d00e3c4:	8c651120 	lw	a1,4384(v1)
9d00e3c8:	24060007 	li	a2,7
9d00e3cc:	7cc56284 	ins	a1,a2,0xa,0x3
9d00e3d0:	ac651120 	sw	a1,4384(v1)
    IEC1bits.U2RXIE = 1;        // enable the RX interrupt
9d00e3d4:	3c03bf88 	lui	v1,0xbf88
9d00e3d8:	8c651070 	lw	a1,4208(v1)
9d00e3dc:	7c85b584 	ins	a1,a0,0x16,0x1
9d00e3e0:	ac651070 	sw	a1,4208(v1)

    // enable the uart
    U2MODEbits.ON = 1;
9d00e3e4:	94436200 	lhu	v1,25088(v0)
9d00e3e8:	7c837bc4 	ins	v1,a0,0xf,0x1
9d00e3ec:	a4436200 	sh	v1,25088(v0)

    __builtin_enable_interrupts();
9d00e3f0:	41626020 	ei	v0
}
9d00e3f4:	8fbf0004 	lw	ra,4(sp)
9d00e3f8:	03e00008 	jr	ra
9d00e3fc:	27bd0008 	addiu	sp,sp,8

9d00e400 <WriteUART2>:

void WriteUART2(const char * string) {
    while (*string != '\0') {
9d00e400:	80820000 	lb	v0,0(a0)
9d00e404:	1040000b 	beqz	v0,9d00e434 <WriteUART2+0x34>
9d00e408:	3c06bf80 	lui	a2,0xbf80
        while (U2STAbits.UTXBF) {
            ; // wait until tx buffer isn't full
        }
        U2TXREG = *string;
9d00e40c:	3c05bf80 	lui	a1,0xbf80
        while (U2STAbits.UTXBF) {
9d00e410:	8cc36210 	lw	v1,25104(a2)
9d00e414:	7c630240 	ext	v1,v1,0x9,0x1
9d00e418:	1460fffd 	bnez	v1,9d00e410 <WriteUART2+0x10>
9d00e41c:	00000000 	nop
        U2TXREG = *string;
9d00e420:	aca26220 	sw	v0,25120(a1)
        ++string;
9d00e424:	24840001 	addiu	a0,a0,1
    while (*string != '\0') {
9d00e428:	80820000 	lb	v0,0(a0)
9d00e42c:	1440fff8 	bnez	v0,9d00e410 <WriteUART2+0x10>
9d00e430:	00000000 	nop
    }
}
9d00e434:	03e00008 	jr	ra
9d00e438:	00000000 	nop

9d00e43c <get_encoder_count>:


int get_encoder_count(){
9d00e43c:	27bdffe0 	addiu	sp,sp,-32
9d00e440:	afbf001c 	sw	ra,28(sp)
    WriteUART2("a");
9d00e444:	3c049d00 	lui	a0,0x9d00
9d00e448:	0f403900 	jal	9d00e400 <WriteUART2>
9d00e44c:	24847528 	addiu	a0,a0,29992
    return encode_count;
    
}

int get_encoder_flag(){
  return encoder_flag;
9d00e450:	8f828044 	lw	v0,-32700(gp)
    while(!get_encoder_flag()){
9d00e454:	1040fffe 	beqz	v0,9d00e450 <get_encoder_count+0x14>
9d00e458:	00000000 	nop
}

void set_encoder_flag(int set){
  encoder_flag = set;
9d00e45c:	af808044 	sw	zero,-32700(gp)
    sscanf(mess, "%d", &encode_count);
9d00e460:	27a60010 	addiu	a2,sp,16
9d00e464:	3c059d00 	lui	a1,0x9d00
9d00e468:	24a5752c 	addiu	a1,a1,29996
9d00e46c:	3c04a001 	lui	a0,0xa001
9d00e470:	0f405312 	jal	9d014c48 <_dsscanf_cdnopuxX>
9d00e474:	2484a2a0 	addiu	a0,a0,-23904
}
9d00e478:	8fa20010 	lw	v0,16(sp)
9d00e47c:	8fbf001c 	lw	ra,28(sp)
9d00e480:	03e00008 	jr	ra
9d00e484:	27bd0020 	addiu	sp,sp,32

9d00e488 <get_encoder_flag>:
  return encoder_flag;
9d00e488:	8f828044 	lw	v0,-32700(gp)
}
9d00e48c:	03e00008 	jr	ra
9d00e490:	00000000 	nop

9d00e494 <set_encoder_flag>:
  encoder_flag = set;
9d00e494:	af848044 	sw	a0,-32700(gp)
}
9d00e498:	03e00008 	jr	ra
9d00e49c:	00000000 	nop

9d00e4a0 <reset_encoder>:

void reset_encoder(){
9d00e4a0:	27bdffe8 	addiu	sp,sp,-24
9d00e4a4:	afbf0014 	sw	ra,20(sp)
    WriteUART2("b");
9d00e4a8:	3c049d00 	lui	a0,0x9d00
9d00e4ac:	0f403900 	jal	9d00e400 <WriteUART2>
9d00e4b0:	24847530 	addiu	a0,a0,30000
}
9d00e4b4:	8fbf0014 	lw	ra,20(sp)
9d00e4b8:	03e00008 	jr	ra
9d00e4bc:	27bd0018 	addiu	sp,sp,24

9d00e4c0 <get_encoder_degrees>:

float get_encoder_degrees() {
9d00e4c0:	27bdffe8 	addiu	sp,sp,-24
9d00e4c4:	afbf0014 	sw	ra,20(sp)
    int encoder_count = get_encoder_count();
9d00e4c8:	0f40390f 	jal	9d00e43c <get_encoder_count>
9d00e4cc:	00000000 	nop
    float encoder_degrees = encoder_count/9.3333333;
9d00e4d0:	0f404ec2 	jal	9d013b08 <__floatsidf>
9d00e4d4:	00402025 	move	a0,v0
9d00e4d8:	3c049d00 	lui	a0,0x9d00
9d00e4dc:	8c867538 	lw	a2,30008(a0)
9d00e4e0:	8c87753c 	lw	a3,30012(a0)
9d00e4e4:	00402025 	move	a0,v0
9d00e4e8:	0f403136 	jal	9d00c4d8 <__divdf3>
9d00e4ec:	00602825 	move	a1,v1
9d00e4f0:	00402025 	move	a0,v0
9d00e4f4:	0f40488b 	jal	9d01222c <__truncdfsf2>
9d00e4f8:	00602825 	move	a1,v1
    return encoder_degrees;
}
9d00e4fc:	8fbf0014 	lw	ra,20(sp)
9d00e500:	03e00008 	jr	ra
9d00e504:	27bd0018 	addiu	sp,sp,24

9d00e508 <ReadUART2>:

void ReadUART2(char * message1, int maxLength) {
    char data = 0;
    int complete = 0, num_bytes = 0;
9d00e508:	00001025 	move	v0,zero
    // loop until you get a '\r' or '\n'
    while (!complete) {
        if (U2STAbits.URXDA) { // if data is available
9d00e50c:	3c0abf80 	lui	t2,0xbf80
            data = U2RXREG; // read the data
9d00e510:	3c09bf80 	lui	t1,0xbf80
            if ((data == '\n') || (data == '\r')) {
9d00e514:	2408000a 	li	t0,10
9d00e518:	2407000d 	li	a3,13
        if (U2STAbits.URXDA) { // if data is available
9d00e51c:	8d436210 	lw	v1,25104(t2)
9d00e520:	30630001 	andi	v1,v1,0x1
9d00e524:	1060fffd 	beqz	v1,9d00e51c <ReadUART2+0x14>
9d00e528:	00000000 	nop
            data = U2RXREG; // read the data
9d00e52c:	8d236230 	lw	v1,25136(t1)
9d00e530:	7c031c20 	seb	v1,v1
            if ((data == '\n') || (data == '\r')) {
9d00e534:	5068000b 	beql	v1,t0,9d00e564 <ReadUART2+0x5c>
9d00e538:	00822021 	addu	a0,a0,v0
9d00e53c:	10670008 	beq	v1,a3,9d00e560 <ReadUART2+0x58>
9d00e540:	24460001 	addiu	a2,v0,1
                complete = 1;
            } else {
                message1[num_bytes] = data;
                ++num_bytes;
                // roll over if the array is too small
                if (num_bytes >= maxLength) {
9d00e544:	00c5302a 	slt	a2,a2,a1
                    num_bytes = 0;
9d00e548:	244b0001 	addiu	t3,v0,1
                message1[num_bytes] = data;
9d00e54c:	00821021 	addu	v0,a0,v0
9d00e550:	a0430000 	sb	v1,0(v0)
9d00e554:	01601025 	move	v0,t3
9d00e558:	1000fff0 	b	9d00e51c <ReadUART2+0x14>
9d00e55c:	0006100a 	movz	v0,zero,a2
                }
            }
        }
    }
    // end the string
    message1[num_bytes] = '\0';
9d00e560:	00822021 	addu	a0,a0,v0
9d00e564:	03e00008 	jr	ra
9d00e568:	a0800000 	sb	zero,0(a0)

9d00e56c <InterruptUart2Handler>:
void __ISR(_UART_2_VECTOR, IPL7SOFT) InterruptUart2Handler(void) {
9d00e56c:	415de800 	rdpgpr	sp,sp
9d00e570:	401a7000 	mfc0	k0,c0_epc
9d00e574:	401b6000 	mfc0	k1,c0_status
9d00e578:	27bdff80 	addiu	sp,sp,-128
9d00e57c:	afbb007c 	sw	k1,124(sp)
9d00e580:	7c1b7844 	ins	k1,zero,0x1,0xf
9d00e584:	377b1c00 	ori	k1,k1,0x1c00
9d00e588:	409b6000 	mtc0	k1,c0_status
9d00e58c:	afbf0064 	sw	ra,100(sp)
9d00e590:	afbe0060 	sw	s8,96(sp)
9d00e594:	afb9005c 	sw	t9,92(sp)
9d00e598:	afb80058 	sw	t8,88(sp)
9d00e59c:	afb10054 	sw	s1,84(sp)
9d00e5a0:	afb00050 	sw	s0,80(sp)
9d00e5a4:	afaf004c 	sw	t7,76(sp)
9d00e5a8:	afae0048 	sw	t6,72(sp)
9d00e5ac:	afad0044 	sw	t5,68(sp)
9d00e5b0:	afac0040 	sw	t4,64(sp)
9d00e5b4:	afab003c 	sw	t3,60(sp)
9d00e5b8:	afaa0038 	sw	t2,56(sp)
9d00e5bc:	afa90034 	sw	t1,52(sp)
9d00e5c0:	afa80030 	sw	t0,48(sp)
9d00e5c4:	afa7002c 	sw	a3,44(sp)
9d00e5c8:	afa60028 	sw	a2,40(sp)
9d00e5cc:	afa50024 	sw	a1,36(sp)
9d00e5d0:	afa40020 	sw	a0,32(sp)
9d00e5d4:	afa3001c 	sw	v1,28(sp)
9d00e5d8:	afa20018 	sw	v0,24(sp)
9d00e5dc:	afa10014 	sw	at,20(sp)
9d00e5e0:	00001012 	mflo	v0
9d00e5e4:	afa2006c 	sw	v0,108(sp)
9d00e5e8:	00001810 	mfhi	v1
9d00e5ec:	afa30068 	sw	v1,104(sp)
9d00e5f0:	03a0f025 	move	s8,sp
  if (IFS1bits.U2RXIF) { // check if interrupt generated by a RX event
9d00e5f4:	3c10bf88 	lui	s0,0xbf88
9d00e5f8:	8e101040 	lw	s0,4160(s0)
9d00e5fc:	7e100580 	ext	s0,s0,0x16,0x1
9d00e600:	12000029 	beqz	s0,9d00e6a8 <InterruptUart2Handler+0x13c>
9d00e604:	24050064 	li	a1,100
    ReadUART2(mess, 100);
9d00e608:	3c04a001 	lui	a0,0xa001
9d00e60c:	0f403942 	jal	9d00e508 <ReadUART2>
9d00e610:	2484a2a0 	addiu	a0,a0,-23904
    encoder_flag = 1;
9d00e614:	24100001 	li	s0,1
9d00e618:	af908044 	sw	s0,-32700(gp)
    IFS1bits.U2RXIF = 0; // clear the RX interrupt flag
9d00e61c:	3c10bf88 	lui	s0,0xbf88
9d00e620:	8e111040 	lw	s1,4160(s0)
9d00e624:	7c11b584 	ins	s1,zero,0x16,0x1
9d00e628:	ae111040 	sw	s1,4160(s0)
}
9d00e62c:	03c0e825 	move	sp,s8
9d00e630:	8fa2006c 	lw	v0,108(sp)
9d00e634:	00400013 	mtlo	v0
9d00e638:	8fa30068 	lw	v1,104(sp)
9d00e63c:	00600011 	mthi	v1
9d00e640:	8fbf0064 	lw	ra,100(sp)
9d00e644:	8fbe0060 	lw	s8,96(sp)
9d00e648:	8fb9005c 	lw	t9,92(sp)
9d00e64c:	8fb80058 	lw	t8,88(sp)
9d00e650:	8fb10054 	lw	s1,84(sp)
9d00e654:	8fb00050 	lw	s0,80(sp)
9d00e658:	8faf004c 	lw	t7,76(sp)
9d00e65c:	8fae0048 	lw	t6,72(sp)
9d00e660:	8fad0044 	lw	t5,68(sp)
9d00e664:	8fac0040 	lw	t4,64(sp)
9d00e668:	8fab003c 	lw	t3,60(sp)
9d00e66c:	8faa0038 	lw	t2,56(sp)
9d00e670:	8fa90034 	lw	t1,52(sp)
9d00e674:	8fa80030 	lw	t0,48(sp)
9d00e678:	8fa7002c 	lw	a3,44(sp)
9d00e67c:	8fa60028 	lw	a2,40(sp)
9d00e680:	8fa50024 	lw	a1,36(sp)
9d00e684:	8fa40020 	lw	a0,32(sp)
9d00e688:	8fa3001c 	lw	v1,28(sp)
9d00e68c:	8fa20018 	lw	v0,24(sp)
9d00e690:	8fa10014 	lw	at,20(sp)
9d00e694:	8fbb007c 	lw	k1,124(sp)
9d00e698:	27bd0080 	addiu	sp,sp,128
9d00e69c:	41dde800 	wrpgpr	sp,sp
9d00e6a0:	409b6000 	mtc0	k1,c0_status
9d00e6a4:	42000018 	eret
  else if(IFS1bits.U2TXIF) { // if it is a 
9d00e6a8:	3c10bf88 	lui	s0,0xbf88
9d00e6ac:	8e101040 	lw	s0,4160(s0)
9d00e6b0:	7e1005c0 	ext	s0,s0,0x17,0x1
9d00e6b4:	1600ffdd 	bnez	s0,9d00e62c <InterruptUart2Handler+0xc0>
9d00e6b8:	3c10bf88 	lui	s0,0xbf88
  else if(IFS1bits.U2EIF) { // if it is an error interrupt. check U3STA for reason 
9d00e6bc:	8e101040 	lw	s0,4160(s0)
}
9d00e6c0:	1000ffda 	b	9d00e62c <InterruptUart2Handler+0xc0>
9d00e6c4:	00000000 	nop

9d00e6c8 <__udivdi3>:
9d00e6c8:	00c04025 	move	t0,a2
9d00e6cc:	00e01825 	move	v1,a3
9d00e6d0:	00805025 	move	t2,a0
9d00e6d4:	14e00098 	bnez	a3,9d00e938 <__udivdi3+0x270>
9d00e6d8:	00a01025 	move	v0,a1
9d00e6dc:	00a6302b 	sltu	a2,a1,a2
9d00e6e0:	10c00035 	beqz	a2,9d00e7b8 <__udivdi3+0xf0>
9d00e6e4:	00000000 	nop
9d00e6e8:	71052820 	clz	a1,t0
9d00e6ec:	10a00006 	beqz	a1,9d00e708 <__udivdi3+0x40>
9d00e6f0:	00052023 	negu	a0,a1
9d00e6f4:	008a2006 	srlv	a0,t2,a0
9d00e6f8:	00a21004 	sllv	v0,v0,a1
9d00e6fc:	00a84004 	sllv	t0,t0,a1
9d00e700:	00821025 	or	v0,a0,v0
9d00e704:	00aa5004 	sllv	t2,t2,a1
9d00e708:	00083402 	srl	a2,t0,0x10
9d00e70c:	0046001b 	divu	zero,v0,a2
9d00e710:	00c001f4 	teq	a2,zero,0x7
9d00e714:	3105ffff 	andi	a1,t0,0xffff
9d00e718:	000a2402 	srl	a0,t2,0x10
9d00e71c:	00003812 	mflo	a3
9d00e720:	00001010 	mfhi	v0
9d00e724:	00021400 	sll	v0,v0,0x10
9d00e728:	00442025 	or	a0,v0,a0
9d00e72c:	70a74802 	mul	t1,a1,a3
9d00e730:	0089582b 	sltu	t3,a0,t1
9d00e734:	1160000a 	beqz	t3,9d00e760 <__udivdi3+0x98>
9d00e738:	00e01025 	move	v0,a3
9d00e73c:	00882021 	addu	a0,a0,t0
9d00e740:	0088582b 	sltu	t3,a0,t0
9d00e744:	15600006 	bnez	t3,9d00e760 <__udivdi3+0x98>
9d00e748:	24e2ffff 	addiu	v0,a3,-1
9d00e74c:	0089582b 	sltu	t3,a0,t1
9d00e750:	51600004 	beqzl	t3,9d00e764 <__udivdi3+0x9c>
9d00e754:	00892023 	subu	a0,a0,t1
9d00e758:	24e2fffe 	addiu	v0,a3,-2
9d00e75c:	00882021 	addu	a0,a0,t0
9d00e760:	00892023 	subu	a0,a0,t1
9d00e764:	0086001b 	divu	zero,a0,a2
9d00e768:	00c001f4 	teq	a2,zero,0x7
9d00e76c:	00003010 	mfhi	a2
9d00e770:	00063400 	sll	a2,a2,0x10
9d00e774:	00002012 	mflo	a0
9d00e778:	70a43802 	mul	a3,a1,a0
9d00e77c:	3145ffff 	andi	a1,t2,0xffff
9d00e780:	00c52825 	or	a1,a2,a1
9d00e784:	00a7482b 	sltu	t1,a1,a3
9d00e788:	11200008 	beqz	t1,9d00e7ac <__udivdi3+0xe4>
9d00e78c:	00803025 	move	a2,a0
9d00e790:	01052821 	addu	a1,t0,a1
9d00e794:	00a8402b 	sltu	t0,a1,t0
9d00e798:	15000004 	bnez	t0,9d00e7ac <__udivdi3+0xe4>
9d00e79c:	2486ffff 	addiu	a2,a0,-1
9d00e7a0:	00a7282b 	sltu	a1,a1,a3
9d00e7a4:	54a00001 	bnezl	a1,9d00e7ac <__udivdi3+0xe4>
9d00e7a8:	2486fffe 	addiu	a2,a0,-2
9d00e7ac:	00021400 	sll	v0,v0,0x10
9d00e7b0:	03e00008 	jr	ra
9d00e7b4:	00461025 	or	v0,v0,a2
9d00e7b8:	15000004 	bnez	t0,9d00e7cc <__udivdi3+0x104>
9d00e7bc:	24020001 	li	v0,1
9d00e7c0:	0048001b 	divu	zero,v0,t0
9d00e7c4:	010001f4 	teq	t0,zero,0x7
9d00e7c8:	00004012 	mflo	t0
9d00e7cc:	710b5820 	clz	t3,t0
9d00e7d0:	15600023 	bnez	t3,9d00e860 <__udivdi3+0x198>
9d00e7d4:	24070020 	li	a3,32
9d00e7d8:	00a82823 	subu	a1,a1,t0
9d00e7dc:	24030001 	li	v1,1
9d00e7e0:	00083402 	srl	a2,t0,0x10
9d00e7e4:	00a6001b 	divu	zero,a1,a2
9d00e7e8:	00c001f4 	teq	a2,zero,0x7
9d00e7ec:	3107ffff 	andi	a3,t0,0xffff
9d00e7f0:	000a2402 	srl	a0,t2,0x10
9d00e7f4:	00002812 	mflo	a1
9d00e7f8:	00001010 	mfhi	v0
9d00e7fc:	00021400 	sll	v0,v0,0x10
9d00e800:	00442025 	or	a0,v0,a0
9d00e804:	70e54802 	mul	t1,a3,a1
9d00e808:	0089582b 	sltu	t3,a0,t1
9d00e80c:	1160000a 	beqz	t3,9d00e838 <__udivdi3+0x170>
9d00e810:	00a01025 	move	v0,a1
9d00e814:	00882021 	addu	a0,a0,t0
9d00e818:	0088582b 	sltu	t3,a0,t0
9d00e81c:	15600006 	bnez	t3,9d00e838 <__udivdi3+0x170>
9d00e820:	24a2ffff 	addiu	v0,a1,-1
9d00e824:	0089582b 	sltu	t3,a0,t1
9d00e828:	51600004 	beqzl	t3,9d00e83c <__udivdi3+0x174>
9d00e82c:	00892023 	subu	a0,a0,t1
9d00e830:	24a2fffe 	addiu	v0,a1,-2
9d00e834:	00882021 	addu	a0,a0,t0
9d00e838:	00892023 	subu	a0,a0,t1
9d00e83c:	0086001b 	divu	zero,a0,a2
9d00e840:	00c001f4 	teq	a2,zero,0x7
9d00e844:	314affff 	andi	t2,t2,0xffff
9d00e848:	00002810 	mfhi	a1
9d00e84c:	00052c00 	sll	a1,a1,0x10
9d00e850:	00aa2825 	or	a1,a1,t2
9d00e854:	00002012 	mflo	a0
9d00e858:	1000ffca 	b	9d00e784 <__udivdi3+0xbc>
9d00e85c:	70e43802 	mul	a3,a3,a0
9d00e860:	00eb3823 	subu	a3,a3,t3
9d00e864:	01684004 	sllv	t0,t0,t3
9d00e868:	00e44806 	srlv	t1,a0,a3
9d00e86c:	00083402 	srl	a2,t0,0x10
9d00e870:	00e53806 	srlv	a3,a1,a3
9d00e874:	00e6001b 	divu	zero,a3,a2
9d00e878:	00c001f4 	teq	a2,zero,0x7
9d00e87c:	01651004 	sllv	v0,a1,t3
9d00e880:	01224825 	or	t1,t1,v0
9d00e884:	3102ffff 	andi	v0,t0,0xffff
9d00e888:	00091c02 	srl	v1,t1,0x10
9d00e88c:	00002812 	mflo	a1
9d00e890:	00003810 	mfhi	a3
9d00e894:	00073c00 	sll	a3,a3,0x10
9d00e898:	00e33825 	or	a3,a3,v1
9d00e89c:	70455002 	mul	t2,v0,a1
9d00e8a0:	00ea602b 	sltu	t4,a3,t2
9d00e8a4:	1180000a 	beqz	t4,9d00e8d0 <__udivdi3+0x208>
9d00e8a8:	00a01825 	move	v1,a1
9d00e8ac:	00e83821 	addu	a3,a3,t0
9d00e8b0:	00e8602b 	sltu	t4,a3,t0
9d00e8b4:	15800006 	bnez	t4,9d00e8d0 <__udivdi3+0x208>
9d00e8b8:	24a3ffff 	addiu	v1,a1,-1
9d00e8bc:	00ea602b 	sltu	t4,a3,t2
9d00e8c0:	51800004 	beqzl	t4,9d00e8d4 <__udivdi3+0x20c>
9d00e8c4:	00ea3823 	subu	a3,a3,t2
9d00e8c8:	24a3fffe 	addiu	v1,a1,-2
9d00e8cc:	00e83821 	addu	a3,a3,t0
9d00e8d0:	00ea3823 	subu	a3,a3,t2
9d00e8d4:	00e6001b 	divu	zero,a3,a2
9d00e8d8:	00c001f4 	teq	a2,zero,0x7
9d00e8dc:	3125ffff 	andi	a1,t1,0xffff
9d00e8e0:	00003012 	mflo	a2
9d00e8e4:	00003810 	mfhi	a3
9d00e8e8:	00073c00 	sll	a3,a3,0x10
9d00e8ec:	00e52825 	or	a1,a3,a1
9d00e8f0:	70461002 	mul	v0,v0,a2
9d00e8f4:	00a2482b 	sltu	t1,a1,v0
9d00e8f8:	1120000a 	beqz	t1,9d00e924 <__udivdi3+0x25c>
9d00e8fc:	00c03825 	move	a3,a2
9d00e900:	00a82821 	addu	a1,a1,t0
9d00e904:	00a8482b 	sltu	t1,a1,t0
9d00e908:	15200006 	bnez	t1,9d00e924 <__udivdi3+0x25c>
9d00e90c:	24c7ffff 	addiu	a3,a2,-1
9d00e910:	00a2482b 	sltu	t1,a1,v0
9d00e914:	51200004 	beqzl	t1,9d00e928 <__udivdi3+0x260>
9d00e918:	00031c00 	sll	v1,v1,0x10
9d00e91c:	24c7fffe 	addiu	a3,a2,-2
9d00e920:	00a82821 	addu	a1,a1,t0
9d00e924:	00031c00 	sll	v1,v1,0x10
9d00e928:	01645004 	sllv	t2,a0,t3
9d00e92c:	00a22823 	subu	a1,a1,v0
9d00e930:	1000ffab 	b	9d00e7e0 <__udivdi3+0x118>
9d00e934:	00671825 	or	v1,v1,a3
9d00e938:	00a7402b 	sltu	t0,a1,a3
9d00e93c:	00001825 	move	v1,zero
9d00e940:	1500004e 	bnez	t0,9d00ea7c <__udivdi3+0x3b4>
9d00e944:	00001025 	move	v0,zero
9d00e948:	70ea5020 	clz	t2,a3
9d00e94c:	15400007 	bnez	t2,9d00e96c <__udivdi3+0x2a4>
9d00e950:	24090020 	li	t1,32
9d00e954:	00e5282b 	sltu	a1,a3,a1
9d00e958:	14a00048 	bnez	a1,9d00ea7c <__udivdi3+0x3b4>
9d00e95c:	24020001 	li	v0,1
9d00e960:	0086102b 	sltu	v0,a0,a2
9d00e964:	03e00008 	jr	ra
9d00e968:	38420001 	xori	v0,v0,0x1
9d00e96c:	012a4823 	subu	t1,t1,t2
9d00e970:	01261006 	srlv	v0,a2,t1
9d00e974:	01473804 	sllv	a3,a3,t2
9d00e978:	00473825 	or	a3,v0,a3
9d00e97c:	01451804 	sllv	v1,a1,t2
9d00e980:	00074402 	srl	t0,a3,0x10
9d00e984:	01252806 	srlv	a1,a1,t1
9d00e988:	00a8001b 	divu	zero,a1,t0
9d00e98c:	010001f4 	teq	t0,zero,0x7
9d00e990:	30ebffff 	andi	t3,a3,0xffff
9d00e994:	01241006 	srlv	v0,a0,t1
9d00e998:	00431025 	or	v0,v0,v1
9d00e99c:	00021c02 	srl	v1,v0,0x10
9d00e9a0:	00002812 	mflo	a1
9d00e9a4:	00004810 	mfhi	t1
9d00e9a8:	00094c00 	sll	t1,t1,0x10
9d00e9ac:	01234825 	or	t1,t1,v1
9d00e9b0:	71656002 	mul	t4,t3,a1
9d00e9b4:	012c682b 	sltu	t5,t1,t4
9d00e9b8:	11a0000a 	beqz	t5,9d00e9e4 <__udivdi3+0x31c>
9d00e9bc:	00a01825 	move	v1,a1
9d00e9c0:	01274821 	addu	t1,t1,a3
9d00e9c4:	0127682b 	sltu	t5,t1,a3
9d00e9c8:	15a00006 	bnez	t5,9d00e9e4 <__udivdi3+0x31c>
9d00e9cc:	24a3ffff 	addiu	v1,a1,-1
9d00e9d0:	012c682b 	sltu	t5,t1,t4
9d00e9d4:	51a00004 	beqzl	t5,9d00e9e8 <__udivdi3+0x320>
9d00e9d8:	012c4823 	subu	t1,t1,t4
9d00e9dc:	24a3fffe 	addiu	v1,a1,-2
9d00e9e0:	01274821 	addu	t1,t1,a3
9d00e9e4:	012c4823 	subu	t1,t1,t4
9d00e9e8:	0128001b 	divu	zero,t1,t0
9d00e9ec:	010001f4 	teq	t0,zero,0x7
9d00e9f0:	3045ffff 	andi	a1,v0,0xffff
9d00e9f4:	00004012 	mflo	t0
9d00e9f8:	00004810 	mfhi	t1
9d00e9fc:	00094c00 	sll	t1,t1,0x10
9d00ea00:	01252825 	or	a1,t1,a1
9d00ea04:	71685802 	mul	t3,t3,t0
9d00ea08:	00ab102b 	sltu	v0,a1,t3
9d00ea0c:	1040000a 	beqz	v0,9d00ea38 <__udivdi3+0x370>
9d00ea10:	01004825 	move	t1,t0
9d00ea14:	00a72821 	addu	a1,a1,a3
9d00ea18:	00a7102b 	sltu	v0,a1,a3
9d00ea1c:	14400006 	bnez	v0,9d00ea38 <__udivdi3+0x370>
9d00ea20:	2509ffff 	addiu	t1,t0,-1
9d00ea24:	00ab102b 	sltu	v0,a1,t3
9d00ea28:	10400004 	beqz	v0,9d00ea3c <__udivdi3+0x374>
9d00ea2c:	00031400 	sll	v0,v1,0x10
9d00ea30:	2509fffe 	addiu	t1,t0,-2
9d00ea34:	00a72821 	addu	a1,a1,a3
9d00ea38:	00031400 	sll	v0,v1,0x10
9d00ea3c:	01463004 	sllv	a2,a2,t2
9d00ea40:	00491025 	or	v0,v0,t1
9d00ea44:	00c20019 	multu	a2,v0
9d00ea48:	00ab2823 	subu	a1,a1,t3
9d00ea4c:	00003810 	mfhi	a3
9d00ea50:	00a7182b 	sltu	v1,a1,a3
9d00ea54:	14600007 	bnez	v1,9d00ea74 <__udivdi3+0x3ac>
9d00ea58:	00003012 	mflo	a2
9d00ea5c:	14a70007 	bne	a1,a3,9d00ea7c <__udivdi3+0x3b4>
9d00ea60:	00001825 	move	v1,zero
9d00ea64:	01442004 	sllv	a0,a0,t2
9d00ea68:	0086202b 	sltu	a0,a0,a2
9d00ea6c:	10800003 	beqz	a0,9d00ea7c <__udivdi3+0x3b4>
9d00ea70:	00000000 	nop
9d00ea74:	2442ffff 	addiu	v0,v0,-1
9d00ea78:	00001825 	move	v1,zero
9d00ea7c:	03e00008 	jr	ra
9d00ea80:	00000000 	nop

Disassembly of section .text:

9d00ea84 <__umoddi3>:
9d00ea84:	00c04825 	move	t1,a2
9d00ea88:	00801025 	move	v0,a0
9d00ea8c:	14e0008b 	bnez	a3,9d00ecbc <__umoddi3+0x238>
9d00ea90:	00a01825 	move	v1,a1
9d00ea94:	00a6302b 	sltu	a2,a1,a2
9d00ea98:	10c00033 	beqz	a2,9d00eb68 <__umoddi3+0xe4>
9d00ea9c:	712a5020 	clz	t2,t1
9d00eaa0:	11400008 	beqz	t2,9d00eac4 <__umoddi3+0x40>
9d00eaa4:	00095c02 	srl	t3,t1,0x10
9d00eaa8:	01451804 	sllv	v1,a1,t2
9d00eaac:	000a2823 	negu	a1,t2
9d00eab0:	00a42806 	srlv	a1,a0,a1
9d00eab4:	01494804 	sllv	t1,t1,t2
9d00eab8:	00a31825 	or	v1,a1,v1
9d00eabc:	01441004 	sllv	v0,a0,t2
9d00eac0:	00095c02 	srl	t3,t1,0x10
9d00eac4:	006b001b 	divu	zero,v1,t3
9d00eac8:	016001f4 	teq	t3,zero,0x7
9d00eacc:	3124ffff 	andi	a0,t1,0xffff
9d00ead0:	00001812 	mflo	v1
9d00ead4:	00002810 	mfhi	a1
9d00ead8:	70643002 	mul	a2,v1,a0
9d00eadc:	00051c00 	sll	v1,a1,0x10
9d00eae0:	00022c02 	srl	a1,v0,0x10
9d00eae4:	00651825 	or	v1,v1,a1
9d00eae8:	0066282b 	sltu	a1,v1,a2
9d00eaec:	50a00008 	beqzl	a1,9d00eb10 <__umoddi3+0x8c>
9d00eaf0:	00661823 	subu	v1,v1,a2
9d00eaf4:	00691821 	addu	v1,v1,t1
9d00eaf8:	0069282b 	sltu	a1,v1,t1
9d00eafc:	14a00003 	bnez	a1,9d00eb0c <__umoddi3+0x88>
9d00eb00:	0066282b 	sltu	a1,v1,a2
9d00eb04:	54a00001 	bnezl	a1,9d00eb0c <__umoddi3+0x88>
9d00eb08:	00691821 	addu	v1,v1,t1
9d00eb0c:	00661823 	subu	v1,v1,a2
9d00eb10:	006b001b 	divu	zero,v1,t3
9d00eb14:	016001f4 	teq	t3,zero,0x7
9d00eb18:	3042ffff 	andi	v0,v0,0xffff
9d00eb1c:	00003010 	mfhi	a2
9d00eb20:	00001812 	mflo	v1
9d00eb24:	70645802 	mul	t3,v1,a0
9d00eb28:	00061c00 	sll	v1,a2,0x10
9d00eb2c:	00621025 	or	v0,v1,v0
9d00eb30:	004b182b 	sltu	v1,v0,t3
9d00eb34:	50600009 	beqzl	v1,9d00eb5c <__umoddi3+0xd8>
9d00eb38:	004b1023 	subu	v0,v0,t3
9d00eb3c:	00491021 	addu	v0,v0,t1
9d00eb40:	0049182b 	sltu	v1,v0,t1
9d00eb44:	54600005 	bnezl	v1,9d00eb5c <__umoddi3+0xd8>
9d00eb48:	004b1023 	subu	v0,v0,t3
9d00eb4c:	004b182b 	sltu	v1,v0,t3
9d00eb50:	54600001 	bnezl	v1,9d00eb58 <__umoddi3+0xd4>
9d00eb54:	00491021 	addu	v0,v0,t1
9d00eb58:	004b1023 	subu	v0,v0,t3
9d00eb5c:	01421006 	srlv	v0,v0,t2
9d00eb60:	03e00008 	jr	ra
9d00eb64:	00001825 	move	v1,zero
9d00eb68:	15200004 	bnez	t1,9d00eb7c <__umoddi3+0xf8>
9d00eb6c:	24030001 	li	v1,1
9d00eb70:	0069001b 	divu	zero,v1,t1
9d00eb74:	012001f4 	teq	t1,zero,0x7
9d00eb78:	00004812 	mflo	t1
9d00eb7c:	712a5020 	clz	t2,t1
9d00eb80:	1540001f 	bnez	t2,9d00ec00 <__umoddi3+0x17c>
9d00eb84:	24070020 	li	a3,32
9d00eb88:	00a92823 	subu	a1,a1,t1
9d00eb8c:	00095c02 	srl	t3,t1,0x10
9d00eb90:	00ab001b 	divu	zero,a1,t3
9d00eb94:	016001f4 	teq	t3,zero,0x7
9d00eb98:	3124ffff 	andi	a0,t1,0xffff
9d00eb9c:	00002812 	mflo	a1
9d00eba0:	00001810 	mfhi	v1
9d00eba4:	70a43002 	mul	a2,a1,a0
9d00eba8:	00032c00 	sll	a1,v1,0x10
9d00ebac:	00021c02 	srl	v1,v0,0x10
9d00ebb0:	00a32825 	or	a1,a1,v1
9d00ebb4:	00a6182b 	sltu	v1,a1,a2
9d00ebb8:	50600008 	beqzl	v1,9d00ebdc <__umoddi3+0x158>
9d00ebbc:	00a63023 	subu	a2,a1,a2
9d00ebc0:	00a92821 	addu	a1,a1,t1
9d00ebc4:	00a9182b 	sltu	v1,a1,t1
9d00ebc8:	14600003 	bnez	v1,9d00ebd8 <__umoddi3+0x154>
9d00ebcc:	00a6182b 	sltu	v1,a1,a2
9d00ebd0:	54600001 	bnezl	v1,9d00ebd8 <__umoddi3+0x154>
9d00ebd4:	00a92821 	addu	a1,a1,t1
9d00ebd8:	00a63023 	subu	a2,a1,a2
9d00ebdc:	00cb001b 	divu	zero,a2,t3
9d00ebe0:	016001f4 	teq	t3,zero,0x7
9d00ebe4:	3042ffff 	andi	v0,v0,0xffff
9d00ebe8:	00002810 	mfhi	a1
9d00ebec:	00003012 	mflo	a2
9d00ebf0:	70c45802 	mul	t3,a2,a0
9d00ebf4:	00053400 	sll	a2,a1,0x10
9d00ebf8:	1000ffcd 	b	9d00eb30 <__umoddi3+0xac>
9d00ebfc:	00c21025 	or	v0,a2,v0
9d00ec00:	00ea3823 	subu	a3,a3,t2
9d00ec04:	01494804 	sllv	t1,t1,t2
9d00ec08:	00e41806 	srlv	v1,a0,a3
9d00ec0c:	00093402 	srl	a2,t1,0x10
9d00ec10:	00e53806 	srlv	a3,a1,a3
9d00ec14:	00e6001b 	divu	zero,a3,a2
9d00ec18:	00c001f4 	teq	a2,zero,0x7
9d00ec1c:	01451004 	sllv	v0,a1,t2
9d00ec20:	3128ffff 	andi	t0,t1,0xffff
9d00ec24:	00621825 	or	v1,v1,v0
9d00ec28:	00032c02 	srl	a1,v1,0x10
9d00ec2c:	00003812 	mflo	a3
9d00ec30:	00006010 	mfhi	t4
9d00ec34:	70e81002 	mul	v0,a3,t0
9d00ec38:	000c3c00 	sll	a3,t4,0x10
9d00ec3c:	00e53825 	or	a3,a3,a1
9d00ec40:	00e2282b 	sltu	a1,a3,v0
9d00ec44:	50a00008 	beqzl	a1,9d00ec68 <__umoddi3+0x1e4>
9d00ec48:	00e23823 	subu	a3,a3,v0
9d00ec4c:	00e93821 	addu	a3,a3,t1
9d00ec50:	00e9282b 	sltu	a1,a3,t1
9d00ec54:	14a00003 	bnez	a1,9d00ec64 <__umoddi3+0x1e0>
9d00ec58:	00e2282b 	sltu	a1,a3,v0
9d00ec5c:	54a00001 	bnezl	a1,9d00ec64 <__umoddi3+0x1e0>
9d00ec60:	00e93821 	addu	a3,a3,t1
9d00ec64:	00e23823 	subu	a3,a3,v0
9d00ec68:	00e6001b 	divu	zero,a3,a2
9d00ec6c:	00c001f4 	teq	a2,zero,0x7
9d00ec70:	3065ffff 	andi	a1,v1,0xffff
9d00ec74:	00003012 	mflo	a2
9d00ec78:	00003810 	mfhi	a3
9d00ec7c:	00073c00 	sll	a3,a3,0x10
9d00ec80:	00e52825 	or	a1,a3,a1
9d00ec84:	70c83002 	mul	a2,a2,t0
9d00ec88:	00a6102b 	sltu	v0,a1,a2
9d00ec8c:	10400009 	beqz	v0,9d00ecb4 <__umoddi3+0x230>
9d00ec90:	01441004 	sllv	v0,a0,t2
9d00ec94:	00a92821 	addu	a1,a1,t1
9d00ec98:	00a9102b 	sltu	v0,a1,t1
9d00ec9c:	14400005 	bnez	v0,9d00ecb4 <__umoddi3+0x230>
9d00eca0:	01441004 	sllv	v0,a0,t2
9d00eca4:	00a6102b 	sltu	v0,a1,a2
9d00eca8:	54400001 	bnezl	v0,9d00ecb0 <__umoddi3+0x22c>
9d00ecac:	00a92821 	addu	a1,a1,t1
9d00ecb0:	01441004 	sllv	v0,a0,t2
9d00ecb4:	1000ffb5 	b	9d00eb8c <__umoddi3+0x108>
9d00ecb8:	00a62823 	subu	a1,a1,a2
9d00ecbc:	00a7402b 	sltu	t0,a1,a3
9d00ecc0:	1500005c 	bnez	t0,9d00ee34 <__umoddi3+0x3b0>
9d00ecc4:	70ee7020 	clz	t6,a3
9d00ecc8:	15c0000a 	bnez	t6,9d00ecf4 <__umoddi3+0x270>
9d00eccc:	00e5402b 	sltu	t0,a3,a1
9d00ecd0:	15000003 	bnez	t0,9d00ece0 <__umoddi3+0x25c>
9d00ecd4:	0086402b 	sltu	t0,a0,a2
9d00ecd8:	15000056 	bnez	t0,9d00ee34 <__umoddi3+0x3b0>
9d00ecdc:	00000000 	nop
9d00ece0:	00861023 	subu	v0,a0,a2
9d00ece4:	00a72823 	subu	a1,a1,a3
9d00ece8:	0082182b 	sltu	v1,a0,v0
9d00ecec:	03e00008 	jr	ra
9d00ecf0:	00a31823 	subu	v1,a1,v1
9d00ecf4:	240b0020 	li	t3,32
9d00ecf8:	016e5823 	subu	t3,t3,t6
9d00ecfc:	01666006 	srlv	t4,a2,t3
9d00ed00:	01c73804 	sllv	a3,a3,t6
9d00ed04:	01873825 	or	a3,t4,a3
9d00ed08:	01c54004 	sllv	t0,a1,t6
9d00ed0c:	00074c02 	srl	t1,a3,0x10
9d00ed10:	01652806 	srlv	a1,a1,t3
9d00ed14:	00a9001b 	divu	zero,a1,t1
9d00ed18:	012001f4 	teq	t1,zero,0x7
9d00ed1c:	01641006 	srlv	v0,a0,t3
9d00ed20:	00481025 	or	v0,v0,t0
9d00ed24:	30e8ffff 	andi	t0,a3,0xffff
9d00ed28:	00026402 	srl	t4,v0,0x10
9d00ed2c:	00002812 	mflo	a1
9d00ed30:	00005010 	mfhi	t2
9d00ed34:	000a5400 	sll	t2,t2,0x10
9d00ed38:	014c5025 	or	t2,t2,t4
9d00ed3c:	71051802 	mul	v1,t0,a1
9d00ed40:	0143602b 	sltu	t4,t2,v1
9d00ed44:	1180000a 	beqz	t4,9d00ed70 <__umoddi3+0x2ec>
9d00ed48:	00a06825 	move	t5,a1
9d00ed4c:	01475021 	addu	t2,t2,a3
9d00ed50:	0147602b 	sltu	t4,t2,a3
9d00ed54:	15800006 	bnez	t4,9d00ed70 <__umoddi3+0x2ec>
9d00ed58:	24adffff 	addiu	t5,a1,-1
9d00ed5c:	0143602b 	sltu	t4,t2,v1
9d00ed60:	51800004 	beqzl	t4,9d00ed74 <__umoddi3+0x2f0>
9d00ed64:	01435023 	subu	t2,t2,v1
9d00ed68:	24adfffe 	addiu	t5,a1,-2
9d00ed6c:	01475021 	addu	t2,t2,a3
9d00ed70:	01435023 	subu	t2,t2,v1
9d00ed74:	0149001b 	divu	zero,t2,t1
9d00ed78:	012001f4 	teq	t1,zero,0x7
9d00ed7c:	00004812 	mflo	t1
9d00ed80:	00005010 	mfhi	t2
9d00ed84:	000a5400 	sll	t2,t2,0x10
9d00ed88:	71092802 	mul	a1,t0,t1
9d00ed8c:	3048ffff 	andi	t0,v0,0xffff
9d00ed90:	01484025 	or	t0,t2,t0
9d00ed94:	0105102b 	sltu	v0,t0,a1
9d00ed98:	1040000a 	beqz	v0,9d00edc4 <__umoddi3+0x340>
9d00ed9c:	01205025 	move	t2,t1
9d00eda0:	01074021 	addu	t0,t0,a3
9d00eda4:	0107102b 	sltu	v0,t0,a3
9d00eda8:	14400006 	bnez	v0,9d00edc4 <__umoddi3+0x340>
9d00edac:	252affff 	addiu	t2,t1,-1
9d00edb0:	0105102b 	sltu	v0,t0,a1
9d00edb4:	10400004 	beqz	v0,9d00edc8 <__umoddi3+0x344>
9d00edb8:	000d6400 	sll	t4,t5,0x10
9d00edbc:	252afffe 	addiu	t2,t1,-2
9d00edc0:	01074021 	addu	t0,t0,a3
9d00edc4:	000d6400 	sll	t4,t5,0x10
9d00edc8:	01c61004 	sllv	v0,a2,t6
9d00edcc:	018a6025 	or	t4,t4,t2
9d00edd0:	01820019 	multu	t4,v0
9d00edd4:	01054023 	subu	t0,t0,a1
9d00edd8:	01c41804 	sllv	v1,a0,t6
9d00eddc:	00006810 	mfhi	t5
9d00ede0:	010d202b 	sltu	a0,t0,t5
9d00ede4:	01a02825 	move	a1,t5
9d00ede8:	00006012 	mflo	t4
9d00edec:	14800005 	bnez	a0,9d00ee04 <__umoddi3+0x380>
9d00edf0:	00003012 	mflo	a2
9d00edf4:	150d0007 	bne	t0,t5,9d00ee14 <__umoddi3+0x390>
9d00edf8:	006c202b 	sltu	a0,v1,t4
9d00edfc:	10800006 	beqz	a0,9d00ee18 <__umoddi3+0x394>
9d00ee00:	00663023 	subu	a2,v1,a2
9d00ee04:	01823023 	subu	a2,t4,v0
9d00ee08:	01a73823 	subu	a3,t5,a3
9d00ee0c:	0186602b 	sltu	t4,t4,a2
9d00ee10:	00ec2823 	subu	a1,a3,t4
9d00ee14:	00663023 	subu	a2,v1,a2
9d00ee18:	0066182b 	sltu	v1,v1,a2
9d00ee1c:	01054023 	subu	t0,t0,a1
9d00ee20:	01031823 	subu	v1,t0,v1
9d00ee24:	01631004 	sllv	v0,v1,t3
9d00ee28:	01c63006 	srlv	a2,a2,t6
9d00ee2c:	00461025 	or	v0,v0,a2
9d00ee30:	01c31806 	srlv	v1,v1,t6
9d00ee34:	03e00008 	jr	ra
9d00ee38:	00000000 	nop

Disassembly of section .text.dp32mul:

9d00ee3c <__muldf3>:
9d00ee3c:	00055040 000a5542 00054ac0 00047d42     @P..BU...J..B}..
9d00ee4c:	012f4825 000442c0 3c0e8000 012e4825     %H/..B.....<%H..
9d00ee5c:	00076840 000d6d42 000762c0 00067d42     @h..Bm...b..B}..
9d00ee6c:	018f6025 00065ac0 018e6025 00a72826     %`...Z..%`..&(..
9d00ee7c:	00ae2824 254fffff 2de107fe 10200047     $(....O%...-G. .
9d00ee8c:	00000000                                ....

9d00ee90 <Clab1>:
9d00ee90:	25afffff 	addiu	t7,t5,-1
9d00ee94:	2de107fe 	sltiu	at,t7,2046
9d00ee98:	1020006f 	beqz	at,9d00f058 <CspecB>
9d00ee9c:	00000000 	nop

9d00eea0 <Clab2>:
9d00eea0:	25affc02 	addiu	t7,t5,-1022
9d00eea4:	014f5021 	addu	t2,t2,t7
9d00eea8:	012c0019 	multu	t1,t4
9d00eeac:	00003812 	mflo	a3
9d00eeb0:	00007010 	mfhi	t6
9d00eeb4:	010b0019 	multu	t0,t3
9d00eeb8:	00002012 	mflo	a0
9d00eebc:	00003010 	mfhi	a2
9d00eec0:	012b0019 	multu	t1,t3
9d00eec4:	00005812 	mflo	t3
9d00eec8:	00006810 	mfhi	t5
9d00eecc:	00cb3021 	addu	a2,a2,t3
9d00eed0:	00cb782b 	sltu	t7,a2,t3
9d00eed4:	00ed3821 	addu	a3,a3,t5
9d00eed8:	00ef3821 	addu	a3,a3,t7
9d00eedc:	10ed0002 	beq	a3,t5,9d00eee8 <L20>
9d00eee0:	00000000 	nop
9d00eee4:	00ed782b 	sltu	t7,a3,t5

9d00eee8 <L20>:
9d00eee8:	01cf7021 	addu	t6,t6,t7
9d00eeec:	010c0019 	multu	t0,t4
9d00eef0:	00004012 	mflo	t0
9d00eef4:	00004810 	mfhi	t1
9d00eef8:	00c83021 	addu	a2,a2,t0
9d00eefc:	00c8782b 	sltu	t7,a2,t0
9d00ef00:	00e93821 	addu	a3,a3,t1
9d00ef04:	00ef3821 	addu	a3,a3,t7
9d00ef08:	10e90002 	beq	a3,t1,9d00ef14 <L21>
9d00ef0c:	00000000 	nop
9d00ef10:	00e9782b 	sltu	t7,a3,t1

9d00ef14 <L21>:
9d00ef14:	01cf7021 	addu	t6,t6,t7
9d00ef18:	00867825 	or	t7,a0,a2
9d00ef1c:	11e00002 	beqz	t7,9d00ef28 <i13>
9d00ef20:	00000000 	nop
9d00ef24:	34e70001 	ori	a3,a3,0x1

9d00ef28 <i13>:
9d00ef28:	000e4825 	or	t1,zero,t6
9d00ef2c:	05200006 	bltz	t1,9d00ef48 <i14>
9d00ef30:	00074025 	or	t0,zero,a3
9d00ef34:	0100782a 	slt	t7,t0,zero
9d00ef38:	01084021 	addu	t0,t0,t0
9d00ef3c:	01294821 	addu	t1,t1,t1
9d00ef40:	012f4821 	addu	t1,t1,t7
9d00ef44:	254affff 	addiu	t2,t2,-1

9d00ef48 <i14>:
9d00ef48:	254fffff 	addiu	t7,t2,-1
9d00ef4c:	2de107fe 	sltiu	at,t7,2046
9d00ef50:	10200068 	beqz	at,9d00f0f4 <Coveund>
9d00ef54:	00000000 	nop
9d00ef58:	25080400 	addiu	t0,t0,1024
9d00ef5c:	2d0f0400 	sltiu	t7,t0,1024
9d00ef60:	012f4821 	addu	t1,t1,t7
9d00ef64:	012f782b 	sltu	t7,t1,t7
9d00ef68:	014f5021 	addu	t2,t2,t7

9d00ef6c <Clab8>:
9d00ef6c:	00087ac2 	srl	t7,t0,0xb
9d00ef70:	31ef0001 	andi	t7,t7,0x1
9d00ef74:	010f4023 	subu	t0,t0,t7
9d00ef78:	000822c2 	srl	a0,t0,0xb
9d00ef7c:	00097d40 	sll	t7,t1,0x15
9d00ef80:	008f2025 	or	a0,a0,t7
9d00ef84:	00097840 	sll	t7,t1,0x1
9d00ef88:	000f7b02 	srl	t7,t7,0xc
9d00ef8c:	00af2825 	or	a1,a1,t7
9d00ef90:	000a7d00 	sll	t7,t2,0x14
9d00ef94:	00af2825 	or	a1,a1,t7

9d00ef98 <Cret>:
9d00ef98:	00041025 	or	v0,zero,a0
9d00ef9c:	00051825 	or	v1,zero,a1

9d00efa0 <C999>:
9d00efa0:	03e00008 	jr	ra
9d00efa4:	00000000 	nop

9d00efa8 <CspecA>:
9d00efa8:	0100782a 	slt	t7,t0,zero
9d00efac:	01084021 	addu	t0,t0,t0
9d00efb0:	01294821 	addu	t1,t1,t1
9d00efb4:	1540001c 	bnez	t2,9d00f028 <i15>
9d00efb8:	012f4821 	addu	t1,t1,t7
9d00efbc:	01287825 	or	t7,t1,t0
9d00efc0:	11e00014 	beqz	t7,9d00f014 <i16>
9d00efc4:	00000000 	nop
9d00efc8:	15200008 	bnez	t1,9d00efec <L22>
9d00efcc:	00000000 	nop
9d00efd0:	15000003 	bnez	t0,9d00efe0 <L23>
9d00efd4:	00000000 	nop
9d00efd8:	1000ffad 	b	9d00ee90 <Clab1>
9d00efdc:	240a0000 	li	t2,0

9d00efe0 <L23>:
9d00efe0:	01004825 	move	t1,t0
9d00efe4:	24080000 	li	t0,0
9d00efe8:	254affe0 	addiu	t2,t2,-32

9d00efec <L22>:
9d00efec:	712e7020 	clz	t6,t1
9d00eff0:	11c0ffa7 	beqz	t6,9d00ee90 <Clab1>
9d00eff4:	00000000 	nop
9d00eff8:	014e5023 	subu	t2,t2,t6
9d00effc:	000e3822 	neg	a3,t6
9d00f000:	00e83806 	srlv	a3,t0,a3
9d00f004:	01c84004 	sllv	t0,t0,t6
9d00f008:	01c94804 	sllv	t1,t1,t6
9d00f00c:	1000ffa0 	b	9d00ee90 <Clab1>
9d00f010:	01274825 	or	t1,t1,a3

9d00f014 <i16>:
9d00f014:	240107ff 	li	at,2047
9d00f018:	11a10033 	beq	t5,at,9d00f0e8 <Cnan>
9d00f01c:	00000000 	nop
9d00f020:	1000ffdd 	b	9d00ef98 <Cret>
9d00f024:	00000000 	nop

9d00f028 <i15>:
9d00f028:	01287825 	or	t7,t1,t0
9d00f02c:	15e0002e 	bnez	t7,9d00f0e8 <Cnan>
9d00f030:	00000000 	nop
9d00f034:	15a00005 	bnez	t5,9d00f04c <i17>
9d00f038:	00000000 	nop
9d00f03c:	000c7840 	sll	t7,t4,0x1
9d00f040:	01eb7825 	or	t7,t7,t3
9d00f044:	11e00028 	beqz	t7,9d00f0e8 <Cnan>
9d00f048:	00000000 	nop

9d00f04c <i17>:
9d00f04c:	240107ff 	li	at,2047
9d00f050:	15a10021 	bne	t5,at,9d00f0d8 <Cinf>
9d00f054:	00000000 	nop

9d00f058 <CspecB>:
9d00f058:	0160782a 	slt	t7,t3,zero
9d00f05c:	016b5821 	addu	t3,t3,t3
9d00f060:	018c6021 	addu	t4,t4,t4
9d00f064:	15a00019 	bnez	t5,9d00f0cc <i18>
9d00f068:	018f6021 	addu	t4,t4,t7
9d00f06c:	018b7825 	or	t7,t4,t3
9d00f070:	11e00014 	beqz	t7,9d00f0c4 <i19>
9d00f074:	00000000 	nop
9d00f078:	15800008 	bnez	t4,9d00f09c <L25>
9d00f07c:	00000000 	nop
9d00f080:	15600003 	bnez	t3,9d00f090 <L26>
9d00f084:	00000000 	nop
9d00f088:	1000ff85 	b	9d00eea0 <Clab2>
9d00f08c:	240d0000 	li	t5,0

9d00f090 <L26>:
9d00f090:	01606025 	move	t4,t3
9d00f094:	240b0000 	li	t3,0
9d00f098:	25adffe0 	addiu	t5,t5,-32

9d00f09c <L25>:
9d00f09c:	71863020 	clz	a2,t4
9d00f0a0:	10c0ff7f 	beqz	a2,9d00eea0 <Clab2>
9d00f0a4:	00000000 	nop
9d00f0a8:	01a66823 	subu	t5,t5,a2
9d00f0ac:	00067022 	neg	t6,a2
9d00f0b0:	01cb7006 	srlv	t6,t3,t6
9d00f0b4:	00cb5804 	sllv	t3,t3,a2
9d00f0b8:	00cc6004 	sllv	t4,t4,a2
9d00f0bc:	1000ff78 	b	9d00eea0 <Clab2>
9d00f0c0:	018e6025 	or	t4,t4,t6

9d00f0c4 <i19>:
9d00f0c4:	1000ffb4 	b	9d00ef98 <Cret>
9d00f0c8:	24040000 	li	a0,0

9d00f0cc <i18>:
9d00f0cc:	018b7825 	or	t7,t4,t3
9d00f0d0:	15e00005 	bnez	t7,9d00f0e8 <Cnan>
9d00f0d4:	00000000 	nop

9d00f0d8 <Cinf>:
9d00f0d8:	3c017ff0 	lui	at,0x7ff0
9d00f0dc:	00a12825 	or	a1,a1,at
9d00f0e0:	1000ffad 	b	9d00ef98 <Cret>
9d00f0e4:	24040000 	li	a0,0

9d00f0e8 <Cnan>:
9d00f0e8:	3c05fff8 	lui	a1,0xfff8
9d00f0ec:	1000ffaa 	b	9d00ef98 <Cret>
9d00f0f0:	24040000 	li	a0,0

9d00f0f4 <Coveund>:
9d00f0f4:	1d40fff8 	bgtz	t2,9d00f0d8 <Cinf>
9d00f0f8:	00000000 	nop
9d00f0fc:	240e0001 	li	t6,1
9d00f100:	01ca7023 	subu	t6,t6,t2

9d00f104 <L28>:
9d00f104:	2dc10020 	sltiu	at,t6,32
9d00f108:	14200007 	bnez	at,9d00f128 <L29>
9d00f10c:	00000000 	nop
9d00f110:	21ceffe0 	addi	t6,t6,-32
9d00f114:	0008302b 	sltu	a2,zero,t0
9d00f118:	1009000d 	beq	zero,t1,9d00f150 <L30>
9d00f11c:	01264025 	or	t0,t1,a2
9d00f120:	1000fff8 	b	9d00f104 <L28>
9d00f124:	34090000 	li	t1,0x0

9d00f128 <L29>:
9d00f128:	11c00009 	beqz	t6,9d00f150 <L30>
9d00f12c:	00000000 	nop
9d00f130:	000e3822 	neg	a3,t6
9d00f134:	00e83004 	sllv	a2,t0,a3
9d00f138:	00e93804 	sllv	a3,t1,a3
9d00f13c:	01c84006 	srlv	t0,t0,t6
9d00f140:	01c94806 	srlv	t1,t1,t6
9d00f144:	10c00002 	beqz	a2,9d00f150 <L30>
9d00f148:	00e84025 	or	t0,a3,t0
9d00f14c:	35080002 	ori	t0,t0,0x2

9d00f150 <L30>:
9d00f150:	25080400 	addiu	t0,t0,1024
9d00f154:	2d0f0400 	sltiu	t7,t0,1024
9d00f158:	012f4821 	addu	t1,t1,t7
9d00f15c:	1000ff83 	b	9d00ef6c <Clab8>
9d00f160:	000957c2 	srl	t2,t1,0x1f
9d00f164:	00000000 	nop

Disassembly of section .text.__scan_i:

9d00f168 <__scan_i>:
9d00f168:	8cc20008 	lw	v0,8(a2)
9d00f16c:	27bdffb0 	addiu	sp,sp,-80
9d00f170:	afb60040 	sw	s6,64(sp)
9d00f174:	afb20030 	sw	s2,48(sp)
9d00f178:	afb1002c 	sw	s1,44(sp)
9d00f17c:	afb00028 	sw	s0,40(sp)
9d00f180:	afbf004c 	sw	ra,76(sp)
9d00f184:	afbe0048 	sw	s8,72(sp)
9d00f188:	afb70044 	sw	s7,68(sp)
9d00f18c:	afb5003c 	sw	s5,60(sp)
9d00f190:	afb40038 	sw	s4,56(sp)
9d00f194:	afb30034 	sw	s3,52(sp)
9d00f198:	0080b025 	move	s6,a0
9d00f19c:	afa50054 	sw	a1,84(sp)
9d00f1a0:	00e09025 	move	s2,a3
9d00f1a4:	afa20018 	sw	v0,24(sp)
9d00f1a8:	8cd10010 	lw	s1,16(a2)
9d00f1ac:	0f404ad2 	jal	9d012b48 <__skipws>
9d00f1b0:	8cd0000c 	lw	s0,12(a2)
9d00f1b4:	8fa30018 	lw	v1,24(sp)
9d00f1b8:	14600002 	bnez	v1,9d00f1c4 <__scan_i+0x5c>
9d00f1bc:	2623ffff 	addiu	v1,s1,-1
9d00f1c0:	afa30018 	sw	v1,24(sp)
9d00f1c4:	8e430000 	lw	v1,0(s2)
9d00f1c8:	241e000a 	li	s8,10
9d00f1cc:	0000a825 	move	s5,zero
9d00f1d0:	00621821 	addu	v1,v1,v0
9d00f1d4:	2622ffff 	addiu	v0,s1,-1
9d00f1d8:	ae430000 	sw	v1,0(s2)
9d00f1dc:	0000a025 	move	s4,zero
9d00f1e0:	afa20020 	sw	v0,32(sp)
9d00f1e4:	24130008 	li	s3,8
9d00f1e8:	2411000a 	li	s1,10
9d00f1ec:	8fa20018 	lw	v0,24(sp)
9d00f1f0:	0282102a 	slt	v0,s4,v0
9d00f1f4:	10400043 	beqz	v0,9d00f304 <__scan_i+0x19c>
9d00f1f8:	8fa20020 	lw	v0,32(sp)
9d00f1fc:	0282102a 	slt	v0,s4,v0
9d00f200:	10400041 	beqz	v0,9d00f308 <__scan_i+0x1a0>
9d00f204:	02141021 	addu	v0,s0,s4
9d00f208:	8ec2003c 	lw	v0,60(s6)
9d00f20c:	8ec3004c 	lw	v1,76(s6)
9d00f210:	0043182b 	sltu	v1,v0,v1
9d00f214:	1060000f 	beqz	v1,9d00f254 <__scan_i+0xec>
9d00f218:	24430001 	addiu	v1,v0,1
9d00f21c:	aec3003c 	sw	v1,60(s6)
9d00f220:	90570000 	lbu	s7,0(v0)
9d00f224:	26e2ffd5 	addiu	v0,s7,-43
9d00f228:	7c020844 	ins	v0,zero,0x1,0x1
9d00f22c:	00541025 	or	v0,v0,s4
9d00f230:	1440001d 	bnez	v0,9d00f2a8 <__scan_i+0x140>
9d00f234:	02141021 	addu	v0,s0,s4
9d00f238:	a2170000 	sb	s7,0(s0)
9d00f23c:	8e420000 	lw	v0,0(s2)
9d00f240:	24150001 	li	s5,1
9d00f244:	24140001 	li	s4,1
9d00f248:	24420001 	addiu	v0,v0,1
9d00f24c:	1000ffe7 	b	9d00f1ec <__scan_i+0x84>
9d00f250:	ae420000 	sw	v0,0(s2)
9d00f254:	0f404aa5 	jal	9d012a94 <__shgetc>
9d00f258:	02c02025 	move	a0,s6
9d00f25c:	0040b825 	move	s7,v0
9d00f260:	2402ffff 	li	v0,-1
9d00f264:	16e2fff0 	bne	s7,v0,9d00f228 <__scan_i+0xc0>
9d00f268:	26e2ffd5 	addiu	v0,s7,-43
9d00f26c:	16800026 	bnez	s4,9d00f308 <__scan_i+0x1a0>
9d00f270:	02141021 	addu	v0,s0,s4
9d00f274:	8fbf004c 	lw	ra,76(sp)
9d00f278:	02e01025 	move	v0,s7
9d00f27c:	8fbe0048 	lw	s8,72(sp)
9d00f280:	8fb70044 	lw	s7,68(sp)
9d00f284:	8fb60040 	lw	s6,64(sp)
9d00f288:	8fb5003c 	lw	s5,60(sp)
9d00f28c:	8fb40038 	lw	s4,56(sp)
9d00f290:	8fb30034 	lw	s3,52(sp)
9d00f294:	8fb20030 	lw	s2,48(sp)
9d00f298:	8fb1002c 	lw	s1,44(sp)
9d00f29c:	8fb00028 	lw	s0,40(sp)
9d00f2a0:	03e00008 	jr	ra
9d00f2a4:	27bd0050 	addiu	sp,sp,80
9d00f2a8:	16950006 	bne	s4,s5,9d00f2c4 <__scan_i+0x15c>
9d00f2ac:	afa2001c 	sw	v0,28(sp)
9d00f2b0:	17d10026 	bne	s8,s1,9d00f34c <__scan_i+0x1e4>
9d00f2b4:	26950001 	addiu	s5,s4,1
9d00f2b8:	3ae20030 	xori	v0,s7,0x30
9d00f2bc:	0262f00a 	movz	s8,s3,v0
9d00f2c0:	0002a80b 	movn	s5,zero,v0
9d00f2c4:	26e2ffd0 	addiu	v0,s7,-48
9d00f2c8:	2c42000a 	sltiu	v0,v0,10
9d00f2cc:	14400043 	bnez	v0,9d00f3dc <__scan_i+0x274>
9d00f2d0:	24020010 	li	v0,16
9d00f2d4:	57c20006 	bnel	s8,v0,9d00f2f0 <__scan_i+0x188>
9d00f2d8:	8ec2004c 	lw	v0,76(s6)
9d00f2dc:	0f405343 	jal	9d014d0c <isxdigit>
9d00f2e0:	02e02025 	move	a0,s7
9d00f2e4:	14400041 	bnez	v0,9d00f3ec <__scan_i+0x284>
9d00f2e8:	8fa2001c 	lw	v0,28(sp)
9d00f2ec:	8ec2004c 	lw	v0,76(s6)
9d00f2f0:	10400005 	beqz	v0,9d00f308 <__scan_i+0x1a0>
9d00f2f4:	02141021 	addu	v0,s0,s4
9d00f2f8:	8ec2003c 	lw	v0,60(s6)
9d00f2fc:	2442ffff 	addiu	v0,v0,-1
9d00f300:	aec2003c 	sw	v0,60(s6)
9d00f304:	02141021 	addu	v0,s0,s4
9d00f308:	a0400000 	sb	zero,0(v0)
9d00f30c:	2402000a 	li	v0,10
9d00f310:	17c2003c 	bne	s8,v0,9d00f404 <__scan_i+0x29c>
9d00f314:	2406000a 	li	a2,10
9d00f318:	27a50010 	addiu	a1,sp,16
9d00f31c:	0f405290 	jal	9d014a40 <strtoll>
9d00f320:	02002025 	move	a0,s0
9d00f324:	8fa40054 	lw	a0,84(sp)
9d00f328:	ac830004 	sw	v1,4(a0)
9d00f32c:	8fa30010 	lw	v1,16(sp)
9d00f330:	ac820000 	sw	v0,0(a0)
9d00f334:	2402fffe 	li	v0,-2
9d00f338:	00708026 	xor	s0,v1,s0
9d00f33c:	24030001 	li	v1,1
9d00f340:	0050180a 	movz	v1,v0,s0
9d00f344:	1000ffcb 	b	9d00f274 <__scan_i+0x10c>
9d00f348:	0060b825 	move	s7,v1
9d00f34c:	17d30021 	bne	s8,s3,9d00f3d4 <__scan_i+0x26c>
9d00f350:	36e20020 	ori	v0,s7,0x20
9d00f354:	24040078 	li	a0,120
9d00f358:	5444ffda 	bnel	v0,a0,9d00f2c4 <__scan_i+0x15c>
9d00f35c:	0000a825 	move	s5,zero
9d00f360:	8ec2003c 	lw	v0,60(s6)
9d00f364:	8ec4004c 	lw	a0,76(s6)
9d00f368:	0044202b 	sltu	a0,v0,a0
9d00f36c:	10800015 	beqz	a0,9d00f3c4 <__scan_i+0x25c>
9d00f370:	00000000 	nop
9d00f374:	24440001 	addiu	a0,v0,1
9d00f378:	aec4003c 	sw	a0,60(s6)
9d00f37c:	90420000 	lbu	v0,0(v0)
9d00f380:	8ec4004c 	lw	a0,76(s6)
9d00f384:	10800004 	beqz	a0,9d00f398 <__scan_i+0x230>
9d00f388:	00000000 	nop
9d00f38c:	8eca003c 	lw	t2,60(s6)
9d00f390:	254affff 	addiu	t2,t2,-1
9d00f394:	aeca003c 	sw	t2,60(s6)
9d00f398:	0f405343 	jal	9d014d0c <isxdigit>
9d00f39c:	00402025 	move	a0,v0
9d00f3a0:	1040ffd2 	beqz	v0,9d00f2ec <__scan_i+0x184>
9d00f3a4:	8fa2001c 	lw	v0,28(sp)
9d00f3a8:	02a0a025 	move	s4,s5
9d00f3ac:	241e0010 	li	s8,16
9d00f3b0:	a0570000 	sb	s7,0(v0)
9d00f3b4:	8e420000 	lw	v0,0(s2)
9d00f3b8:	24420001 	addiu	v0,v0,1
9d00f3bc:	1000ff8b 	b	9d00f1ec <__scan_i+0x84>
9d00f3c0:	ae420000 	sw	v0,0(s2)
9d00f3c4:	0f404aa5 	jal	9d012a94 <__shgetc>
9d00f3c8:	02c02025 	move	a0,s6
9d00f3cc:	1000ffed 	b	9d00f384 <__scan_i+0x21c>
9d00f3d0:	8ec4004c 	lw	a0,76(s6)
9d00f3d4:	1000ffbb 	b	9d00f2c4 <__scan_i+0x15c>
9d00f3d8:	0000a825 	move	s5,zero
9d00f3dc:	17d30002 	bne	s8,s3,9d00f3e8 <__scan_i+0x280>
9d00f3e0:	2ae20038 	slti	v0,s7,56
9d00f3e4:	0222f00a 	movz	s8,s1,v0
9d00f3e8:	8fa2001c 	lw	v0,28(sp)
9d00f3ec:	26940001 	addiu	s4,s4,1
9d00f3f0:	a0570000 	sb	s7,0(v0)
9d00f3f4:	8e420000 	lw	v0,0(s2)
9d00f3f8:	24420001 	addiu	v0,v0,1
9d00f3fc:	1000ff7b 	b	9d00f1ec <__scan_i+0x84>
9d00f400:	ae420000 	sw	v0,0(s2)
9d00f404:	03c03025 	move	a2,s8
9d00f408:	27a50010 	addiu	a1,sp,16
9d00f40c:	0f405285 	jal	9d014a14 <strtoull>
9d00f410:	02002025 	move	a0,s0
9d00f414:	1000ffc4 	b	9d00f328 <__scan_i+0x1c0>
9d00f418:	8fa40054 	lw	a0,84(sp)

Disassembly of section .text.scanexp:

9d00f41c <scanexp>:
9d00f41c:	8c82003c 	lw	v0,60(a0)
9d00f420:	8c83004c 	lw	v1,76(a0)
9d00f424:	27bdffc8 	addiu	sp,sp,-56
9d00f428:	afb10014 	sw	s1,20(sp)
9d00f42c:	0043182b 	sltu	v1,v0,v1
9d00f430:	afb00010 	sw	s0,16(sp)
9d00f434:	afbf0034 	sw	ra,52(sp)
9d00f438:	afbe0030 	sw	s8,48(sp)
9d00f43c:	afb7002c 	sw	s7,44(sp)
9d00f440:	afb60028 	sw	s6,40(sp)
9d00f444:	afb50024 	sw	s5,36(sp)
9d00f448:	afb40020 	sw	s4,32(sp)
9d00f44c:	afb3001c 	sw	s3,28(sp)
9d00f450:	afb20018 	sw	s2,24(sp)
9d00f454:	00808025 	move	s0,a0
9d00f458:	10600035 	beqz	v1,9d00f530 <scanexp+0x114>
9d00f45c:	00a08825 	move	s1,a1
9d00f460:	24430001 	addiu	v1,v0,1
9d00f464:	ac83003c 	sw	v1,60(a0)
9d00f468:	90520000 	lbu	s2,0(v0)
9d00f46c:	2642ffd5 	addiu	v0,s2,-43
9d00f470:	7c020844 	ins	v0,zero,0x1,0x1
9d00f474:	14400016 	bnez	v0,9d00f4d0 <scanexp+0xb4>
9d00f478:	0000a025 	move	s4,zero
9d00f47c:	8e02003c 	lw	v0,60(s0)
9d00f480:	8e03004c 	lw	v1,76(s0)
9d00f484:	3a52002d 	xori	s2,s2,0x2d
9d00f488:	0043182b 	sltu	v1,v0,v1
9d00f48c:	1060002c 	beqz	v1,9d00f540 <scanexp+0x124>
9d00f490:	2e540001 	sltiu	s4,s2,1
9d00f494:	24430001 	addiu	v1,v0,1
9d00f498:	ae03003c 	sw	v1,60(s0)
9d00f49c:	90520000 	lbu	s2,0(v0)
9d00f4a0:	2642ffd0 	addiu	v0,s2,-48
9d00f4a4:	2c42000a 	sltiu	v0,v0,10
9d00f4a8:	1440000a 	bnez	v0,9d00f4d4 <scanexp+0xb8>
9d00f4ac:	2642ffd0 	addiu	v0,s2,-48
9d00f4b0:	12200009 	beqz	s1,9d00f4d8 <scanexp+0xbc>
9d00f4b4:	2c42000a 	sltiu	v0,v0,10
9d00f4b8:	8e02004c 	lw	v0,76(s0)
9d00f4bc:	10400005 	beqz	v0,9d00f4d4 <scanexp+0xb8>
9d00f4c0:	2642ffd0 	addiu	v0,s2,-48
9d00f4c4:	8e02003c 	lw	v0,60(s0)
9d00f4c8:	2442ffff 	addiu	v0,v0,-1
9d00f4cc:	ae02003c 	sw	v0,60(s0)
9d00f4d0:	2642ffd0 	addiu	v0,s2,-48
9d00f4d4:	2c42000a 	sltiu	v0,v0,10
9d00f4d8:	1440001d 	bnez	v0,9d00f550 <scanexp+0x134>
9d00f4dc:	00009825 	move	s3,zero
9d00f4e0:	8e02004c 	lw	v0,76(s0)
9d00f4e4:	10400004 	beqz	v0,9d00f4f8 <scanexp+0xdc>
9d00f4e8:	3c158000 	lui	s5,0x8000
9d00f4ec:	8e02003c 	lw	v0,60(s0)
9d00f4f0:	2442ffff 	addiu	v0,v0,-1
9d00f4f4:	ae02003c 	sw	v0,60(s0)
9d00f4f8:	8fbf0034 	lw	ra,52(sp)
9d00f4fc:	02601025 	move	v0,s3
9d00f500:	02a01825 	move	v1,s5
9d00f504:	8fbe0030 	lw	s8,48(sp)
9d00f508:	8fb7002c 	lw	s7,44(sp)
9d00f50c:	8fb60028 	lw	s6,40(sp)
9d00f510:	8fb50024 	lw	s5,36(sp)
9d00f514:	8fb40020 	lw	s4,32(sp)
9d00f518:	8fb3001c 	lw	s3,28(sp)
9d00f51c:	8fb20018 	lw	s2,24(sp)
9d00f520:	8fb10014 	lw	s1,20(sp)
9d00f524:	8fb00010 	lw	s0,16(sp)
9d00f528:	03e00008 	jr	ra
9d00f52c:	27bd0038 	addiu	sp,sp,56
9d00f530:	0f404aa5 	jal	9d012a94 <__shgetc>
9d00f534:	00000000 	nop
9d00f538:	1000ffcc 	b	9d00f46c <scanexp+0x50>
9d00f53c:	00409025 	move	s2,v0
9d00f540:	0f404aa5 	jal	9d012a94 <__shgetc>
9d00f544:	02002025 	move	a0,s0
9d00f548:	1000ffd5 	b	9d00f4a0 <scanexp+0x84>
9d00f54c:	00409025 	move	s2,v0
9d00f550:	3c150ccc 	lui	s5,0xccc
9d00f554:	2416000a 	li	s6,10
9d00f558:	36b5cccc 	ori	s5,s5,0xcccc
9d00f55c:	8e02003c 	lw	v0,60(s0)
9d00f560:	8e03004c 	lw	v1,76(s0)
9d00f564:	0043182b 	sltu	v1,v0,v1
9d00f568:	1060001f 	beqz	v1,9d00f5e8 <scanexp+0x1cc>
9d00f56c:	24430001 	addiu	v1,v0,1
9d00f570:	ae03003c 	sw	v1,60(s0)
9d00f574:	90510000 	lbu	s1,0(v0)
9d00f578:	72761002 	mul	v0,s3,s6
9d00f57c:	00529821 	addu	s3,v0,s2
9d00f580:	2622ffd0 	addiu	v0,s1,-48
9d00f584:	2c42000a 	sltiu	v0,v0,10
9d00f588:	10400004 	beqz	v0,9d00f59c <scanexp+0x180>
9d00f58c:	2673ffd0 	addiu	s3,s3,-48
9d00f590:	0275102a 	slt	v0,s3,s5
9d00f594:	1440fff1 	bnez	v0,9d00f55c <scanexp+0x140>
9d00f598:	02209025 	move	s2,s1
9d00f59c:	3c160147 	lui	s6,0x147
9d00f5a0:	36d6ae15 	ori	s6,s6,0xae15
9d00f5a4:	3c177ae1 	lui	s7,0x7ae1
9d00f5a8:	0013afc3 	sra	s5,s3,0x1f
9d00f5ac:	26deffff 	addiu	s8,s6,-1
9d00f5b0:	26f747ae 	addiu	s7,s7,18350
9d00f5b4:	2622ffd0 	addiu	v0,s1,-48
9d00f5b8:	2c42000a 	sltiu	v0,v0,10
9d00f5bc:	14400012 	bnez	v0,9d00f608 <scanexp+0x1ec>
9d00f5c0:	02b6102a 	slt	v0,s5,s6
9d00f5c4:	8e02004c 	lw	v0,76(s0)
9d00f5c8:	5440003e 	bnezl	v0,9d00f6c4 <scanexp+0x2a8>
9d00f5cc:	8e02003c 	lw	v0,60(s0)
9d00f5d0:	1280ffc9 	beqz	s4,9d00f4f8 <scanexp+0xdc>
9d00f5d4:	00158823 	negu	s1,s5
9d00f5d8:	00139823 	negu	s3,s3
9d00f5dc:	0013102b 	sltu	v0,zero,s3
9d00f5e0:	1000ffc5 	b	9d00f4f8 <scanexp+0xdc>
9d00f5e4:	0222a823 	subu	s5,s1,v0
9d00f5e8:	0f404aa5 	jal	9d012a94 <__shgetc>
9d00f5ec:	02002025 	move	a0,s0
9d00f5f0:	1000ffe1 	b	9d00f578 <scanexp+0x15c>
9d00f5f4:	00408825 	move	s1,v0
9d00f5f8:	0f404aa5 	jal	9d012a94 <__shgetc>
9d00f5fc:	02002025 	move	a0,s0
9d00f600:	10000010 	b	9d00f644 <scanexp+0x228>
9d00f604:	2403000a 	li	v1,10
9d00f608:	50400025 	beqzl	v0,9d00f6a0 <scanexp+0x284>
9d00f60c:	2631ffd0 	addiu	s1,s1,-48
9d00f610:	16be0003 	bne	s5,s8,9d00f620 <scanexp+0x204>
9d00f614:	0277102b 	sltu	v0,s3,s7
9d00f618:	50400021 	beqzl	v0,9d00f6a0 <scanexp+0x284>
9d00f61c:	2631ffd0 	addiu	s1,s1,-48
9d00f620:	8e02003c 	lw	v0,60(s0)
9d00f624:	8e03004c 	lw	v1,76(s0)
9d00f628:	0043182b 	sltu	v1,v0,v1
9d00f62c:	1060fff2 	beqz	v1,9d00f5f8 <scanexp+0x1dc>
9d00f630:	00000000 	nop
9d00f634:	24430001 	addiu	v1,v0,1
9d00f638:	ae03003c 	sw	v1,60(s0)
9d00f63c:	90420000 	lbu	v0,0(v0)
9d00f640:	2403000a 	li	v1,10
9d00f644:	00730019 	multu	v1,s3
9d00f648:	00009012 	mflo	s2
9d00f64c:	00009810 	mfhi	s3
9d00f650:	70752002 	mul	a0,v1,s5
9d00f654:	00939821 	addu	s3,a0,s3
9d00f658:	001127c3 	sra	a0,s1,0x1f
9d00f65c:	02518821 	addu	s1,s2,s1
9d00f660:	0232182b 	sltu	v1,s1,s2
9d00f664:	02642021 	addu	a0,s3,a0
9d00f668:	00641821 	addu	v1,v1,a0
9d00f66c:	2633ffd0 	addiu	s3,s1,-48
9d00f670:	0271882b 	sltu	s1,s3,s1
9d00f674:	2463ffff 	addiu	v1,v1,-1
9d00f678:	0223a821 	addu	s5,s1,v1
9d00f67c:	1000ffcd 	b	9d00f5b4 <scanexp+0x198>
9d00f680:	00408825 	move	s1,v0
9d00f684:	8e03004c 	lw	v1,76(s0)
9d00f688:	0043182b 	sltu	v1,v0,v1
9d00f68c:	10600009 	beqz	v1,9d00f6b4 <scanexp+0x298>
9d00f690:	24430001 	addiu	v1,v0,1
9d00f694:	ae03003c 	sw	v1,60(s0)
9d00f698:	90510000 	lbu	s1,0(v0)
9d00f69c:	2631ffd0 	addiu	s1,s1,-48
9d00f6a0:	2e31000a 	sltiu	s1,s1,10
9d00f6a4:	5620fff7 	bnezl	s1,9d00f684 <scanexp+0x268>
9d00f6a8:	8e02003c 	lw	v0,60(s0)
9d00f6ac:	1000ffc6 	b	9d00f5c8 <scanexp+0x1ac>
9d00f6b0:	8e02004c 	lw	v0,76(s0)
9d00f6b4:	0f404aa5 	jal	9d012a94 <__shgetc>
9d00f6b8:	02002025 	move	a0,s0
9d00f6bc:	1000fff7 	b	9d00f69c <scanexp+0x280>
9d00f6c0:	00408825 	move	s1,v0
9d00f6c4:	2442ffff 	addiu	v0,v0,-1
9d00f6c8:	1000ffc1 	b	9d00f5d0 <scanexp+0x1b4>
9d00f6cc:	ae02003c 	sw	v0,60(s0)

Disassembly of section .text.libm:

9d00f6d0 <dpfmod>:
9d00f6d0:	00055040 000a5542 00054ac0 00047d42     @P..BU...J..B}..
9d00f6e0:	012f4825 000442c0 3c0e8000 012e4825     %H/..B.....<%H..
9d00f6f0:	00076840 000d6d42 000762c0 00067d42     @h..Bm...b..B}..
9d00f700:	018f6025 00065ac0 018e6025 01c57024     %`...Z..%`..$p..
9d00f710:	254fffff 2de107fe 10200056 00000000     ..O%...-V. .....

9d00f720 <Alab1>:
9d00f720:	25afffff 	addiu	t7,t5,-1
9d00f724:	2de107fe 	sltiu	at,t7,2046
9d00f728:	1020006e 	beqz	at,9d00f8e4 <AspecB>
9d00f72c:	00000000 	nop

9d00f730 <Alab2>:
9d00f730:	014d3823 	subu	a3,t2,t5
9d00f734:	04e0004b 	bltz	a3,9d00f864 <Aret2>
9d00f738:	00000000 	nop
9d00f73c:	00084042 	srl	t0,t0,0x1
9d00f740:	00097fc0 	sll	t7,t1,0x1f
9d00f744:	010f4025 	or	t0,t0,t7
9d00f748:	00094842 	srl	t1,t1,0x1
9d00f74c:	000b5842 	srl	t3,t3,0x1
9d00f750:	000c7fc0 	sll	t7,t4,0x1f
9d00f754:	016f5825 	or	t3,t3,t7
9d00f758:	000c6042 	srl	t4,t4,0x1

9d00f75c <b1>:
9d00f75c:	010b782b 	sltu	t7,t0,t3
9d00f760:	010b4023 	subu	t0,t0,t3
9d00f764:	012f102b 	sltu	v0,t1,t7
9d00f768:	012f4823 	subu	t1,t1,t7
9d00f76c:	012c782b 	sltu	t7,t1,t4
9d00f770:	01e27825 	or	t7,t7,v0
9d00f774:	11e00005 	beqz	t7,9d00f78c <i2>
9d00f778:	012c4823 	subu	t1,t1,t4
9d00f77c:	010b4021 	addu	t0,t0,t3
9d00f780:	010b782b 	sltu	t7,t0,t3
9d00f784:	012c4821 	addu	t1,t1,t4
9d00f788:	012f4821 	addu	t1,t1,t7

9d00f78c <i2>:
9d00f78c:	0100782a 	slt	t7,t0,zero
9d00f790:	01084021 	addu	t0,t0,t0
9d00f794:	01294821 	addu	t1,t1,t1
9d00f798:	012f4821 	addu	t1,t1,t7
9d00f79c:	24e7ffff 	addiu	a3,a3,-1
9d00f7a0:	04e1ffee 	bgez	a3,9d00f75c <b1>
9d00f7a4:	00000000 	nop
9d00f7a8:	15200008 	bnez	t1,9d00f7cc <L1>
9d00f7ac:	000d5025 	or	t2,zero,t5
9d00f7b0:	15000003 	bnez	t0,9d00f7c0 <L2>
9d00f7b4:	00000000 	nop
9d00f7b8:	1000000d 	b	9d00f7f0 <L3>
9d00f7bc:	240a0000 	li	t2,0

9d00f7c0 <L2>:
9d00f7c0:	01004825 	move	t1,t0
9d00f7c4:	24080000 	li	t0,0
9d00f7c8:	254affe0 	addiu	t2,t2,-32

9d00f7cc <L1>:
9d00f7cc:	71273820 	clz	a3,t1
9d00f7d0:	10e00007 	beqz	a3,9d00f7f0 <L3>
9d00f7d4:	00000000 	nop
9d00f7d8:	01475023 	subu	t2,t2,a3
9d00f7dc:	00073022 	neg	a2,a3
9d00f7e0:	00c83006 	srlv	a2,t0,a2
9d00f7e4:	00e84004 	sllv	t0,t0,a3
9d00f7e8:	00e94804 	sllv	t1,t1,a3
9d00f7ec:	01264825 	or	t1,t1,a2

9d00f7f0 <L3>:
9d00f7f0:	1d400014 	bgtz	t2,9d00f844 <i3>
9d00f7f4:	00000000 	nop
9d00f7f8:	24070001 	li	a3,1
9d00f7fc:	00ea3823 	subu	a3,a3,t2

9d00f800 <L4>:
9d00f800:	2ce10020 	sltiu	at,a3,32
9d00f804:	14200005 	bnez	at,9d00f81c <L5>
9d00f808:	00000000 	nop
9d00f80c:	00094025 	or	t0,zero,t1
9d00f810:	24090000 	li	t1,0
9d00f814:	1500fffa 	bnez	t0,9d00f800 <L4>
9d00f818:	24e7ffe0 	addiu	a3,a3,-32

9d00f81c <L5>:
9d00f81c:	10e00008 	beqz	a3,9d00f840 <L6>
9d00f820:	00000000 	nop
9d00f824:	00093025 	or	a2,zero,t1
9d00f828:	00e84006 	srlv	t0,t0,a3
9d00f82c:	00e94806 	srlv	t1,t1,a3
9d00f830:	240f0020 	li	t7,32
9d00f834:	01e73823 	subu	a3,t7,a3
9d00f838:	00e63004 	sllv	a2,a2,a3
9d00f83c:	01064025 	or	t0,t0,a2

9d00f840 <L6>:
9d00f840:	240a0000 	li	t2,0

9d00f844 <i3>:
9d00f844:	000822c2 	srl	a0,t0,0xb
9d00f848:	00097d40 	sll	t7,t1,0x15
9d00f84c:	008f2025 	or	a0,a0,t7
9d00f850:	00092840 	sll	a1,t1,0x1
9d00f854:	00052b02 	srl	a1,a1,0xc
9d00f858:	000a7d00 	sll	t7,t2,0x14
9d00f85c:	00af2825 	or	a1,a1,t7
9d00f860:	00ae2825 	or	a1,a1,t6

9d00f864 <Aret2>:
9d00f864:	00041025 	or	v0,zero,a0
9d00f868:	00051825 	or	v1,zero,a1

9d00f86c <A999>:
9d00f86c:	03e00008 	jr	ra
9d00f870:	00000000 	nop

9d00f874 <AspecA>:
9d00f874:	1540003b 	bnez	t2,9d00f964 <Anan>
9d00f878:	00000000 	nop
9d00f87c:	0100782a 	slt	t7,t0,zero
9d00f880:	01084021 	addu	t0,t0,t0
9d00f884:	01294821 	addu	t1,t1,t1
9d00f888:	012f4821 	addu	t1,t1,t7
9d00f88c:	01287825 	or	t7,t1,t0
9d00f890:	11e0ffa3 	beqz	t7,9d00f720 <Alab1>
9d00f894:	00000000 	nop
9d00f898:	15200008 	bnez	t1,9d00f8bc <L7>
9d00f89c:	00000000 	nop
9d00f8a0:	15000003 	bnez	t0,9d00f8b0 <L8>
9d00f8a4:	00000000 	nop
9d00f8a8:	1000ff9d 	b	9d00f720 <Alab1>
9d00f8ac:	240a0000 	li	t2,0

9d00f8b0 <L8>:
9d00f8b0:	01004825 	move	t1,t0
9d00f8b4:	24080000 	li	t0,0
9d00f8b8:	254affe0 	addiu	t2,t2,-32

9d00f8bc <L7>:
9d00f8bc:	71273820 	clz	a3,t1
9d00f8c0:	10e0ff97 	beqz	a3,9d00f720 <Alab1>
9d00f8c4:	00000000 	nop
9d00f8c8:	01475023 	subu	t2,t2,a3
9d00f8cc:	00073022 	neg	a2,a3
9d00f8d0:	00c83006 	srlv	a2,t0,a2
9d00f8d4:	00e84004 	sllv	t0,t0,a3
9d00f8d8:	00e94804 	sllv	t1,t1,a3
9d00f8dc:	1000ff90 	b	9d00f720 <Alab1>
9d00f8e0:	01264825 	or	t1,t1,a2

9d00f8e4 <AspecB>:
9d00f8e4:	15a0001b 	bnez	t5,9d00f954 <i5>
9d00f8e8:	00000000 	nop
9d00f8ec:	0160782a 	slt	t7,t3,zero
9d00f8f0:	016b5821 	addu	t3,t3,t3
9d00f8f4:	018c6021 	addu	t4,t4,t4
9d00f8f8:	018f6021 	addu	t4,t4,t7
9d00f8fc:	018b7825 	or	t7,t4,t3
9d00f900:	11e00018 	beqz	t7,9d00f964 <Anan>
9d00f904:	00000000 	nop
9d00f908:	15800008 	bnez	t4,9d00f92c <L10>
9d00f90c:	00000000 	nop
9d00f910:	15600003 	bnez	t3,9d00f920 <L11>
9d00f914:	00000000 	nop
9d00f918:	1000ff85 	b	9d00f730 <Alab2>
9d00f91c:	240d0000 	li	t5,0

9d00f920 <L11>:
9d00f920:	01606025 	move	t4,t3
9d00f924:	240b0000 	li	t3,0
9d00f928:	25adffe0 	addiu	t5,t5,-32

9d00f92c <L10>:
9d00f92c:	71873820 	clz	a3,t4
9d00f930:	10e0ff7f 	beqz	a3,9d00f730 <Alab2>
9d00f934:	00000000 	nop
9d00f938:	01a76823 	subu	t5,t5,a3
9d00f93c:	00073022 	neg	a2,a3
9d00f940:	00cb3006 	srlv	a2,t3,a2
9d00f944:	00eb5804 	sllv	t3,t3,a3
9d00f948:	00ec6004 	sllv	t4,t4,a3
9d00f94c:	1000ff78 	b	9d00f730 <Alab2>
9d00f950:	01866025 	or	t4,t4,a2

9d00f954 <i5>:
9d00f954:	000c7840 	sll	t7,t4,0x1
9d00f958:	01eb7825 	or	t7,t7,t3
9d00f95c:	11e0ffc1 	beqz	t7,9d00f864 <Aret2>
9d00f960:	00000000 	nop

9d00f964 <Anan>:
9d00f964:	3c05fff8 	lui	a1,0xfff8
9d00f968:	1000ffbe 	b	9d00f864 <Aret2>
9d00f96c:	24040000 	li	a0,0
9d00f970:	00000000 	nop

Disassembly of section .text.malloc:

9d00f974 <malloc>:
9d00f974:	27bdffd8 	addiu	sp,sp,-40
9d00f978:	afa40028 	sw	a0,40(sp)
9d00f97c:	27a40028 	addiu	a0,sp,40
9d00f980:	afbf0024 	sw	ra,36(sp)
9d00f984:	afb10020 	sw	s1,32(sp)
9d00f988:	0f40507f 	jal	9d0141fc <adjust_size>
9d00f98c:	afb0001c 	sw	s0,28(sp)
9d00f990:	04410007 	bgez	v0,9d00f9b0 <malloc+0x3c>
9d00f994:	8fa20028 	lw	v0,40(sp)
9d00f998:	00001025 	move	v0,zero
9d00f99c:	8fbf0024 	lw	ra,36(sp)
9d00f9a0:	8fb10020 	lw	s1,32(sp)
9d00f9a4:	8fb0001c 	lw	s0,28(sp)
9d00f9a8:	03e00008 	jr	ra
9d00f9ac:	27bd0028 	addiu	sp,sp,40
9d00f9b0:	00021102 	srl	v0,v0,0x4
9d00f9b4:	2451ffff 	addiu	s1,v0,-1
9d00f9b8:	2e230021 	sltiu	v1,s1,33
9d00f9bc:	14600009 	bnez	v1,9d00f9e4 <malloc+0x70>
9d00f9c0:	2442fffe 	addiu	v0,v0,-2
9d00f9c4:	3c039d01 	lui	v1,0x9d01
9d00f9c8:	2c440200 	sltiu	a0,v0,512
9d00f9cc:	10800022 	beqz	a0,9d00fa58 <malloc+0xe4>
9d00f9d0:	24634168 	addiu	v1,v1,16744
9d00f9d4:	000210c2 	srl	v0,v0,0x3
9d00f9d8:	00621021 	addu	v0,v1,v0
9d00f9dc:	9051fffc 	lbu	s1,-4(v0)
9d00f9e0:	26310001 	addiu	s1,s1,1
9d00f9e4:	02203025 	move	a2,s1
9d00f9e8:	24040001 	li	a0,1
9d00f9ec:	0f405229 	jal	9d0148a4 <__ashldi3>
9d00f9f0:	00002825 	move	a1,zero
9d00f9f4:	00025823 	negu	t3,v0
9d00f9f8:	000b382b 	sltu	a3,zero,t3
9d00f9fc:	00031823 	negu	v1,v1
9d00fa00:	3c0aa001 	lui	t2,0xa001
9d00fa04:	3c089d01 	lui	t0,0x9d01
9d00fa08:	00673823 	subu	a3,v1,a3
9d00fa0c:	25084148 	addiu	t0,t0,16712
9d00fa10:	3c0c076b 	lui	t4,0x76b
9d00fa14:	2549a098 	addiu	t1,t2,-24424
9d00fa18:	8d42a098 	lw	v0,-24424(t2)
9d00fa1c:	8d43a09c 	lw	v1,-24420(t2)
9d00fa20:	01622824 	and	a1,t3,v0
9d00fa24:	00e31824 	and	v1,a3,v1
9d00fa28:	00a32025 	or	a0,a1,v1
9d00fa2c:	14800039 	bnez	a0,9d00fb14 <malloc+0x1a0>
9d00fa30:	8fa20028 	lw	v0,40(sp)
9d00fa34:	27a40010 	addiu	a0,sp,16
9d00fa38:	24420010 	addiu	v0,v0,16
9d00fa3c:	0f4051ed 	jal	9d0147b4 <__expand_heap>
9d00fa40:	afa20010 	sw	v0,16(sp)
9d00fa44:	14400009 	bnez	v0,9d00fa6c <malloc+0xf8>
9d00fa48:	3c03a001 	lui	v1,0xa001
9d00fa4c:	2404000c 	li	a0,12
9d00fa50:	1000ffd2 	b	9d00f99c <malloc+0x28>
9d00fa54:	ac64a378 	sw	a0,-23688(v1)
9d00fa58:	000211c2 	srl	v0,v0,0x7
9d00fa5c:	00621021 	addu	v0,v1,v0
9d00fa60:	9051fffc 	lbu	s1,-4(v0)
9d00fa64:	1000ffdf 	b	9d00f9e4 <malloc+0x70>
9d00fa68:	26310011 	addiu	s1,s1,17
9d00fa6c:	3c03a001 	lui	v1,0xa001
9d00fa70:	8c71a090 	lw	s1,-24432(v1)
9d00fa74:	10510006 	beq	v0,s1,9d00fa90 <malloc+0x11c>
9d00fa78:	8fa40010 	lw	a0,16(sp)
9d00fa7c:	24510010 	addiu	s1,v0,16
9d00fa80:	2484fff0 	addiu	a0,a0,-16
9d00fa84:	afa40010 	sw	a0,16(sp)
9d00fa88:	24040001 	li	a0,1
9d00fa8c:	ac440008 	sw	a0,8(v0)
9d00fa90:	8fa20010 	lw	v0,16(sp)
9d00fa94:	2630fff8 	addiu	s0,s1,-8
9d00fa98:	02222021 	addu	a0,s1,v0
9d00fa9c:	ac64a090 	sw	a0,-24432(v1)
9d00faa0:	34420001 	ori	v0,v0,0x1
9d00faa4:	24030001 	li	v1,1
9d00faa8:	ac82fff8 	sw	v0,-8(a0)
9d00faac:	ac83fffc 	sw	v1,-4(a0)
9d00fab0:	1200ffb9 	beqz	s0,9d00f998 <malloc+0x24>
9d00fab4:	ae22fffc 	sw	v0,-4(s1)
9d00fab8:	0f404ee0 	jal	9d013b80 <alloc_rev>
9d00fabc:	02002025 	move	a0,s0
9d00fac0:	10400010 	beqz	v0,9d00fb04 <malloc+0x190>
9d00fac4:	8fa50028 	lw	a1,40(sp)
9d00fac8:	8e23fff8 	lw	v1,-8(s1)
9d00facc:	2402fffe 	li	v0,-2
9d00fad0:	8e25fffc 	lw	a1,-4(s1)
9d00fad4:	00431824 	and	v1,v0,v1
9d00fad8:	02031823 	subu	v1,s0,v1
9d00fadc:	8c640004 	lw	a0,4(v1)
9d00fae0:	00442024 	and	a0,v0,a0
9d00fae4:	00852021 	addu	a0,a0,a1
9d00fae8:	ac640004 	sw	a0,4(v1)
9d00faec:	8e25fffc 	lw	a1,-4(s1)
9d00faf0:	00451024 	and	v0,v0,a1
9d00faf4:	02028021 	addu	s0,s0,v0
9d00faf8:	ae040000 	sw	a0,0(s0)
9d00fafc:	00608025 	move	s0,v1
9d00fb00:	8fa50028 	lw	a1,40(sp)
9d00fb04:	0f405095 	jal	9d014254 <trim>
9d00fb08:	02002025 	move	a0,s0
9d00fb0c:	1000ffa3 	b	9d00f99c <malloc+0x28>
9d00fb10:	26020008 	addiu	v0,s0,8
9d00fb14:	14a0002f 	bnez	a1,9d00fbd4 <malloc+0x260>
9d00fb18:	3582e629 	ori	v0,t4,0xe629
9d00fb1c:	00032023 	negu	a0,v1
9d00fb20:	00832024 	and	a0,a0,v1
9d00fb24:	70822002 	mul	a0,a0,v0
9d00fb28:	000426c2 	srl	a0,a0,0x1b
9d00fb2c:	01042021 	addu	a0,t0,a0
9d00fb30:	80860000 	lb	a2,0(a0)
9d00fb34:	24c60020 	addiu	a2,a2,32
9d00fb38:	0f405246 	jal	9d014918 <lock_bin>
9d00fb3c:	00c02025 	move	a0,a2
9d00fb40:	24c40001 	addiu	a0,a2,1
9d00fb44:	000420c0 	sll	a0,a0,0x3
9d00fb48:	00891021 	addu	v0,a0,t1
9d00fb4c:	8c500000 	lw	s0,0(v0)
9d00fb50:	2484fff8 	addiu	a0,a0,-8
9d00fb54:	01242021 	addu	a0,t1,a0
9d00fb58:	1204ffaf 	beq	s0,a0,9d00fa18 <malloc+0xa4>
9d00fb5c:	28c20028 	slti	v0,a2,40
9d00fb60:	14400023 	bnez	v0,9d00fbf0 <malloc+0x27c>
9d00fb64:	26310002 	addiu	s1,s1,2
9d00fb68:	0226882a 	slt	s1,s1,a2
9d00fb6c:	16200003 	bnez	s1,9d00fb7c <malloc+0x208>
9d00fb70:	2402003f 	li	v0,63
9d00fb74:	14c2001f 	bne	a2,v0,9d00fbf4 <malloc+0x280>
9d00fb78:	00c02825 	move	a1,a2
9d00fb7c:	8e070004 	lw	a3,4(s0)
9d00fb80:	8fa50028 	lw	a1,40(sp)
9d00fb84:	7c070004 	ins	a3,zero,0x0,0x1
9d00fb88:	00e54023 	subu	t0,a3,a1
9d00fb8c:	0f404ff4 	jal	9d013fd0 <bin_index>
9d00fb90:	01002025 	move	a0,t0
9d00fb94:	14c20016 	bne	a2,v0,9d00fbf0 <malloc+0x27c>
9d00fb98:	02073821 	addu	a3,s0,a3
9d00fb9c:	8e03000c 	lw	v1,12(s0)
9d00fba0:	8e040008 	lw	a0,8(s0)
9d00fba4:	02051021 	addu	v0,s0,a1
9d00fba8:	ac43000c 	sw	v1,12(v0)
9d00fbac:	ac440008 	sw	a0,8(v0)
9d00fbb0:	ac620008 	sw	v0,8(v1)
9d00fbb4:	8c430008 	lw	v1,8(v0)
9d00fbb8:	34a50001 	ori	a1,a1,0x1
9d00fbbc:	ac62000c 	sw	v0,12(v1)
9d00fbc0:	ac450000 	sw	a1,0(v0)
9d00fbc4:	ac480004 	sw	t0,4(v0)
9d00fbc8:	ace80000 	sw	t0,0(a3)
9d00fbcc:	1000ffcc 	b	9d00fb00 <malloc+0x18c>
9d00fbd0:	ae050004 	sw	a1,4(s0)
9d00fbd4:	00052023 	negu	a0,a1
9d00fbd8:	00852024 	and	a0,a0,a1
9d00fbdc:	70822002 	mul	a0,a0,v0
9d00fbe0:	000426c2 	srl	a0,a0,0x1b
9d00fbe4:	01042021 	addu	a0,t0,a0
9d00fbe8:	1000ffd3 	b	9d00fb38 <malloc+0x1c4>
9d00fbec:	80860000 	lb	a2,0(a0)
9d00fbf0:	00c02825 	move	a1,a2
9d00fbf4:	0f404b2a 	jal	9d012ca8 <unbin>
9d00fbf8:	02002025 	move	a0,s0
9d00fbfc:	1000ffc1 	b	9d00fb04 <malloc+0x190>
9d00fc00:	8fa50028 	lw	a1,40(sp)

Disassembly of section .text.fpsubadd:

9d00fc04 <__subsf3>:
9d00fc04:	3c018000 00a12826                       ...<&(..

9d00fc0c <__addsf3>:
9d00fc0c:	00044dc2 312900ff 00055dc2 316b00ff     .M....)1.]....k1
9d00fc1c:	3c078000 00044200 01074025 00055200     ...<.B..%@...R..
9d00fc2c:	01475025 252dffff 2da100fe 10200061     %PG...-%...-a. .
9d00fc3c:	00000000                                ....

9d00fc40 <Blab1>:
9d00fc40:	256dffff 	addiu	t5,t3,-1
9d00fc44:	2da100fe 	sltiu	at,t5,254
9d00fc48:	10200077 	beqz	at,9d00fe28 <BspecB>
9d00fc4c:	00000000 	nop

9d00fc50 <Blab2>:
9d00fc50:	012b6023 	subu	t4,t1,t3
9d00fc54:	0580000d 	bltz	t4,9d00fc8c <i1>
9d00fc58:	00000000 	nop
9d00fc5c:	29810020 	slti	at,t4,32
9d00fc60:	14200003 	bnez	at,9d00fc70 <i2>
9d00fc64:	00000000 	nop
9d00fc68:	10000015 	b	9d00fcc0 <e1>
9d00fc6c:	240a0002 	li	t2,2

9d00fc70 <i2>:
9d00fc70:	000a3025 	or	a2,zero,t2
9d00fc74:	018a5006 	srlv	t2,t2,t4
9d00fc78:	018a6804 	sllv	t5,t2,t4
9d00fc7c:	11a60010 	beq	t5,a2,9d00fcc0 <e1>
9d00fc80:	00000000 	nop
9d00fc84:	1000000e 	b	9d00fcc0 <e1>
9d00fc88:	354a0002 	ori	t2,t2,0x2

9d00fc8c <i1>:
9d00fc8c:	000b4825 	or	t1,zero,t3
9d00fc90:	000c6023 	negu	t4,t4
9d00fc94:	29810020 	slti	at,t4,32
9d00fc98:	14200003 	bnez	at,9d00fca8 <i4>
9d00fc9c:	00000000 	nop
9d00fca0:	10000007 	b	9d00fcc0 <e1>
9d00fca4:	24080002 	li	t0,2

9d00fca8 <i4>:
9d00fca8:	00083025 	or	a2,zero,t0
9d00fcac:	01884006 	srlv	t0,t0,t4
9d00fcb0:	01886804 	sllv	t5,t0,t4
9d00fcb4:	11a60002 	beq	t5,a2,9d00fcc0 <e1>
9d00fcb8:	00000000 	nop
9d00fcbc:	35080002 	ori	t0,t0,0x2

9d00fcc0 <e1>:
9d00fcc0:	00876024 	and	t4,a0,a3
9d00fcc4:	01856826 	xor	t5,t4,a1
9d00fcc8:	05a00010 	bltz	t5,9d00fd0c <Bsub1>
9d00fccc:	00000000 	nop
9d00fcd0:	010a4021 	addu	t0,t0,t2
9d00fcd4:	010a682b 	sltu	t5,t0,t2
9d00fcd8:	11a00017 	beqz	t5,9d00fd38 <Bres>
9d00fcdc:	00000000 	nop
9d00fce0:	310d0001 	andi	t5,t0,0x1
9d00fce4:	11a00002 	beqz	t5,9d00fcf0 <i7>
9d00fce8:	00000000 	nop
9d00fcec:	35080002 	ori	t0,t0,0x2

9d00fcf0 <i7>:
9d00fcf0:	00084042 	srl	t0,t0,0x1
9d00fcf4:	25290001 	addiu	t1,t1,1
9d00fcf8:	240100ff 	li	at,255
9d00fcfc:	1521000e 	bne	t1,at,9d00fd38 <Bres>
9d00fd00:	00000000 	nop
9d00fd04:	1000000c 	b	9d00fd38 <Bres>
9d00fd08:	24080000 	li	t0,0

9d00fd0c <Bsub1>:
9d00fd0c:	010a682b 	sltu	t5,t0,t2
9d00fd10:	11a00004 	beqz	t5,9d00fd24 <i9>
9d00fd14:	010a4023 	subu	t0,t0,t2
9d00fd18:	00084023 	negu	t0,t0
9d00fd1c:	10000003 	b	9d00fd2c <e9>
9d00fd20:	01876026 	xor	t4,t4,a3

9d00fd24 <i9>:
9d00fd24:	11000050 	beqz	t0,9d00fe68 <Bzer>
9d00fd28:	00000000 	nop

9d00fd2c <e9>:
9d00fd2c:	71063020 	clz	a2,t0
9d00fd30:	01264823 	subu	t1,t1,a2
9d00fd34:	00c84004 	sllv	t0,t0,a2

9d00fd38 <Bres>:
9d00fd38:	1920000e 	blez	t1,9d00fd74 <Bund>
9d00fd3c:	00000000 	nop

9d00fd40 <Blab12>:
9d00fd40:	25080080 	addiu	t0,t0,128
9d00fd44:	2d0d0080 	sltiu	t5,t0,128
9d00fd48:	012d4821 	addu	t1,t1,t5
9d00fd4c:	00086a02 	srl	t5,t0,0x8
9d00fd50:	31ad0001 	andi	t5,t5,0x1
9d00fd54:	010d4023 	subu	t0,t0,t5
9d00fd58:	00084040 	sll	t0,t0,0x1
9d00fd5c:	00084242 	srl	t0,t0,0x9
9d00fd60:	00096dc0 	sll	t5,t1,0x17
9d00fd64:	010d4025 	or	t0,t0,t5
9d00fd68:	010c1025 	or	v0,t0,t4

9d00fd6c <B999>:
9d00fd6c:	03e00008 	jr	ra
9d00fd70:	00000000 	nop

9d00fd74 <Bund>:
9d00fd74:	24060001 	li	a2,1
9d00fd78:	00c93023 	subu	a2,a2,t1
9d00fd7c:	2cc10020 	sltiu	at,a2,32
9d00fd80:	10200039 	beqz	at,9d00fe68 <Bzer>
9d00fd84:	00000000 	nop
9d00fd88:	3c018000 	lui	at,0x8000
9d00fd8c:	01014025 	or	t0,t0,at
9d00fd90:	240d0020 	li	t5,32
9d00fd94:	01a66823 	subu	t5,t5,a2
9d00fd98:	01a84804 	sllv	t1,t0,t5
9d00fd9c:	11200002 	beqz	t1,9d00fda8 <i10>
9d00fda0:	00c84006 	srlv	t0,t0,a2
9d00fda4:	35080001 	ori	t0,t0,0x1

9d00fda8 <i10>:
9d00fda8:	24090000 	li	t1,0
9d00fdac:	250d0080 	addiu	t5,t0,128
9d00fdb0:	05a1ffe3 	bgez	t5,9d00fd40 <Blab12>
9d00fdb4:	00000000 	nop
9d00fdb8:	1000ffe1 	b	9d00fd40 <Blab12>
9d00fdbc:	24090001 	li	t1,1

9d00fdc0 <BspecA>:
9d00fdc0:	1520000e 	bnez	t1,9d00fdfc <i12>
9d00fdc4:	00000000 	nop
9d00fdc8:	01084021 	addu	t0,t0,t0
9d00fdcc:	11000005 	beqz	t0,9d00fde4 <i13>
9d00fdd0:	00000000 	nop
9d00fdd4:	710c6020 	clz	t4,t0
9d00fdd8:	012c4823 	subu	t1,t1,t4
9d00fddc:	1000ff98 	b	9d00fc40 <Blab1>
9d00fde0:	01884004 	sllv	t0,t0,t4

9d00fde4 <i13>:
9d00fde4:	240100ff 	li	at,255
9d00fde8:	1161000f 	beq	t3,at,9d00fe28 <BspecB>
9d00fdec:	00000000 	nop
9d00fdf0:	3c018000 	lui	at,0x8000
9d00fdf4:	14a10018 	bne	a1,at,9d00fe58 <BretB>
9d00fdf8:	00000000 	nop

9d00fdfc <i12>:
9d00fdfc:	01086821 	addu	t5,t0,t0
9d00fe00:	15a0001b 	bnez	t5,9d00fe70 <Bnan>
9d00fe04:	00000000 	nop
9d00fe08:	240100ff 	li	at,255
9d00fe0c:	15610014 	bne	t3,at,9d00fe60 <BretA>
9d00fe10:	00000000 	nop
9d00fe14:	00856826 	xor	t5,a0,a1
9d00fe18:	05a00015 	bltz	t5,9d00fe70 <Bnan>
9d00fe1c:	00000000 	nop
9d00fe20:	1000000d 	b	9d00fe58 <BretB>
9d00fe24:	00000000 	nop

9d00fe28 <BspecB>:
9d00fe28:	15600008 	bnez	t3,9d00fe4c <i15>
9d00fe2c:	00000000 	nop
9d00fe30:	014a5021 	addu	t2,t2,t2
9d00fe34:	1140000a 	beqz	t2,9d00fe60 <BretA>
9d00fe38:	00000000 	nop
9d00fe3c:	714c6020 	clz	t4,t2
9d00fe40:	016c5823 	subu	t3,t3,t4
9d00fe44:	1000ff82 	b	9d00fc50 <Blab2>
9d00fe48:	018a5004 	sllv	t2,t2,t4

9d00fe4c <i15>:
9d00fe4c:	014a6821 	addu	t5,t2,t2
9d00fe50:	15a00007 	bnez	t5,9d00fe70 <Bnan>
9d00fe54:	00000000 	nop

9d00fe58 <BretB>:
9d00fe58:	1000ffc4 	b	9d00fd6c <B999>
9d00fe5c:	00051025 	or	v0,zero,a1

9d00fe60 <BretA>:
9d00fe60:	1000ffc2 	b	9d00fd6c <B999>
9d00fe64:	00041025 	or	v0,zero,a0

9d00fe68 <Bzer>:
9d00fe68:	1000ffc0 	b	9d00fd6c <B999>
9d00fe6c:	24020000 	li	v0,0

9d00fe70 <Bnan>:
9d00fe70:	1000ffbe 	b	9d00fd6c <B999>
9d00fe74:	3c02ffc0 	lui	v0,0xffc0
9d00fe78:	00000000 	nop

Disassembly of section .text.__fmt_x:

9d00fe7c <__fmt_x>:
9d00fe7c:	8ca20004 	lw	v0,4(a1)
9d00fe80:	27bdffa8 	addiu	sp,sp,-88
9d00fe84:	afb60048 	sw	s6,72(sp)
9d00fe88:	afb3003c 	sw	s3,60(sp)
9d00fe8c:	afb20038 	sw	s2,56(sp)
9d00fe90:	afbf0054 	sw	ra,84(sp)
9d00fe94:	afbe0050 	sw	s8,80(sp)
9d00fe98:	afb7004c 	sw	s7,76(sp)
9d00fe9c:	afb50044 	sw	s5,68(sp)
9d00fea0:	afb40040 	sw	s4,64(sp)
9d00fea4:	afb10034 	sw	s1,52(sp)
9d00fea8:	afb00030 	sw	s0,48(sp)
9d00feac:	00809825 	move	s3,a0
9d00feb0:	00a09025 	move	s2,a1
9d00feb4:	00e04025 	move	t0,a3
9d00feb8:	0440004d 	bltz	v0,9d00fff0 <__fmt_x+0x174>
9d00febc:	8cb60000 	lw	s6,0(a1)
9d00fec0:	7c160844 	ins	s6,zero,0x1,0x1
9d00fec4:	8e470008 	lw	a3,8(s2)
9d00fec8:	32c90010 	andi	t1,s6,0x10
9d00fecc:	8cd40000 	lw	s4,0(a2)
9d00fed0:	8cd70004 	lw	s7,4(a2)
9d00fed4:	11200004 	beqz	t1,9d00fee8 <__fmt_x+0x6c>
9d00fed8:	00e08825 	move	s1,a3
9d00fedc:	02971825 	or	v1,s4,s7
9d00fee0:	54600001 	bnezl	v1,9d00fee8 <__fmt_x+0x6c>
9d00fee4:	24f1fffe 	addiu	s1,a3,-2
9d00fee8:	32ca0008 	andi	t2,s6,0x8
9d00feec:	55400001 	bnezl	t2,9d00fef4 <__fmt_x+0x78>
9d00fef0:	2631ffff 	addiu	s1,s1,-1
9d00fef4:	8e500010 	lw	s0,16(s2)
9d00fef8:	8e55000c 	lw	s5,12(s2)
9d00fefc:	251effbf 	addiu	s8,t0,-65
9d00ff00:	2610ffff 	addiu	s0,s0,-1
9d00ff04:	02b01821 	addu	v1,s5,s0
9d00ff08:	a0600000 	sb	zero,0(v1)
9d00ff0c:	00512823 	subu	a1,v0,s1
9d00ff10:	32cb0002 	andi	t3,s6,0x2
9d00ff14:	2fde001a 	sltiu	s8,s8,26
9d00ff18:	2a020002 	slti	v0,s0,2
9d00ff1c:	1440000a 	bnez	v0,9d00ff48 <__fmt_x+0xcc>
9d00ff20:	02971025 	or	v0,s4,s7
9d00ff24:	14400034 	bnez	v0,9d00fff8 <__fmt_x+0x17c>
9d00ff28:	3283000f 	andi	v1,s4,0xf
9d00ff2c:	00b11021 	addu	v0,a1,s1
9d00ff30:	1c400032 	bgtz	v0,9d00fffc <__fmt_x+0x180>
9d00ff34:	2864000a 	slti	a0,v1,10
9d00ff38:	1a200003 	blez	s1,9d00ff48 <__fmt_x+0xcc>
9d00ff3c:	00000000 	nop
9d00ff40:	1560002e 	bnez	t3,9d00fffc <__fmt_x+0x180>
9d00ff44:	00000000 	nop
9d00ff48:	1120000b 	beqz	t1,9d00ff78 <__fmt_x+0xfc>
9d00ff4c:	00000000 	nop
9d00ff50:	8cc20000 	lw	v0,0(a2)
9d00ff54:	8cc30004 	lw	v1,4(a2)
9d00ff58:	00431025 	or	v0,v0,v1
9d00ff5c:	10400006 	beqz	v0,9d00ff78 <__fmt_x+0xfc>
9d00ff60:	02b01021 	addu	v0,s5,s0
9d00ff64:	2610fffe 	addiu	s0,s0,-2
9d00ff68:	a048ffff 	sb	t0,-1(v0)
9d00ff6c:	24030030 	li	v1,48
9d00ff70:	02b01021 	addu	v0,s5,s0
9d00ff74:	a0430000 	sb	v1,0(v0)
9d00ff78:	11400004 	beqz	t2,9d00ff8c <__fmt_x+0x110>
9d00ff7c:	24030020 	li	v1,32
9d00ff80:	2610ffff 	addiu	s0,s0,-1
9d00ff84:	02b01021 	addu	v0,s5,s0
9d00ff88:	a0430000 	sb	v1,0(v0)
9d00ff8c:	8e460010 	lw	a2,16(s2)
9d00ff90:	afb60010 	sw	s6,16(sp)
9d00ff94:	02b02821 	addu	a1,s5,s0
9d00ff98:	24c6ffff 	addiu	a2,a2,-1
9d00ff9c:	00d03023 	subu	a2,a2,s0
9d00ffa0:	0f40484b 	jal	9d01212c <__pad>
9d00ffa4:	02602025 	move	a0,s3
9d00ffa8:	8e630004 	lw	v1,4(s3)
9d00ffac:	30630100 	andi	v1,v1,0x100
9d00ffb0:	10600004 	beqz	v1,9d00ffc4 <__fmt_x+0x148>
9d00ffb4:	8fbf0054 	lw	ra,84(sp)
9d00ffb8:	8e430004 	lw	v1,4(s2)
9d00ffbc:	0043202a 	slt	a0,v0,v1
9d00ffc0:	0064100b 	movn	v0,v1,a0
9d00ffc4:	8fbe0050 	lw	s8,80(sp)
9d00ffc8:	8fb7004c 	lw	s7,76(sp)
9d00ffcc:	8fb60048 	lw	s6,72(sp)
9d00ffd0:	8fb50044 	lw	s5,68(sp)
9d00ffd4:	8fb40040 	lw	s4,64(sp)
9d00ffd8:	8fb3003c 	lw	s3,60(sp)
9d00ffdc:	8fb20038 	lw	s2,56(sp)
9d00ffe0:	8fb10034 	lw	s1,52(sp)
9d00ffe4:	8fb00030 	lw	s0,48(sp)
9d00ffe8:	03e00008 	jr	ra
9d00ffec:	27bd0058 	addiu	sp,sp,88
9d00fff0:	1000ffb4 	b	9d00fec4 <__fmt_x+0x48>
9d00fff4:	24020001 	li	v0,1
9d00fff8:	2864000a 	slti	a0,v1,10
9d00fffc:	10800002 	beqz	a0,9d010008 <__fmt_x+0x18c>
9d010000:	24620057 	addiu	v0,v1,87
9d010004:	24620030 	addiu	v0,v1,48
9d010008:	13c00015 	beqz	s8,9d010060 <__fmt_x+0x1e4>
9d01000c:	34430020 	ori	v1,v0,0x20
9d010010:	2463ff9f 	addiu	v1,v1,-97
9d010014:	2c63001a 	sltiu	v1,v1,26
9d010018:	50600012 	beqzl	v1,9d010064 <__fmt_x+0x1e8>
9d01001c:	2610ffff 	addiu	s0,s0,-1
9d010020:	00402025 	move	a0,v0
9d010024:	afab0028 	sw	t3,40(sp)
9d010028:	afa50024 	sw	a1,36(sp)
9d01002c:	afa80064 	sw	t0,100(sp)
9d010030:	afa60060 	sw	a2,96(sp)
9d010034:	afa70020 	sw	a3,32(sp)
9d010038:	afaa001c 	sw	t2,28(sp)
9d01003c:	0f40539d 	jal	9d014e74 <toupper>
9d010040:	afa90018 	sw	t1,24(sp)
9d010044:	8fab0028 	lw	t3,40(sp)
9d010048:	8fa50024 	lw	a1,36(sp)
9d01004c:	8fa80064 	lw	t0,100(sp)
9d010050:	8fa60060 	lw	a2,96(sp)
9d010054:	8fa70020 	lw	a3,32(sp)
9d010058:	8faa001c 	lw	t2,28(sp)
9d01005c:	8fa90018 	lw	t1,24(sp)
9d010060:	2610ffff 	addiu	s0,s0,-1
9d010064:	02b01821 	addu	v1,s5,s0
9d010068:	a0620000 	sb	v0,0(v1)
9d01006c:	0014a102 	srl	s4,s4,0x4
9d010070:	00171700 	sll	v0,s7,0x1c
9d010074:	2631ffff 	addiu	s1,s1,-1
9d010078:	0054a025 	or	s4,v0,s4
9d01007c:	1000ffa6 	b	9d00ff18 <__fmt_x+0x9c>
9d010080:	0017b902 	srl	s7,s7,0x4

Disassembly of section .text.__scan_x:

9d010084 <__scan_x>:
9d010084:	27bdffc0 	addiu	sp,sp,-64
9d010088:	afb30024 	sw	s3,36(sp)
9d01008c:	8cd30008 	lw	s3,8(a2)
9d010090:	afb60030 	sw	s6,48(sp)
9d010094:	afb5002c 	sw	s5,44(sp)
9d010098:	afb20020 	sw	s2,32(sp)
9d01009c:	afb1001c 	sw	s1,28(sp)
9d0100a0:	afbf003c 	sw	ra,60(sp)
9d0100a4:	afbe0038 	sw	s8,56(sp)
9d0100a8:	afb70034 	sw	s7,52(sp)
9d0100ac:	afb40028 	sw	s4,40(sp)
9d0100b0:	afb00018 	sw	s0,24(sp)
9d0100b4:	0080b025 	move	s6,a0
9d0100b8:	afa50044 	sw	a1,68(sp)
9d0100bc:	00e09025 	move	s2,a3
9d0100c0:	8cd50010 	lw	s5,16(a2)
9d0100c4:	0f404ad2 	jal	9d012b48 <__skipws>
9d0100c8:	8cd1000c 	lw	s1,12(a2)
9d0100cc:	52600001 	beqzl	s3,9d0100d4 <__scan_x+0x50>
9d0100d0:	26b3ffff 	addiu	s3,s5,-1
9d0100d4:	8e440000 	lw	a0,0(s2)
9d0100d8:	00008025 	move	s0,zero
9d0100dc:	26b5ffff 	addiu	s5,s5,-1
9d0100e0:	00822021 	addu	a0,a0,v0
9d0100e4:	ae440000 	sw	a0,0(s2)
9d0100e8:	24170078 	li	s7,120
9d0100ec:	241e0030 	li	s8,48
9d0100f0:	0213102a 	slt	v0,s0,s3
9d0100f4:	1040002f 	beqz	v0,9d0101b4 <__scan_x+0x130>
9d0100f8:	0215102a 	slt	v0,s0,s5
9d0100fc:	5040002e 	beqzl	v0,9d0101b8 <__scan_x+0x134>
9d010100:	02308021 	addu	s0,s1,s0
9d010104:	8ec2003c 	lw	v0,60(s6)
9d010108:	8ec4004c 	lw	a0,76(s6)
9d01010c:	0044202b 	sltu	a0,v0,a0
9d010110:	10800038 	beqz	a0,9d0101f4 <__scan_x+0x170>
9d010114:	24440001 	addiu	a0,v0,1
9d010118:	aec4003c 	sw	a0,60(s6)
9d01011c:	90540000 	lbu	s4,0(v0)
9d010120:	0f405343 	jal	9d014d0c <isxdigit>
9d010124:	02802025 	move	a0,s4
9d010128:	1440004b 	bnez	v0,9d010258 <__scan_x+0x1d4>
9d01012c:	24020001 	li	v0,1
9d010130:	5602001b 	bnel	s0,v0,9d0101a0 <__scan_x+0x11c>
9d010134:	8ec2004c 	lw	v0,76(s6)
9d010138:	0f40538f 	jal	9d014e3c <tolower>
9d01013c:	02802025 	move	a0,s4
9d010140:	54570017 	bnel	v0,s7,9d0101a0 <__scan_x+0x11c>
9d010144:	8ec2004c 	lw	v0,76(s6)
9d010148:	82220000 	lb	v0,0(s1)
9d01014c:	545e0014 	bnel	v0,s8,9d0101a0 <__scan_x+0x11c>
9d010150:	8ec2004c 	lw	v0,76(s6)
9d010154:	8ec2003c 	lw	v0,60(s6)
9d010158:	8ec4004c 	lw	a0,76(s6)
9d01015c:	0044202b 	sltu	a0,v0,a0
9d010160:	10800039 	beqz	a0,9d010248 <__scan_x+0x1c4>
9d010164:	00000000 	nop
9d010168:	24440001 	addiu	a0,v0,1
9d01016c:	aec4003c 	sw	a0,60(s6)
9d010170:	90420000 	lbu	v0,0(v0)
9d010174:	8ec4004c 	lw	a0,76(s6)
9d010178:	10800004 	beqz	a0,9d01018c <__scan_x+0x108>
9d01017c:	00000000 	nop
9d010180:	8ec6003c 	lw	a2,60(s6)
9d010184:	24c6ffff 	addiu	a2,a2,-1
9d010188:	aec6003c 	sw	a2,60(s6)
9d01018c:	0f405343 	jal	9d014d0c <isxdigit>
9d010190:	00402025 	move	a0,v0
9d010194:	14400031 	bnez	v0,9d01025c <__scan_x+0x1d8>
9d010198:	02301021 	addu	v0,s1,s0
9d01019c:	8ec2004c 	lw	v0,76(s6)
9d0101a0:	50400005 	beqzl	v0,9d0101b8 <__scan_x+0x134>
9d0101a4:	02308021 	addu	s0,s1,s0
9d0101a8:	8ec2003c 	lw	v0,60(s6)
9d0101ac:	2442ffff 	addiu	v0,v0,-1
9d0101b0:	aec2003c 	sw	v0,60(s6)
9d0101b4:	02308021 	addu	s0,s1,s0
9d0101b8:	02202025 	move	a0,s1
9d0101bc:	27a50010 	addiu	a1,sp,16
9d0101c0:	a2000000 	sb	zero,0(s0)
9d0101c4:	0f405285 	jal	9d014a14 <strtoull>
9d0101c8:	24060010 	li	a2,16
9d0101cc:	8fa40044 	lw	a0,68(sp)
9d0101d0:	8fa50010 	lw	a1,16(sp)
9d0101d4:	ac820000 	sw	v0,0(a0)
9d0101d8:	00b18826 	xor	s1,a1,s1
9d0101dc:	2402fffe 	li	v0,-2
9d0101e0:	24050001 	li	a1,1
9d0101e4:	0051280a 	movz	a1,v0,s1
9d0101e8:	ac830004 	sw	v1,4(a0)
9d0101ec:	10000009 	b	9d010214 <__scan_x+0x190>
9d0101f0:	00a0a025 	move	s4,a1
9d0101f4:	0f404aa5 	jal	9d012a94 <__shgetc>
9d0101f8:	02c02025 	move	a0,s6
9d0101fc:	0040a025 	move	s4,v0
9d010200:	2402ffff 	li	v0,-1
9d010204:	1682ffc6 	bne	s4,v0,9d010120 <__scan_x+0x9c>
9d010208:	00000000 	nop
9d01020c:	1600ffea 	bnez	s0,9d0101b8 <__scan_x+0x134>
9d010210:	02308021 	addu	s0,s1,s0
9d010214:	8fbf003c 	lw	ra,60(sp)
9d010218:	02801025 	move	v0,s4
9d01021c:	8fbe0038 	lw	s8,56(sp)
9d010220:	8fb70034 	lw	s7,52(sp)
9d010224:	8fb60030 	lw	s6,48(sp)
9d010228:	8fb5002c 	lw	s5,44(sp)
9d01022c:	8fb40028 	lw	s4,40(sp)
9d010230:	8fb30024 	lw	s3,36(sp)
9d010234:	8fb20020 	lw	s2,32(sp)
9d010238:	8fb1001c 	lw	s1,28(sp)
9d01023c:	8fb00018 	lw	s0,24(sp)
9d010240:	03e00008 	jr	ra
9d010244:	27bd0040 	addiu	sp,sp,64
9d010248:	0f404aa5 	jal	9d012a94 <__shgetc>
9d01024c:	02c02025 	move	a0,s6
9d010250:	1000ffc9 	b	9d010178 <__scan_x+0xf4>
9d010254:	8ec4004c 	lw	a0,76(s6)
9d010258:	02301021 	addu	v0,s1,s0
9d01025c:	a0540000 	sb	s4,0(v0)
9d010260:	8e420000 	lw	v0,0(s2)
9d010264:	26100001 	addiu	s0,s0,1
9d010268:	24420001 	addiu	v0,v0,1
9d01026c:	1000ffa0 	b	9d0100f0 <__scan_x+0x6c>
9d010270:	ae420000 	sw	v0,0(s2)

Disassembly of section .text:

9d010274 <NU32DIP_Startup>:
#include "nu32dip.h"

void NU32DIP_Startup() {
9d010274:	27bdfff8 	addiu	sp,sp,-8
9d010278:	afbf0004 	sw	ra,4(sp)
    __builtin_disable_interrupts(); // disable interrupts while initializing things
9d01027c:	41626000 	di	v0
9d010280:	000000c0 	ehb

    // set the CP0 CONFIG register to indicate that kseg0 is cacheable (0x3)
    __builtin_mtc0(_CP0_CONFIG, _CP0_CONFIG_SELECT, 0xa4210583);
9d010284:	3c02a421 	lui	v0,0xa421
9d010288:	24420583 	addiu	v0,v0,1411
9d01028c:	40828000 	mtc0	v0,c0_config
9d010290:	000000c0 	ehb

    // 0 data RAM access wait states
    BMXCONbits.BMXWSDRM = 0x0;
9d010294:	3c02bf88 	lui	v0,0xbf88
9d010298:	8c432000 	lw	v1,8192(v0)
9d01029c:	7c033184 	ins	v1,zero,0x6,0x1
9d0102a0:	ac432000 	sw	v1,8192(v0)

    // enable multi vector interrupts
    INTCONbits.MVEC = 0x1;
9d0102a4:	3c02bf88 	lui	v0,0xbf88
9d0102a8:	8c441000 	lw	a0,4096(v0)
9d0102ac:	24030001 	li	v1,1
9d0102b0:	7c646304 	ins	a0,v1,0xc,0x1
9d0102b4:	ac441000 	sw	a0,4096(v0)

    // disable JTAG to get pins back
    DDPCONbits.JTAGEN = 0;
9d0102b8:	3c02bf81 	lui	v0,0xbf81
9d0102bc:	9444f200 	lhu	a0,-3584(v0)
9d0102c0:	7c0418c4 	ins	a0,zero,0x3,0x1
9d0102c4:	a444f200 	sh	a0,-3584(v0)

    // do your TRIS and LAT commands here
    TRISBCLR = 0b110000; // B4 and B5 LEDs
9d0102c8:	3c02bf88 	lui	v0,0xbf88
9d0102cc:	24040030 	li	a0,48
9d0102d0:	ac446114 	sw	a0,24852(v0)
    TRISASET = 0b010000; // A4 user button
9d0102d4:	3c02bf88 	lui	v0,0xbf88
9d0102d8:	24040010 	li	a0,16
9d0102dc:	ac446018 	sw	a0,24600(v0)
    //NU32_LED1 = 1; // LED1 is off
    NU32DIP_YELLOW = 1;
9d0102e0:	3c02bf88 	lui	v0,0xbf88
9d0102e4:	94446130 	lhu	a0,24880(v0)
9d0102e8:	7c642944 	ins	a0,v1,0x5,0x1
9d0102ec:	a4446130 	sh	a0,24880(v0)
    //NU32_LED2 = 0; // LED2 is on
    NU32DIP_GREEN = 0;
9d0102f0:	94446130 	lhu	a0,24880(v0)
9d0102f4:	7c042104 	ins	a0,zero,0x4,0x1
9d0102f8:	a4446130 	sh	a0,24880(v0)

    //UART1 pins
    U1RXRbits.U1RXR = 0b0000; // Set A2 to U1RX
9d0102fc:	3c02bf81 	lui	v0,0xbf81
9d010300:	9044fa50 	lbu	a0,-1456(v0)
9d010304:	7c041804 	ins	a0,zero,0x0,0x4
9d010308:	a044fa50 	sb	a0,-1456(v0)
    RPB3Rbits.RPB3R = 0b0001; // Set B3 to U1TX
9d01030c:	3c02bf81 	lui	v0,0xbf81
9d010310:	9044fb38 	lbu	a0,-1224(v0)
9d010314:	7c641804 	ins	a0,v1,0x0,0x4
9d010318:	a044fb38 	sb	a0,-1224(v0)

    // turn on UART1 without an interrupt
    U1MODEbits.BRGH = 0; // set baud to NU32_DESIRED_BAUD
9d01031c:	3c02bf80 	lui	v0,0xbf80
9d010320:	94446000 	lhu	a0,24576(v0)
9d010324:	7c0418c4 	ins	a0,zero,0x3,0x1
9d010328:	a4446000 	sh	a0,24576(v0)
    U1BRG = ((NU32DIP_SYS_FREQ / NU32DIP_DESIRED_BAUD) / 16) - 1;
9d01032c:	3c04bf80 	lui	a0,0xbf80
9d010330:	2405000c 	li	a1,12
9d010334:	ac856040 	sw	a1,24640(a0)

    // 8 bit, no parity bit, and 1 stop bit (8N1 setup)
    U1MODEbits.PDSEL = 0;
9d010338:	94446000 	lhu	a0,24576(v0)
9d01033c:	7c041044 	ins	a0,zero,0x1,0x2
9d010340:	a4446000 	sh	a0,24576(v0)
    U1MODEbits.STSEL = 0;
9d010344:	94446000 	lhu	a0,24576(v0)
9d010348:	7c040004 	ins	a0,zero,0x0,0x1
9d01034c:	a4446000 	sh	a0,24576(v0)

    // configure TX & RX pins as output & input pins
    U1STAbits.UTXEN = 1;
9d010350:	3c04bf80 	lui	a0,0xbf80
9d010354:	8c856010 	lw	a1,24592(a0)
9d010358:	7c655284 	ins	a1,v1,0xa,0x1
9d01035c:	ac856010 	sw	a1,24592(a0)
    U1STAbits.URXEN = 1;
9d010360:	8c856010 	lw	a1,24592(a0)
9d010364:	7c656304 	ins	a1,v1,0xc,0x1
9d010368:	ac856010 	sw	a1,24592(a0)
    // configure without hardware flow control
    U1MODEbits.UEN = 0;
9d01036c:	94446000 	lhu	a0,24576(v0)
9d010370:	7c044a04 	ins	a0,zero,0x8,0x2
9d010374:	a4446000 	sh	a0,24576(v0)

    // enable the uart
    U1MODEbits.ON = 1;
9d010378:	94446000 	lhu	a0,24576(v0)
9d01037c:	7c647bc4 	ins	a0,v1,0xf,0x1
9d010380:	a4446000 	sh	a0,24576(v0)

    __builtin_enable_interrupts();
9d010384:	41626020 	ei	v0
}
9d010388:	8fbf0004 	lw	ra,4(sp)
9d01038c:	03e00008 	jr	ra
9d010390:	27bd0008 	addiu	sp,sp,8

9d010394 <NU32DIP_ReadUART1>:
// block other functions until you get a '\r' or '\n'
// send the pointer to your char array and the number of elements in the array

void NU32DIP_ReadUART1(char * message, int maxLength) {
    char data = 0;
    int complete = 0, num_bytes = 0;
9d010394:	00001025 	move	v0,zero
    // loop until you get a '\r' or '\n'
    while (!complete) {
        if (U1STAbits.URXDA) { // if data is available
9d010398:	3c0abf80 	lui	t2,0xbf80
            data = U1RXREG; // read the data
9d01039c:	3c09bf80 	lui	t1,0xbf80
            if ((data == '\n') || (data == '\r')) {
9d0103a0:	2408000a 	li	t0,10
9d0103a4:	2407000d 	li	a3,13
        if (U1STAbits.URXDA) { // if data is available
9d0103a8:	8d436010 	lw	v1,24592(t2)
9d0103ac:	30630001 	andi	v1,v1,0x1
9d0103b0:	1060fffd 	beqz	v1,9d0103a8 <NU32DIP_ReadUART1+0x14>
9d0103b4:	00000000 	nop
            data = U1RXREG; // read the data
9d0103b8:	8d236030 	lw	v1,24624(t1)
9d0103bc:	7c031c20 	seb	v1,v1
            if ((data == '\n') || (data == '\r')) {
9d0103c0:	5068000b 	beql	v1,t0,9d0103f0 <NU32DIP_ReadUART1+0x5c>
9d0103c4:	00822021 	addu	a0,a0,v0
9d0103c8:	10670008 	beq	v1,a3,9d0103ec <NU32DIP_ReadUART1+0x58>
9d0103cc:	24460001 	addiu	a2,v0,1
                complete = 1;
            } else {
                message[num_bytes] = data;
                ++num_bytes;
                // roll over if the array is too small
                if (num_bytes >= maxLength) {
9d0103d0:	00c5302a 	slt	a2,a2,a1
                    num_bytes = 0;
9d0103d4:	244b0001 	addiu	t3,v0,1
                message[num_bytes] = data;
9d0103d8:	00821021 	addu	v0,a0,v0
9d0103dc:	a0430000 	sb	v1,0(v0)
9d0103e0:	01601025 	move	v0,t3
9d0103e4:	1000fff0 	b	9d0103a8 <NU32DIP_ReadUART1+0x14>
9d0103e8:	0006100a 	movz	v0,zero,a2
                }
            }
        }
    }
    // end the string
    message[num_bytes] = '\0';
9d0103ec:	00822021 	addu	a0,a0,v0
}
9d0103f0:	03e00008 	jr	ra
9d0103f4:	a0800000 	sb	zero,0(a0)

9d0103f8 <NU32DIP_WriteUART1>:

// Write a character array using UART1

void NU32DIP_WriteUART1(const char * string) {
    while (*string != '\0') {
9d0103f8:	80820000 	lb	v0,0(a0)
9d0103fc:	1040000b 	beqz	v0,9d01042c <NU32DIP_WriteUART1+0x34>
9d010400:	3c06bf80 	lui	a2,0xbf80
        while (U1STAbits.UTXBF) {
            ; // wait until tx buffer isn't full
        }
        U1TXREG = *string;
9d010404:	3c05bf80 	lui	a1,0xbf80
        while (U1STAbits.UTXBF) {
9d010408:	8cc36010 	lw	v1,24592(a2)
9d01040c:	7c630240 	ext	v1,v1,0x9,0x1
9d010410:	1460fffd 	bnez	v1,9d010408 <NU32DIP_WriteUART1+0x10>
9d010414:	00000000 	nop
        U1TXREG = *string;
9d010418:	aca26020 	sw	v0,24608(a1)
        ++string;
9d01041c:	24840001 	addiu	a0,a0,1
    while (*string != '\0') {
9d010420:	80820000 	lb	v0,0(a0)
9d010424:	1440fff8 	bnez	v0,9d010408 <NU32DIP_WriteUART1+0x10>
9d010428:	00000000 	nop
    }
}
9d01042c:	03e00008 	jr	ra
9d010430:	00000000 	nop

Disassembly of section .text.fp32mul:

9d010434 <__mulsf3>:
9d010434:	00043dc2 30e700ff 00054dc2 312900ff     .=.....0.M....)1
9d010444:	3c0a8000 00043200 00ca3025 00054200     ...<.2..%0...B..
9d010454:	010a4025 00856026 014c5024 24ecffff     %@..&`..$PL....$
9d010464:	2d8100fe 10200021 00000000              ...-!. .....

9d010470 <Clab1>:
9d010470:	252cffff 	addiu	t4,t1,-1
9d010474:	2d8100fe 	sltiu	at,t4,254
9d010478:	10200036 	beqz	at,9d010554 <CspecB>
9d01047c:	00000000 	nop

9d010480 <Clab2>:
9d010480:	00c80019 	multu	a2,t0
9d010484:	00005812 	mflo	t3
9d010488:	11600002 	beqz	t3,9d010494 <i17>
9d01048c:	00003010 	mfhi	a2
9d010490:	34c60001 	ori	a2,a2,0x1

9d010494 <i17>:
9d010494:	04c00003 	bltz	a2,9d0104a4 <i18>
9d010498:	00000000 	nop
9d01049c:	00063040 	sll	a2,a2,0x1
9d0104a0:	24e7ffff 	addiu	a3,a3,-1

9d0104a4 <i18>:
9d0104a4:	252cff82 	addiu	t4,t1,-126
9d0104a8:	00ec3821 	addu	a3,a3,t4
9d0104ac:	24ecffff 	addiu	t4,a3,-1
9d0104b0:	2d8100fe 	sltiu	at,t4,254
9d0104b4:	1020003a 	beqz	at,9d0105a0 <Coveund>
9d0104b8:	00000000 	nop

9d0104bc <Clab8>:
9d0104bc:	24c60080 	addiu	a2,a2,128
9d0104c0:	2ccc0080 	sltiu	t4,a2,128
9d0104c4:	00ec3821 	addu	a3,a3,t4
9d0104c8:	00066202 	srl	t4,a2,0x8
9d0104cc:	318c0001 	andi	t4,t4,0x1
9d0104d0:	00cc3023 	subu	a2,a2,t4
9d0104d4:	00063040 	sll	a2,a2,0x1
9d0104d8:	00063242 	srl	a2,a2,0x9
9d0104dc:	000765c0 	sll	t4,a3,0x17
9d0104e0:	00cc3025 	or	a2,a2,t4
9d0104e4:	00ca1025 	or	v0,a2,t2

9d0104e8 <C999>:
9d0104e8:	03e00008 	jr	ra
9d0104ec:	00000000 	nop

9d0104f0 <CspecA>:
9d0104f0:	14e0000d 	bnez	a3,9d010528 <i19>
9d0104f4:	00000000 	nop
9d0104f8:	00c63021 	addu	a2,a2,a2
9d0104fc:	10c00005 	beqz	a2,9d010514 <i20>
9d010500:	00000000 	nop
9d010504:	70cb5820 	clz	t3,a2
9d010508:	00eb3823 	subu	a3,a3,t3
9d01050c:	1000ffd8 	b	9d010470 <Clab1>
9d010510:	01663004 	sllv	a2,a2,t3

9d010514 <i20>:
9d010514:	240100ff 	li	at,255
9d010518:	1121001f 	beq	t1,at,9d010598 <Cnan>
9d01051c:	00000000 	nop
9d010520:	10000015 	b	9d010578 <Czer>
9d010524:	00000000 	nop

9d010528 <i19>:
9d010528:	00c66021 	addu	t4,a2,a2
9d01052c:	1580001a 	bnez	t4,9d010598 <Cnan>
9d010530:	00000000 	nop
9d010534:	15200004 	bnez	t1,9d010548 <i21>
9d010538:	00000000 	nop
9d01053c:	01086021 	addu	t4,t0,t0
9d010540:	11800015 	beqz	t4,9d010598 <Cnan>
9d010544:	00000000 	nop

9d010548 <i21>:
9d010548:	240100ff 	li	at,255
9d01054c:	1521000f 	bne	t1,at,9d01058c <Cinf>
9d010550:	00000000 	nop

9d010554 <CspecB>:
9d010554:	1520000a 	bnez	t1,9d010580 <i22>
9d010558:	00000000 	nop
9d01055c:	01084021 	addu	t0,t0,t0
9d010560:	11000005 	beqz	t0,9d010578 <Czer>
9d010564:	00000000 	nop
9d010568:	710b5820 	clz	t3,t0
9d01056c:	012b4823 	subu	t1,t1,t3
9d010570:	1000ffc3 	b	9d010480 <Clab2>
9d010574:	01684004 	sllv	t0,t0,t3

9d010578 <Czer>:
9d010578:	1000ffdb 	b	9d0104e8 <C999>
9d01057c:	000a1025 	or	v0,zero,t2

9d010580 <i22>:
9d010580:	01086021 	addu	t4,t0,t0
9d010584:	15800004 	bnez	t4,9d010598 <Cnan>
9d010588:	00000000 	nop

9d01058c <Cinf>:
9d01058c:	3c017f80 	lui	at,0x7f80
9d010590:	1000ffd5 	b	9d0104e8 <C999>
9d010594:	01411025 	or	v0,t2,at

9d010598 <Cnan>:
9d010598:	1000ffd3 	b	9d0104e8 <C999>
9d01059c:	3c02ffc0 	lui	v0,0xffc0

9d0105a0 <Coveund>:
9d0105a0:	1ce0fffa 	bgtz	a3,9d01058c <Cinf>
9d0105a4:	00000000 	nop
9d0105a8:	240b0001 	li	t3,1
9d0105ac:	01675823 	subu	t3,t3,a3
9d0105b0:	2d610020 	sltiu	at,t3,32
9d0105b4:	1020fff0 	beqz	at,9d010578 <Czer>
9d0105b8:	00000000 	nop
9d0105bc:	240c0020 	li	t4,32
9d0105c0:	018b6023 	subu	t4,t4,t3
9d0105c4:	01863804 	sllv	a3,a2,t4
9d0105c8:	10e00002 	beqz	a3,9d0105d4 <i25>
9d0105cc:	01663006 	srlv	a2,a2,t3
9d0105d0:	34c60002 	ori	a2,a2,0x2

9d0105d4 <i25>:
9d0105d4:	24070000 	li	a3,0
9d0105d8:	24cc0080 	addiu	t4,a2,128
9d0105dc:	0581ffb7 	bgez	t4,9d0104bc <Clab8>
9d0105e0:	00000000 	nop
9d0105e4:	1000ffb5 	b	9d0104bc <Clab8>
9d0105e8:	24070001 	li	a3,1
9d0105ec:	00000000 	nop

Disassembly of section .text.free:

9d0105f0 <free>:
9d0105f0:	10800063 	beqz	a0,9d010780 <free+0x190>
9d0105f4:	00000000 	nop
9d0105f8:	8c82fffc 	lw	v0,-4(a0)
9d0105fc:	27bdffd0 	addiu	sp,sp,-48
9d010600:	afb2001c 	sw	s2,28(sp)
9d010604:	00409025 	move	s2,v0
9d010608:	afb00014 	sw	s0,20(sp)
9d01060c:	7c120004 	ins	s2,zero,0x0,0x1
9d010610:	2490fff8 	addiu	s0,a0,-8
9d010614:	afb10018 	sw	s1,24(sp)
9d010618:	02128821 	addu	s1,s0,s2
9d01061c:	8e230000 	lw	v1,0(s1)
9d010620:	afb40024 	sw	s4,36(sp)
9d010624:	afbf002c 	sw	ra,44(sp)
9d010628:	afb50028 	sw	s5,40(sp)
9d01062c:	afb30020 	sw	s3,32(sp)
9d010630:	10430003 	beq	v0,v1,9d010640 <free+0x50>
9d010634:	2414fffe 	li	s4,-2
9d010638:	a0000000 	sb	zero,0(zero)
9d01063c:	00000034 	teq	zero,zero
9d010640:	8e020000 	lw	v0,0(s0)
9d010644:	8e230004 	lw	v1,4(s1)
9d010648:	00431024 	and	v0,v0,v1
9d01064c:	30420001 	andi	v0,v0,0x1
9d010650:	1440000e 	bnez	v0,9d01068c <free+0x9c>
9d010654:	36420001 	ori	v0,s2,0x1
9d010658:	0f404ee0 	jal	9d013b80 <alloc_rev>
9d01065c:	02002025 	move	a0,s0
9d010660:	54400041 	bnezl	v0,9d010768 <free+0x178>
9d010664:	8e020000 	lw	v0,0(s0)
9d010668:	0f404f8a 	jal	9d013e28 <alloc_fwd>
9d01066c:	02202025 	move	a0,s1
9d010670:	5040fff4 	beqzl	v0,9d010644 <free+0x54>
9d010674:	8e020000 	lw	v0,0(s0)
9d010678:	8e220004 	lw	v0,4(s1)
9d01067c:	02821024 	and	v0,s4,v0
9d010680:	02429021 	addu	s2,s2,v0
9d010684:	1000ffee 	b	9d010640 <free+0x50>
9d010688:	02228821 	addu	s1,s1,v0
9d01068c:	ae020004 	sw	v0,4(s0)
9d010690:	02402025 	move	a0,s2
9d010694:	0f404ff4 	jal	9d013fd0 <bin_index>
9d010698:	ae220000 	sw	v0,0(s1)
9d01069c:	00402025 	move	a0,v0
9d0106a0:	0f405246 	jal	9d014918 <lock_bin>
9d0106a4:	00409825 	move	s3,v0
9d0106a8:	8e020000 	lw	v0,0(s0)
9d0106ac:	8e230004 	lw	v1,4(s1)
9d0106b0:	00431024 	and	v0,v0,v1
9d0106b4:	30420001 	andi	v0,v0,0x1
9d0106b8:	1040ffe7 	beqz	v0,9d010658 <free+0x68>
9d0106bc:	3c15a001 	lui	s5,0xa001
9d0106c0:	8ea4a098 	lw	a0,-24424(s5)
9d0106c4:	8ea5a09c 	lw	a1,-24420(s5)
9d0106c8:	02603025 	move	a2,s3
9d0106cc:	0f40521a 	jal	9d014868 <__lshrdi3>
9d0106d0:	26b4a098 	addiu	s4,s5,-24424
9d0106d4:	30420001 	andi	v0,v0,0x1
9d0106d8:	1440000e 	bnez	v0,9d010714 <free+0x124>
9d0106dc:	00002825 	move	a1,zero
9d0106e0:	02603025 	move	a2,s3
9d0106e4:	0f405229 	jal	9d0148a4 <__ashldi3>
9d0106e8:	24040001 	li	a0,1
9d0106ec:	10400004 	beqz	v0,9d010700 <free+0x110>
9d0106f0:	00602825 	move	a1,v1
9d0106f4:	8ea4a098 	lw	a0,-24424(s5)
9d0106f8:	00822025 	or	a0,a0,v0
9d0106fc:	aea4a098 	sw	a0,-24424(s5)
9d010700:	50a00005 	beqzl	a1,9d010718 <free+0x128>
9d010704:	26730001 	addiu	s3,s3,1
9d010708:	8e820004 	lw	v0,4(s4)
9d01070c:	00431025 	or	v0,v0,v1
9d010710:	ae820004 	sw	v0,4(s4)
9d010714:	26730001 	addiu	s3,s3,1
9d010718:	001398c0 	sll	s3,s3,0x3
9d01071c:	02939821 	addu	s3,s4,s3
9d010720:	2662fff8 	addiu	v0,s3,-8
9d010724:	ae120004 	sw	s2,4(s0)
9d010728:	ae320000 	sw	s2,0(s1)
9d01072c:	ae020008 	sw	v0,8(s0)
9d010730:	8e620004 	lw	v0,4(s3)
9d010734:	8fbf002c 	lw	ra,44(sp)
9d010738:	8fb50028 	lw	s5,40(sp)
9d01073c:	ae02000c 	sw	v0,12(s0)
9d010740:	ae700004 	sw	s0,4(s3)
9d010744:	8e02000c 	lw	v0,12(s0)
9d010748:	8fb40024 	lw	s4,36(sp)
9d01074c:	8fb30020 	lw	s3,32(sp)
9d010750:	ac500008 	sw	s0,8(v0)
9d010754:	8fb2001c 	lw	s2,28(sp)
9d010758:	8fb10018 	lw	s1,24(sp)
9d01075c:	8fb00014 	lw	s0,20(sp)
9d010760:	03e00008 	jr	ra
9d010764:	27bd0030 	addiu	sp,sp,48
9d010768:	02821024 	and	v0,s4,v0
9d01076c:	02028023 	subu	s0,s0,v0
9d010770:	8e020004 	lw	v0,4(s0)
9d010774:	02821024 	and	v0,s4,v0
9d010778:	1000ffbb 	b	9d010668 <free+0x78>
9d01077c:	02429021 	addu	s2,s2,v0
9d010780:	03e00008 	jr	ra
9d010784:	00000000 	nop

Disassembly of section .text.__pop_int:

9d010788 <__pop_int>:
9d010788:	24020088 	li	v0,136
9d01078c:	10a2003f 	beq	a1,v0,9d01088c <__pop_int+0x104>
9d010790:	28a20089 	slti	v0,a1,137
9d010794:	1040001a 	beqz	v0,9d010800 <__pop_int+0x78>
9d010798:	24020081 	li	v0,129
9d01079c:	10a20054 	beq	a1,v0,9d0108f0 <__pop_int+0x168>
9d0107a0:	28a20082 	slti	v0,a1,130
9d0107a4:	10400005 	beqz	v0,9d0107bc <__pop_int+0x34>
9d0107a8:	24020080 	li	v0,128
9d0107ac:	50a20051 	beql	a1,v0,9d0108f4 <__pop_int+0x16c>
9d0107b0:	8ce20000 	lw	v0,0(a3)
9d0107b4:	03e00008 	jr	ra
9d0107b8:	00001025 	move	v0,zero
9d0107bc:	24020082 	li	v0,130
9d0107c0:	50a2003b 	beql	a1,v0,9d0108b0 <__pop_int+0x128>
9d0107c4:	8ce20000 	lw	v0,0(a3)
9d0107c8:	24020084 	li	v0,132
9d0107cc:	14a2fff9 	bne	a1,v0,9d0107b4 <__pop_int+0x2c>
9d0107d0:	00000000 	nop
9d0107d4:	8ce20000 	lw	v0,0(a3)
9d0107d8:	24430004 	addiu	v1,v0,4
9d0107dc:	8c420000 	lw	v0,0(v0)
9d0107e0:	10c00027 	beqz	a2,9d010880 <__pop_int+0xf8>
9d0107e4:	ace30000 	sw	v1,0(a3)
9d0107e8:	7c021620 	seh	v0,v0
9d0107ec:	ac820000 	sw	v0,0(a0)
9d0107f0:	000217c3 	sra	v0,v0,0x1f
9d0107f4:	ac820004 	sw	v0,4(a0)
9d0107f8:	03e00008 	jr	ra
9d0107fc:	24020001 	li	v0,1
9d010800:	240200a0 	li	v0,160
9d010804:	50a20036 	beql	a1,v0,9d0108e0 <__pop_int+0x158>
9d010808:	8ce20000 	lw	v0,0(a3)
9d01080c:	28a200a1 	slti	v0,a1,161
9d010810:	10400010 	beqz	v0,9d010854 <__pop_int+0xcc>
9d010814:	24020090 	li	v0,144
9d010818:	14a2ffe6 	bne	a1,v0,9d0107b4 <__pop_int+0x2c>
9d01081c:	00000000 	nop
9d010820:	8ce20000 	lw	v0,0(a3)
9d010824:	24420007 	addiu	v0,v0,7
9d010828:	7c021004 	ins	v0,zero,0x0,0x3
9d01082c:	8c480000 	lw	t0,0(v0)
9d010830:	8c490004 	lw	t1,4(v0)
9d010834:	24420008 	addiu	v0,v0,8
9d010838:	ace20000 	sw	v0,0(a3)
9d01083c:	ac880000 	sw	t0,0(a0)
9d010840:	ac890004 	sw	t1,4(a0)
9d010844:	10c00001 	beqz	a2,9d01084c <__pop_int+0xc4>
9d010848:	24020001 	li	v0,1
9d01084c:	03e00008 	jr	ra
9d010850:	00000000 	nop
9d010854:	240200c0 	li	v0,192
9d010858:	50a20005 	beql	a1,v0,9d010870 <__pop_int+0xe8>
9d01085c:	8ce20000 	lw	v0,0(a3)
9d010860:	240200f0 	li	v0,240
9d010864:	14a2ffd3 	bne	a1,v0,9d0107b4 <__pop_int+0x2c>
9d010868:	00000000 	nop
9d01086c:	8ce20000 	lw	v0,0(a3)
9d010870:	24430004 	addiu	v1,v0,4
9d010874:	ace30000 	sw	v1,0(a3)
9d010878:	10000002 	b	9d010884 <__pop_int+0xfc>
9d01087c:	8c420000 	lw	v0,0(v0)
9d010880:	3042ffff 	andi	v0,v0,0xffff
9d010884:	10000020 	b	9d010908 <__pop_int+0x180>
9d010888:	ac820000 	sw	v0,0(a0)
9d01088c:	8ce20000 	lw	v0,0(a3)
9d010890:	24430004 	addiu	v1,v0,4
9d010894:	8c420000 	lw	v0,0(v0)
9d010898:	10c00003 	beqz	a2,9d0108a8 <__pop_int+0x120>
9d01089c:	ace30000 	sw	v1,0(a3)
9d0108a0:	1000ffd2 	b	9d0107ec <__pop_int+0x64>
9d0108a4:	7c021420 	seb	v0,v0
9d0108a8:	1000fff6 	b	9d010884 <__pop_int+0xfc>
9d0108ac:	304200ff 	andi	v0,v0,0xff
9d0108b0:	24420007 	addiu	v0,v0,7
9d0108b4:	7c021004 	ins	v0,zero,0x0,0x3
9d0108b8:	8c480000 	lw	t0,0(v0)
9d0108bc:	8c490004 	lw	t1,4(v0)
9d0108c0:	24420008 	addiu	v0,v0,8
9d0108c4:	ace20000 	sw	v0,0(a3)
9d0108c8:	ac880000 	sw	t0,0(a0)
9d0108cc:	ac890004 	sw	t1,4(a0)
9d0108d0:	10c0ffde 	beqz	a2,9d01084c <__pop_int+0xc4>
9d0108d4:	24020001 	li	v0,1
9d0108d8:	03e00008 	jr	ra
9d0108dc:	00000000 	nop
9d0108e0:	24430004 	addiu	v1,v0,4
9d0108e4:	ace30000 	sw	v1,0(a3)
9d0108e8:	1000ffc0 	b	9d0107ec <__pop_int+0x64>
9d0108ec:	8c420000 	lw	v0,0(v0)
9d0108f0:	8ce20000 	lw	v0,0(a3)
9d0108f4:	24430004 	addiu	v1,v0,4
9d0108f8:	ace30000 	sw	v1,0(a3)
9d0108fc:	8c420000 	lw	v0,0(v0)
9d010900:	14c0ffbb 	bnez	a2,9d0107f0 <__pop_int+0x68>
9d010904:	ac820000 	sw	v0,0(a0)
9d010908:	1000ffbb 	b	9d0107f8 <__pop_int+0x70>
9d01090c:	ac800004 	sw	zero,4(a0)

Disassembly of section .dinit:

9d010910 <.dinit>:
9d010910:	a000006c 	sb	zero,108(zero)
9d010914:	00009f60 	0x9f60
9d010918:	00000000 	nop
9d01091c:	a000000c 	sb	zero,12(zero)
9d010920:	00000028 	0x28
9d010924:	00000000 	nop
9d010928:	a0000000 	sb	zero,0(zero)
9d01092c:	00000008 	jr	zero
9d010930:	00000001 	movf	zero,zero,$fcc0
9d010934:	43480000 	c0	0x1480000
9d010938:	00000001 	movf	zero,zero,$fcc0
9d01093c:	a000a2a0 	sb	zero,-23904(zero)
9d010940:	00000064 	0x64
9d010944:	00000000 	nop
9d010948:	a0000034 	sb	zero,52(zero)
9d01094c:	00000004 	sllv	zero,zero,zero
9d010950:	00000000 	nop
9d010954:	a0000038 	sb	zero,56(zero)
9d010958:	00000024 	and	zero,zero,zero
9d01095c:	00000000 	nop
9d010960:	a0009fcc 	sb	zero,-24628(zero)
9d010964:	00000060 	0x60
9d010968:	00000001 	movf	zero,zero,$fcc0
9d01096c:	00000001 	movf	zero,zero,$fcc0
9d010970:	00000003 	sra	zero,zero,0x0
	...
9d010988:	9d012860 	0x9d012860
	...
9d010998:	9d014d70 	0x9d014d70
9d01099c:	9d0133a4 	0x9d0133a4
	...
9d0109cc:	a000a08c 	sb	zero,-24436(zero)
9d0109d0:	00000004 	sllv	zero,zero,zero
9d0109d4:	00000000 	nop
9d0109d8:	a000a02c 	sb	zero,-24532(zero)
9d0109dc:	00000060 	0x60
9d0109e0:	00000001 	movf	zero,zero,$fcc0
9d0109e4:	00000001 	movf	zero,zero,$fcc0
9d0109e8:	00000003 	sra	zero,zero,0x0
	...
9d010a00:	9d012860 	0x9d012860
	...
9d010a10:	9d014d70 	0x9d014d70
9d010a14:	9d0133a4 	0x9d0133a4
	...
9d010a44:	a000a090 	sb	zero,-24432(zero)
9d010a48:	00000210 	0x210
9d010a4c:	00000000 	nop
9d010a50:	a000a304 	sb	zero,-23804(zero)
9d010a54:	00000050 	0x50
9d010a58:	00000000 	nop
9d010a5c:	a000a354 	sb	zero,-23724(zero)
9d010a60:	00000024 	and	zero,zero,zero
9d010a64:	00000000 	nop
9d010a68:	a0000008 	sb	zero,8(zero)
9d010a6c:	00000004 	sllv	zero,zero,zero
9d010a70:	00000001 	movf	zero,zero,$fcc0
9d010a74:	00000002 	srl	zero,zero,0x0
9d010a78:	a000a378 	sb	zero,-23688(zero)
9d010a7c:	00000004 	sllv	zero,zero,zero
	...
9d010a88:	44444444 	0x44444444
9d010a8c:	44444444 	0x44444444

Disassembly of section .text:

9d010a90 <i2c_master_setup>:
// I2C Master utilities, 400 kHz, using polling rather than interrupts
// The functions must be callled in the correct order as per the I2C protocol
// Master will use I2C1 (SET PINS) SDA1 (D9) and SCL1 (D10)

void i2c_master_setup(void) {
  I2C1BRG = 53; //53 for 400kHz    // I2CBRG = [1/(2*Fsck) - PGD]*Pblck - 2 
9d010a90:	3c02bf80 	lui	v0,0xbf80
9d010a94:	24030035 	li	v1,53
9d010a98:	ac435040 	sw	v1,20544(v0)
                                    // Fsck is the SCL freq, PGD = 104 ns
  I2C1CONbits.ON = 1;               // turn on the I2C1 module
9d010a9c:	3c02bf80 	lui	v0,0xbf80
9d010aa0:	94435000 	lhu	v1,20480(v0)
9d010aa4:	24040001 	li	a0,1
9d010aa8:	7c837bc4 	ins	v1,a0,0xf,0x1
9d010aac:	a4435000 	sh	v1,20480(v0)
}
9d010ab0:	03e00008 	jr	ra
9d010ab4:	00000000 	nop

9d010ab8 <i2c_master_start>:

// Start a transmission on the I2C bus
void i2c_master_start(void) {
    I2C1CONbits.SEN = 1;            // send the start bit
9d010ab8:	3c02bf80 	lui	v0,0xbf80
9d010abc:	94435000 	lhu	v1,20480(v0)
9d010ac0:	24040001 	li	a0,1
9d010ac4:	7c830004 	ins	v1,a0,0x0,0x1
9d010ac8:	a4435000 	sh	v1,20480(v0)
    while(I2C1CONbits.SEN) { ; }    // wait for the start bit to be sent
9d010acc:	00401825 	move	v1,v0
9d010ad0:	8c625000 	lw	v0,20480(v1)
9d010ad4:	30420001 	andi	v0,v0,0x1
9d010ad8:	1440fffd 	bnez	v0,9d010ad0 <i2c_master_start+0x18>
9d010adc:	00000000 	nop
}
9d010ae0:	03e00008 	jr	ra
9d010ae4:	00000000 	nop

9d010ae8 <i2c_master_restart>:

void i2c_master_restart(void) {     
    I2C1CONbits.RSEN = 1;           // send a restart 
9d010ae8:	3c02bf80 	lui	v0,0xbf80
9d010aec:	94435000 	lhu	v1,20480(v0)
9d010af0:	24040001 	li	a0,1
9d010af4:	7c830844 	ins	v1,a0,0x1,0x1
9d010af8:	a4435000 	sh	v1,20480(v0)
    while(I2C1CONbits.RSEN) { ; }   // wait for the restart to clear
9d010afc:	00401825 	move	v1,v0
9d010b00:	8c625000 	lw	v0,20480(v1)
9d010b04:	7c420040 	ext	v0,v0,0x1,0x1
9d010b08:	1440fffd 	bnez	v0,9d010b00 <i2c_master_restart+0x18>
9d010b0c:	00000000 	nop
}
9d010b10:	03e00008 	jr	ra
9d010b14:	00000000 	nop

9d010b18 <i2c_master_send>:

void i2c_master_send(unsigned char byte) { // send a byte to slave
  I2C1TRN = byte;                   // if an address, bit 0 = 0 for write, 1 for read
9d010b18:	3c02bf80 	lui	v0,0xbf80
9d010b1c:	ac445050 	sw	a0,20560(v0)
  while(I2C1STATbits.TRSTAT) { ; }  // wait for the transmission to finish
9d010b20:	3c03bf80 	lui	v1,0xbf80
9d010b24:	8c625010 	lw	v0,20496(v1)
9d010b28:	7c420380 	ext	v0,v0,0xe,0x1
9d010b2c:	1440fffd 	bnez	v0,9d010b24 <i2c_master_send+0xc>
9d010b30:	3c02bf80 	lui	v0,0xbf80
  if(I2C1STATbits.ACKSTAT) {        // if this is high, slave has not acknowledged
9d010b34:	8c425010 	lw	v0,20496(v0)
9d010b38:	7c4203c0 	ext	v0,v0,0xf,0x1
9d010b3c:	10400008 	beqz	v0,9d010b60 <i2c_master_send+0x48>
9d010b40:	3c049d00 	lui	a0,0x9d00
void i2c_master_send(unsigned char byte) { // send a byte to slave
9d010b44:	27bdffe8 	addiu	sp,sp,-24
9d010b48:	afbf0014 	sw	ra,20(sp)
    NU32DIP_WriteUART1("I2C2 Master: failed to receive ACK\r\n");
9d010b4c:	0f4040fe 	jal	9d0103f8 <NU32DIP_WriteUART1>
9d010b50:	24847490 	addiu	a0,a0,29840
  }
}
9d010b54:	8fbf0014 	lw	ra,20(sp)
9d010b58:	03e00008 	jr	ra
9d010b5c:	27bd0018 	addiu	sp,sp,24
9d010b60:	03e00008 	jr	ra
9d010b64:	00000000 	nop

9d010b68 <i2c_master_recv>:

unsigned char i2c_master_recv(void) { // receive a byte from the slave
    I2C1CONbits.RCEN = 1;             // start receiving data
9d010b68:	3c02bf80 	lui	v0,0xbf80
9d010b6c:	94435000 	lhu	v1,20480(v0)
9d010b70:	24040001 	li	a0,1
9d010b74:	7c8318c4 	ins	v1,a0,0x3,0x1
9d010b78:	a4435000 	sh	v1,20480(v0)
    while(!I2C1STATbits.RBF) { ; }    // wait to receive the data
9d010b7c:	3c03bf80 	lui	v1,0xbf80
9d010b80:	8c625010 	lw	v0,20496(v1)
9d010b84:	7c420040 	ext	v0,v0,0x1,0x1
9d010b88:	1040fffd 	beqz	v0,9d010b80 <i2c_master_recv+0x18>
9d010b8c:	3c02bf80 	lui	v0,0xbf80
    return I2C1RCV;                   // read and return the data
9d010b90:	8c425060 	lw	v0,20576(v0)
}
9d010b94:	03e00008 	jr	ra
9d010b98:	304200ff 	andi	v0,v0,0xff

9d010b9c <i2c_master_ack>:

void i2c_master_ack(int val) {        // sends ACK = 0 (slave should send another byte)
                                      // or NACK = 1 (no more bytes requested from slave)
    I2C1CONbits.ACKDT = val;          // store ACK/NACK in ACKDT
9d010b9c:	3c02bf80 	lui	v0,0xbf80
9d010ba0:	94435000 	lhu	v1,20480(v0)
9d010ba4:	7c832944 	ins	v1,a0,0x5,0x1
9d010ba8:	a4435000 	sh	v1,20480(v0)
    I2C1CONbits.ACKEN = 1;            // send ACKDT
9d010bac:	94435000 	lhu	v1,20480(v0)
9d010bb0:	24040001 	li	a0,1
9d010bb4:	7c832104 	ins	v1,a0,0x4,0x1
9d010bb8:	a4435000 	sh	v1,20480(v0)
    while(I2C1CONbits.ACKEN) { ; }    // wait for ACK/NACK to be sent
9d010bbc:	00401825 	move	v1,v0
9d010bc0:	8c625000 	lw	v0,20480(v1)
9d010bc4:	7c420100 	ext	v0,v0,0x4,0x1
9d010bc8:	1440fffd 	bnez	v0,9d010bc0 <i2c_master_ack+0x24>
9d010bcc:	00000000 	nop
}
9d010bd0:	03e00008 	jr	ra
9d010bd4:	00000000 	nop

9d010bd8 <i2c_master_stop>:

void i2c_master_stop(void) {          // send a STOP:
  I2C1CONbits.PEN = 1;                // comm is complete and master relinquishes bus
9d010bd8:	3c02bf80 	lui	v0,0xbf80
9d010bdc:	94435000 	lhu	v1,20480(v0)
9d010be0:	24040001 	li	a0,1
9d010be4:	7c831084 	ins	v1,a0,0x2,0x1
9d010be8:	a4435000 	sh	v1,20480(v0)
  while(I2C1CONbits.PEN) { ; }        // wait for STOP to complete
9d010bec:	00401825 	move	v1,v0
9d010bf0:	8c625000 	lw	v0,20480(v1)
9d010bf4:	7c420080 	ext	v0,v0,0x2,0x1
9d010bf8:	1440fffd 	bnez	v0,9d010bf0 <i2c_master_stop+0x18>
9d010bfc:	00000000 	nop
}
9d010c00:	03e00008 	jr	ra
9d010c04:	00000000 	nop

Disassembly of section .text.__push_int:

9d010c08 <__push_int>:
9d010c08:	24020088 	li	v0,136
9d010c0c:	50a2003c 	beql	a1,v0,9d010d00 <__push_int+0xf8>
9d010c10:	8ce20000 	lw	v0,0(a3)
9d010c14:	28a20089 	slti	v0,a1,137
9d010c18:	10400019 	beqz	v0,9d010c80 <__push_int+0x78>
9d010c1c:	24020081 	li	v0,129
9d010c20:	50a20040 	beql	a1,v0,9d010d24 <__push_int+0x11c>
9d010c24:	8ce20000 	lw	v0,0(a3)
9d010c28:	28a20082 	slti	v0,a1,130
9d010c2c:	10400005 	beqz	v0,9d010c44 <__push_int+0x3c>
9d010c30:	24020080 	li	v0,128
9d010c34:	50a20048 	beql	a1,v0,9d010d58 <__push_int+0x150>
9d010c38:	8ce20000 	lw	v0,0(a3)
9d010c3c:	03e00008 	jr	ra
9d010c40:	00001025 	move	v0,zero
9d010c44:	24020082 	li	v0,130
9d010c48:	10a20015 	beq	a1,v0,9d010ca0 <__push_int+0x98>
9d010c4c:	24020084 	li	v0,132
9d010c50:	14a2fffa 	bne	a1,v0,9d010c3c <__push_int+0x34>
9d010c54:	00000000 	nop
9d010c58:	8ce20000 	lw	v0,0(a3)
9d010c5c:	8c830000 	lw	v1,0(a0)
9d010c60:	24440004 	addiu	a0,v0,4
9d010c64:	ace40000 	sw	a0,0(a3)
9d010c68:	8c420000 	lw	v0,0(v0)
9d010c6c:	a4430000 	sh	v1,0(v0)
9d010c70:	10c00001 	beqz	a2,9d010c78 <__push_int+0x70>
9d010c74:	24020001 	li	v0,1
9d010c78:	03e00008 	jr	ra
9d010c7c:	00000000 	nop
9d010c80:	240200a0 	li	v0,160
9d010c84:	50a20018 	beql	a1,v0,9d010ce8 <__push_int+0xe0>
9d010c88:	8ce20000 	lw	v0,0(a3)
9d010c8c:	28a200a1 	slti	v0,a1,161
9d010c90:	1040000e 	beqz	v0,9d010ccc <__push_int+0xc4>
9d010c94:	24020090 	li	v0,144
9d010c98:	14a2ffe8 	bne	a1,v0,9d010c3c <__push_int+0x34>
9d010c9c:	00000000 	nop
9d010ca0:	8ce20000 	lw	v0,0(a3)
9d010ca4:	10c00028 	beqz	a2,9d010d48 <__push_int+0x140>
9d010ca8:	24430004 	addiu	v1,v0,4
9d010cac:	ace30000 	sw	v1,0(a3)
9d010cb0:	8c850004 	lw	a1,4(a0)
9d010cb4:	8c840000 	lw	a0,0(a0)
9d010cb8:	8c420000 	lw	v0,0(v0)
9d010cbc:	ac440000 	sw	a0,0(v0)
9d010cc0:	ac450004 	sw	a1,4(v0)
9d010cc4:	03e00008 	jr	ra
9d010cc8:	24020001 	li	v0,1
9d010ccc:	240200c0 	li	v0,192
9d010cd0:	50a20005 	beql	a1,v0,9d010ce8 <__push_int+0xe0>
9d010cd4:	8ce20000 	lw	v0,0(a3)
9d010cd8:	240200f0 	li	v0,240
9d010cdc:	14a2ffd7 	bne	a1,v0,9d010c3c <__push_int+0x34>
9d010ce0:	00000000 	nop
9d010ce4:	8ce20000 	lw	v0,0(a3)
9d010ce8:	8c830000 	lw	v1,0(a0)
9d010cec:	24440004 	addiu	a0,v0,4
9d010cf0:	ace40000 	sw	a0,0(a3)
9d010cf4:	8c420000 	lw	v0,0(v0)
9d010cf8:	1000fff2 	b	9d010cc4 <__push_int+0xbc>
9d010cfc:	ac430000 	sw	v1,0(v0)
9d010d00:	8c830000 	lw	v1,0(a0)
9d010d04:	24440004 	addiu	a0,v0,4
9d010d08:	ace40000 	sw	a0,0(a3)
9d010d0c:	8c420000 	lw	v0,0(v0)
9d010d10:	a0430000 	sb	v1,0(v0)
9d010d14:	10c0ffd8 	beqz	a2,9d010c78 <__push_int+0x70>
9d010d18:	24020001 	li	v0,1
9d010d1c:	03e00008 	jr	ra
9d010d20:	00000000 	nop
9d010d24:	8c830000 	lw	v1,0(a0)
9d010d28:	24440004 	addiu	a0,v0,4
9d010d2c:	ace40000 	sw	a0,0(a3)
9d010d30:	8c420000 	lw	v0,0(v0)
9d010d34:	ac430000 	sw	v1,0(v0)
9d010d38:	10c0ffcf 	beqz	a2,9d010c78 <__push_int+0x70>
9d010d3c:	24020001 	li	v0,1
9d010d40:	03e00008 	jr	ra
9d010d44:	00000000 	nop
9d010d48:	8c850004 	lw	a1,4(a0)
9d010d4c:	8c840000 	lw	a0,0(a0)
9d010d50:	1000ffd9 	b	9d010cb8 <__push_int+0xb0>
9d010d54:	ace30000 	sw	v1,0(a3)
9d010d58:	8c830000 	lw	v1,0(a0)
9d010d5c:	24440004 	addiu	a0,v0,4
9d010d60:	ace40000 	sw	a0,0(a3)
9d010d64:	8c420000 	lw	v0,0(v0)
9d010d68:	ac430000 	sw	v1,0(v0)
9d010d6c:	24020001 	li	v0,1
9d010d70:	03e00008 	jr	ra
9d010d74:	00000000 	nop

Disassembly of section .text.libm:

9d010d78 <__mchp_ldexp>:
9d010d78:	00054840 00094d42 252cffff 2d8107fe     @H..BM....,%...-
9d010d88:	1020000f 00000000                       .. .....

9d010d90 <Clab1>:
9d010d90:	01264821 	addu	t1,t1,a2
9d010d94:	252cffff 	addiu	t4,t1,-1
9d010d98:	2d8107fe 	sltiu	at,t4,2046
9d010d9c:	10200021 	beqz	at,9d010e24 <Cspec2>
9d010da0:	00000000 	nop
9d010da4:	3c01800f 	lui	at,0x800f
9d010da8:	3421ffff 	ori	at,at,0xffff
9d010dac:	00a12824 	and	a1,a1,at
9d010db0:	00096500 	sll	t4,t1,0x14
9d010db4:	00ac2825 	or	a1,a1,t4

9d010db8 <Cret>:
9d010db8:	00041025 	or	v0,zero,a0
9d010dbc:	00051825 	or	v1,zero,a1

9d010dc0 <C999>:
9d010dc0:	03e00008 	jr	ra
9d010dc4:	00000000 	nop

9d010dc8 <Cspec>:
9d010dc8:	00056300 	sll	t4,a1,0xc
9d010dcc:	01846025 	or	t4,t4,a0
9d010dd0:	1180fff9 	beqz	t4,9d010db8 <Cret>
9d010dd4:	00000000 	nop
9d010dd8:	11200004 	beqz	t1,9d010dec <i9>
9d010ddc:	00000000 	nop
9d010de0:	3c05fff8 	lui	a1,0xfff8
9d010de4:	1000fff4 	b	9d010db8 <Cret>
9d010de8:	24040000 	li	a0,0

9d010dec <i9>:
9d010dec:	25290001 	addiu	t1,t1,1
9d010df0:	3c018000 	lui	at,0x8000
9d010df4:	00a15024 	and	t2,a1,at

9d010df8 <b10>:
9d010df8:	2529ffff 	addiu	t1,t1,-1
9d010dfc:	0080602a 	slt	t4,a0,zero
9d010e00:	00842021 	addu	a0,a0,a0
9d010e04:	00a52821 	addu	a1,a1,a1
9d010e08:	00ac2821 	addu	a1,a1,t4
9d010e0c:	3c010010 	lui	at,0x10
9d010e10:	00a1082b 	sltu	at,a1,at
9d010e14:	1420fff8 	bnez	at,9d010df8 <b10>
9d010e18:	00000000 	nop
9d010e1c:	1000ffdc 	b	9d010d90 <Clab1>
9d010e20:	00aa2825 	or	a1,a1,t2

9d010e24 <Cspec2>:
9d010e24:	000542c0 	sll	t0,a1,0xb
9d010e28:	00046542 	srl	t4,a0,0x15
9d010e2c:	010c4025 	or	t0,t0,t4
9d010e30:	00043ac0 	sll	a3,a0,0xb
9d010e34:	3c018000 	lui	at,0x8000
9d010e38:	01014025 	or	t0,t0,at
9d010e3c:	3c018000 	lui	at,0x8000
9d010e40:	19200005 	blez	t1,9d010e58 <i11>
9d010e44:	00a12824 	and	a1,a1,at
9d010e48:	3c017ff0 	lui	at,0x7ff0
9d010e4c:	00a12825 	or	a1,a1,at
9d010e50:	1000ffd9 	b	9d010db8 <Cret>
9d010e54:	24040000 	li	a0,0

9d010e58 <i11>:
9d010e58:	240a0001 	li	t2,1
9d010e5c:	01495023 	subu	t2,t2,t1

9d010e60 <L13>:
9d010e60:	2d410020 	sltiu	at,t2,32
9d010e64:	14200007 	bnez	at,9d010e84 <L14>
9d010e68:	00000000 	nop
9d010e6c:	214affe0 	addi	t2,t2,-32
9d010e70:	0007202b 	sltu	a0,zero,a3
9d010e74:	1008000d 	beq	zero,t0,9d010eac <L15>
9d010e78:	01043825 	or	a3,t0,a0
9d010e7c:	1000fff8 	b	9d010e60 <L13>
9d010e80:	34080000 	li	t0,0x0

9d010e84 <L14>:
9d010e84:	11400009 	beqz	t2,9d010eac <L15>
9d010e88:	00000000 	nop
9d010e8c:	000a5822 	neg	t3,t2
9d010e90:	01672004 	sllv	a0,a3,t3
9d010e94:	01685804 	sllv	t3,t0,t3
9d010e98:	01473806 	srlv	a3,a3,t2
9d010e9c:	01484006 	srlv	t0,t0,t2
9d010ea0:	10800002 	beqz	a0,9d010eac <L15>
9d010ea4:	01673825 	or	a3,t3,a3
9d010ea8:	34e70002 	ori	a3,a3,0x2

9d010eac <L15>:
9d010eac:	24e70400 	addiu	a3,a3,1024
9d010eb0:	2cec0400 	sltiu	t4,a3,1024
9d010eb4:	010c4021 	addu	t0,t0,t4
9d010eb8:	000762c2 	srl	t4,a3,0xb
9d010ebc:	318c0001 	andi	t4,t4,0x1
9d010ec0:	00ec3823 	subu	a3,a3,t4
9d010ec4:	000722c2 	srl	a0,a3,0xb
9d010ec8:	00086540 	sll	t4,t0,0x15
9d010ecc:	008c2025 	or	a0,a0,t4
9d010ed0:	00086040 	sll	t4,t0,0x1
9d010ed4:	000c6302 	srl	t4,t4,0xc
9d010ed8:	1000ffb7 	b	9d010db8 <Cret>
9d010edc:	00ac2825 	or	a1,a1,t4
9d010ee0:	00000000 	nop

Disassembly of section .text:

9d010ee4 <writeINA219>:
  float ma = value / 3.0;
  return ma;
}

// write 2 bytes
void writeINA219(unsigned char reg, unsigned short value){
9d010ee4:	27bdffe0 	addiu	sp,sp,-32
9d010ee8:	afbf001c 	sw	ra,28(sp)
9d010eec:	afb10018 	sw	s1,24(sp)
9d010ef0:	afb00014 	sw	s0,20(sp)
9d010ef4:	00808825 	move	s1,a0
  i2c_master_start();
9d010ef8:	0f4042ae 	jal	9d010ab8 <i2c_master_start>
9d010efc:	00a08025 	move	s0,a1
  i2c_master_send(INA219_ADDR<<1); // write to the INA219
9d010f00:	0f4042c6 	jal	9d010b18 <i2c_master_send>
9d010f04:	24040080 	li	a0,128
  i2c_master_send(reg); // the reg to write to
9d010f08:	0f4042c6 	jal	9d010b18 <i2c_master_send>
9d010f0c:	02202025 	move	a0,s1
  i2c_master_send(value>>8);
9d010f10:	0f4042c6 	jal	9d010b18 <i2c_master_send>
9d010f14:	00102202 	srl	a0,s0,0x8
  i2c_master_send(value&0xff);
9d010f18:	0f4042c6 	jal	9d010b18 <i2c_master_send>
9d010f1c:	320400ff 	andi	a0,s0,0xff
  i2c_master_stop();
9d010f20:	0f4042f6 	jal	9d010bd8 <i2c_master_stop>
9d010f24:	00000000 	nop
}
9d010f28:	8fbf001c 	lw	ra,28(sp)
9d010f2c:	8fb10018 	lw	s1,24(sp)
9d010f30:	8fb00014 	lw	s0,20(sp)
9d010f34:	03e00008 	jr	ra
9d010f38:	27bd0020 	addiu	sp,sp,32

9d010f3c <INA219_Startup>:
void INA219_Startup() {
9d010f3c:	27bdffe8 	addiu	sp,sp,-24
9d010f40:	afbf0014 	sw	ra,20(sp)
  __builtin_disable_interrupts();
9d010f44:	41626000 	di	v0
9d010f48:	000000c0 	ehb
  i2c_master_setup();
9d010f4c:	0f4042a4 	jal	9d010a90 <i2c_master_setup>
9d010f50:	00000000 	nop
  writeINA219(INA219_REG_CALIBRATION, ina219_calValue);
9d010f54:	24050400 	li	a1,1024
9d010f58:	0f4043b9 	jal	9d010ee4 <writeINA219>
9d010f5c:	24040005 	li	a0,5
  writeINA219(INA219_REG_CONFIG, ina219_config);
9d010f60:	2405308f 	li	a1,12431
9d010f64:	0f4043b9 	jal	9d010ee4 <writeINA219>
9d010f68:	00002025 	move	a0,zero
  __builtin_enable_interrupts();
9d010f6c:	41626020 	ei	v0
}
9d010f70:	8fbf0014 	lw	ra,20(sp)
9d010f74:	03e00008 	jr	ra
9d010f78:	27bd0018 	addiu	sp,sp,24

9d010f7c <readINA219>:

// read 2 bytes
signed short readINA219(unsigned char reg){
9d010f7c:	27bdffe0 	addiu	sp,sp,-32
9d010f80:	afbf001c 	sw	ra,28(sp)
9d010f84:	afb10018 	sw	s1,24(sp)
9d010f88:	afb00014 	sw	s0,20(sp)
  i2c_master_start();
9d010f8c:	0f4042ae 	jal	9d010ab8 <i2c_master_start>
9d010f90:	00808025 	move	s0,a0
  i2c_master_send(INA219_ADDR<<1); // write to the INA219
9d010f94:	0f4042c6 	jal	9d010b18 <i2c_master_send>
9d010f98:	24040080 	li	a0,128
  i2c_master_send(reg); // the reg to read from
9d010f9c:	0f4042c6 	jal	9d010b18 <i2c_master_send>
9d010fa0:	02002025 	move	a0,s0
  i2c_master_restart();
9d010fa4:	0f4042ba 	jal	9d010ae8 <i2c_master_restart>
9d010fa8:	00000000 	nop
  i2c_master_send((INA219_ADDR<<1)|0b1); // read from the INA219
9d010fac:	0f4042c6 	jal	9d010b18 <i2c_master_send>
9d010fb0:	24040081 	li	a0,129
  unsigned char r1 = i2c_master_recv();
9d010fb4:	0f4042da 	jal	9d010b68 <i2c_master_recv>
9d010fb8:	00000000 	nop
9d010fbc:	00408025 	move	s0,v0
  i2c_master_ack(0); // read again
9d010fc0:	0f4042e7 	jal	9d010b9c <i2c_master_ack>
9d010fc4:	00002025 	move	a0,zero
  unsigned char r2 = i2c_master_recv();
9d010fc8:	0f4042da 	jal	9d010b68 <i2c_master_recv>
9d010fcc:	00000000 	nop
9d010fd0:	00408825 	move	s1,v0
  i2c_master_ack(1); // no more reads
9d010fd4:	0f4042e7 	jal	9d010b9c <i2c_master_ack>
9d010fd8:	24040001 	li	a0,1
  i2c_master_stop();
9d010fdc:	0f4042f6 	jal	9d010bd8 <i2c_master_stop>
9d010fe0:	00000000 	nop

  signed short value = (r1<<8)|r2;
9d010fe4:	00101200 	sll	v0,s0,0x8
9d010fe8:	00511025 	or	v0,v0,s1
  return value;
}
9d010fec:	7c021620 	seh	v0,v0
9d010ff0:	8fbf001c 	lw	ra,28(sp)
9d010ff4:	8fb10018 	lw	s1,24(sp)
9d010ff8:	8fb00014 	lw	s0,20(sp)
9d010ffc:	03e00008 	jr	ra
9d011000:	27bd0020 	addiu	sp,sp,32

9d011004 <INA219_read_current>:
float INA219_read_current(){
9d011004:	27bdffe8 	addiu	sp,sp,-24
9d011008:	afbf0014 	sw	ra,20(sp)
  signed short value = readINA219(INA219_REG_CURRENT);
9d01100c:	0f4043df 	jal	9d010f7c <readINA219>
9d011010:	24040004 	li	a0,4
  float ma = value / 3.0;
9d011014:	0f404ec2 	jal	9d013b08 <__floatsidf>
9d011018:	00402025 	move	a0,v0
9d01101c:	3c049d00 	lui	a0,0x9d00
9d011020:	8c8674b8 	lw	a2,29880(a0)
9d011024:	8c8774bc 	lw	a3,29884(a0)
9d011028:	00402025 	move	a0,v0
9d01102c:	0f403136 	jal	9d00c4d8 <__divdf3>
9d011030:	00602825 	move	a1,v1
9d011034:	00402025 	move	a0,v0
9d011038:	0f40488b 	jal	9d01222c <__truncdfsf2>
9d01103c:	00602825 	move	a1,v1
}
9d011040:	8fbf0014 	lw	ra,20(sp)
9d011044:	03e00008 	jr	ra
9d011048:	27bd0018 	addiu	sp,sp,24

Disassembly of section .text.__scan_s:

9d01104c <__scan_s>:
9d01104c:	27bdffc8 	addiu	sp,sp,-56
9d011050:	afb50028 	sw	s5,40(sp)
9d011054:	afb30020 	sw	s3,32(sp)
9d011058:	afb2001c 	sw	s2,28(sp)
9d01105c:	afb10018 	sw	s1,24(sp)
9d011060:	afb00014 	sw	s0,20(sp)
9d011064:	afbf0034 	sw	ra,52(sp)
9d011068:	afb70030 	sw	s7,48(sp)
9d01106c:	afb6002c 	sw	s6,44(sp)
9d011070:	afb40024 	sw	s4,36(sp)
9d011074:	0080a825 	move	s5,a0
9d011078:	00a08025 	move	s0,a1
9d01107c:	00c09825 	move	s3,a2
9d011080:	00e09025 	move	s2,a3
9d011084:	10c00006 	beqz	a2,9d0110a0 <__scan_s+0x54>
9d011088:	8fb10048 	lw	s1,72(sp)
9d01108c:	0f404ad2 	jal	9d012b48 <__skipws>
9d011090:	00000000 	nop
9d011094:	8e430000 	lw	v1,0(s2)
9d011098:	00621021 	addu	v0,v1,v0
9d01109c:	ae420000 	sw	v0,0(s2)
9d0110a0:	8e140008 	lw	s4,8(s0)
9d0110a4:	2416ffff 	li	s6,-1
9d0110a8:	00008025 	move	s0,zero
9d0110ac:	24170020 	li	s7,32
9d0110b0:	12800003 	beqz	s4,9d0110c0 <__scan_s+0x74>
9d0110b4:	0214102a 	slt	v0,s0,s4
9d0110b8:	1040001f 	beqz	v0,9d011138 <__scan_s+0xec>
9d0110bc:	00000000 	nop
9d0110c0:	8ea2003c 	lw	v0,60(s5)
9d0110c4:	8ea3004c 	lw	v1,76(s5)
9d0110c8:	0043182b 	sltu	v1,v0,v1
9d0110cc:	10600014 	beqz	v1,9d011120 <__scan_s+0xd4>
9d0110d0:	24430001 	addiu	v1,v0,1
9d0110d4:	aea3003c 	sw	v1,60(s5)
9d0110d8:	90420000 	lbu	v0,0(v0)
9d0110dc:	12600024 	beqz	s3,9d011170 <__scan_s+0x124>
9d0110e0:	00000000 	nop
9d0110e4:	10570004 	beq	v0,s7,9d0110f8 <__scan_s+0xac>
9d0110e8:	2443fff7 	addiu	v1,v0,-9
9d0110ec:	2c630005 	sltiu	v1,v1,5
9d0110f0:	1060001f 	beqz	v1,9d011170 <__scan_s+0x124>
9d0110f4:	00000000 	nop
9d0110f8:	8ea2004c 	lw	v0,76(s5)
9d0110fc:	10400004 	beqz	v0,9d011110 <__scan_s+0xc4>
9d011100:	00000000 	nop
9d011104:	8ea2003c 	lw	v0,60(s5)
9d011108:	2442ffff 	addiu	v0,v0,-1
9d01110c:	aea2003c 	sw	v0,60(s5)
9d011110:	16200021 	bnez	s1,9d011198 <__scan_s+0x14c>
9d011114:	0010102b 	sltu	v0,zero,s0
9d011118:	1000000b 	b	9d011148 <__scan_s+0xfc>
9d01111c:	8fbf0034 	lw	ra,52(sp)
9d011120:	0f404aa5 	jal	9d012a94 <__shgetc>
9d011124:	02a02025 	move	a0,s5
9d011128:	1456ffec 	bne	v0,s6,9d0110dc <__scan_s+0x90>
9d01112c:	00000000 	nop
9d011130:	12000005 	beqz	s0,9d011148 <__scan_s+0xfc>
9d011134:	8fbf0034 	lw	ra,52(sp)
9d011138:	16200015 	bnez	s1,9d011190 <__scan_s+0x144>
9d01113c:	00000000 	nop
9d011140:	0010102b 	sltu	v0,zero,s0
9d011144:	8fbf0034 	lw	ra,52(sp)
9d011148:	8fb70030 	lw	s7,48(sp)
9d01114c:	8fb6002c 	lw	s6,44(sp)
9d011150:	8fb50028 	lw	s5,40(sp)
9d011154:	8fb40024 	lw	s4,36(sp)
9d011158:	8fb30020 	lw	s3,32(sp)
9d01115c:	8fb2001c 	lw	s2,28(sp)
9d011160:	8fb10018 	lw	s1,24(sp)
9d011164:	8fb00014 	lw	s0,20(sp)
9d011168:	03e00008 	jr	ra
9d01116c:	27bd0038 	addiu	sp,sp,56
9d011170:	12200002 	beqz	s1,9d01117c <__scan_s+0x130>
9d011174:	02301821 	addu	v1,s1,s0
9d011178:	a0620000 	sb	v0,0(v1)
9d01117c:	8e420000 	lw	v0,0(s2)
9d011180:	26100001 	addiu	s0,s0,1
9d011184:	24420001 	addiu	v0,v0,1
9d011188:	1000ffc9 	b	9d0110b0 <__scan_s+0x64>
9d01118c:	ae420000 	sw	v0,0(s2)
9d011190:	1260ffec 	beqz	s3,9d011144 <__scan_s+0xf8>
9d011194:	0010102b 	sltu	v0,zero,s0
9d011198:	02308821 	addu	s1,s1,s0
9d01119c:	1000ffe8 	b	9d011140 <__scan_s+0xf4>
9d0111a0:	a2200000 	sb	zero,0(s1)

Disassembly of section .text.__scan_o:

9d0111a4 <__scan_o>:
9d0111a4:	27bdffc0 	addiu	sp,sp,-64
9d0111a8:	afb60034 	sw	s6,52(sp)
9d0111ac:	8cd60008 	lw	s6,8(a2)
9d0111b0:	afb50030 	sw	s5,48(sp)
9d0111b4:	afb4002c 	sw	s4,44(sp)
9d0111b8:	afb30028 	sw	s3,40(sp)
9d0111bc:	afb20024 	sw	s2,36(sp)
9d0111c0:	afb10020 	sw	s1,32(sp)
9d0111c4:	afbf003c 	sw	ra,60(sp)
9d0111c8:	afb70038 	sw	s7,56(sp)
9d0111cc:	afb0001c 	sw	s0,28(sp)
9d0111d0:	00808825 	move	s1,a0
9d0111d4:	00a0a825 	move	s5,a1
9d0111d8:	00e0a025 	move	s4,a3
9d0111dc:	8cd30010 	lw	s3,16(a2)
9d0111e0:	0f404ad2 	jal	9d012b48 <__skipws>
9d0111e4:	8cd2000c 	lw	s2,12(a2)
9d0111e8:	52c00001 	beqzl	s6,9d0111f0 <__scan_o+0x4c>
9d0111ec:	2676ffff 	addiu	s6,s3,-1
9d0111f0:	8e830000 	lw	v1,0(s4)
9d0111f4:	00008025 	move	s0,zero
9d0111f8:	2673ffff 	addiu	s3,s3,-1
9d0111fc:	00621821 	addu	v1,v1,v0
9d011200:	ae830000 	sw	v1,0(s4)
9d011204:	2417ffff 	li	s7,-1
9d011208:	0216102a 	slt	v0,s0,s6
9d01120c:	1040001b 	beqz	v0,9d01127c <__scan_o+0xd8>
9d011210:	0213102a 	slt	v0,s0,s3
9d011214:	5040001a 	beqzl	v0,9d011280 <__scan_o+0xdc>
9d011218:	02508021 	addu	s0,s2,s0
9d01121c:	8e22003c 	lw	v0,60(s1)
9d011220:	8e23004c 	lw	v1,76(s1)
9d011224:	0043182b 	sltu	v1,v0,v1
9d011228:	1060000e 	beqz	v1,9d011264 <__scan_o+0xc0>
9d01122c:	24430001 	addiu	v1,v0,1
9d011230:	ae23003c 	sw	v1,60(s1)
9d011234:	90420000 	lbu	v0,0(v0)
9d011238:	2443ffd0 	addiu	v1,v0,-48
9d01123c:	2c630008 	sltiu	v1,v1,8
9d011240:	14600027 	bnez	v1,9d0112e0 <__scan_o+0x13c>
9d011244:	02501821 	addu	v1,s2,s0
9d011248:	8e22004c 	lw	v0,76(s1)
9d01124c:	5040000c 	beqzl	v0,9d011280 <__scan_o+0xdc>
9d011250:	02508021 	addu	s0,s2,s0
9d011254:	8e22003c 	lw	v0,60(s1)
9d011258:	2442ffff 	addiu	v0,v0,-1
9d01125c:	10000007 	b	9d01127c <__scan_o+0xd8>
9d011260:	ae22003c 	sw	v0,60(s1)
9d011264:	0f404aa5 	jal	9d012a94 <__shgetc>
9d011268:	02202025 	move	a0,s1
9d01126c:	1457fff3 	bne	v0,s7,9d01123c <__scan_o+0x98>
9d011270:	2443ffd0 	addiu	v1,v0,-48
9d011274:	12000010 	beqz	s0,9d0112b8 <__scan_o+0x114>
9d011278:	8fbf003c 	lw	ra,60(sp)
9d01127c:	02508021 	addu	s0,s2,s0
9d011280:	02402025 	move	a0,s2
9d011284:	a2000000 	sb	zero,0(s0)
9d011288:	24060008 	li	a2,8
9d01128c:	0f405285 	jal	9d014a14 <strtoull>
9d011290:	27a50010 	addiu	a1,sp,16
9d011294:	aea20000 	sw	v0,0(s5)
9d011298:	8fa20010 	lw	v0,16(sp)
9d01129c:	aea30004 	sw	v1,4(s5)
9d0112a0:	2404fffe 	li	a0,-2
9d0112a4:	00521026 	xor	v0,v0,s2
9d0112a8:	24030001 	li	v1,1
9d0112ac:	0082180a 	movz	v1,a0,v0
9d0112b0:	00601025 	move	v0,v1
9d0112b4:	8fbf003c 	lw	ra,60(sp)
9d0112b8:	8fb70038 	lw	s7,56(sp)
9d0112bc:	8fb60034 	lw	s6,52(sp)
9d0112c0:	8fb50030 	lw	s5,48(sp)
9d0112c4:	8fb4002c 	lw	s4,44(sp)
9d0112c8:	8fb30028 	lw	s3,40(sp)
9d0112cc:	8fb20024 	lw	s2,36(sp)
9d0112d0:	8fb10020 	lw	s1,32(sp)
9d0112d4:	8fb0001c 	lw	s0,28(sp)
9d0112d8:	03e00008 	jr	ra
9d0112dc:	27bd0040 	addiu	sp,sp,64
9d0112e0:	a0620000 	sb	v0,0(v1)
9d0112e4:	8e820000 	lw	v0,0(s4)
9d0112e8:	26100001 	addiu	s0,s0,1
9d0112ec:	24420001 	addiu	v0,v0,1
9d0112f0:	1000ffc5 	b	9d011208 <__scan_o+0x64>
9d0112f4:	ae820000 	sw	v0,0(s4)

Disassembly of section .text._sbrk_init:

9d0112f8 <_sbrk_init>:
9d0112f8:	27bdffd8 	addiu	sp,sp,-40
9d0112fc:	afb40020 	sw	s4,32(sp)
9d011300:	3c14a001 	lui	s4,0xa001
9d011304:	8e82a36c 	lw	v0,-23700(s4)
9d011308:	afbf0024 	sw	ra,36(sp)
9d01130c:	afb3001c 	sw	s3,28(sp)
9d011310:	afb20018 	sw	s2,24(sp)
9d011314:	afb10014 	sw	s1,20(sp)
9d011318:	1440003a 	bnez	v0,9d011404 <_sbrk_init+0x10c>
9d01131c:	afb00010 	sw	s0,16(sp)
9d011320:	3c12a001 	lui	s2,0xa001
9d011324:	8e51a374 	lw	s1,-23692(s2)
9d011328:	16200003 	bnez	s1,9d011338 <_sbrk_init+0x40>
9d01132c:	3c13a001 	lui	s3,0xa001
9d011330:	3c11a001 	lui	s1,0xa001
9d011334:	2631a380 	addiu	s1,s1,-23680
9d011338:	8e70a370 	lw	s0,-23696(s3)
9d01133c:	16000005 	bnez	s0,9d011354 <_sbrk_init+0x5c>
9d011340:	3c020000 	lui	v0,0x0
9d011344:	3c10a001 	lui	s0,0xa001
9d011348:	2610a380 	addiu	s0,s0,-23680
9d01134c:	24420000 	addiu	v0,v0,0
9d011350:	02028021 	addu	s0,s0,v0
9d011354:	00111f82 	srl	v1,s1,0x1e
9d011358:	24020002 	li	v0,2
9d01135c:	50620001 	beql	v1,v0,9d011364 <_sbrk_init+0x6c>
9d011360:	7e31e000 	ext	s1,s1,0x0,0x1d
9d011364:	00101f82 	srl	v1,s0,0x1e
9d011368:	24020002 	li	v0,2
9d01136c:	50620001 	beql	v1,v0,9d011374 <_sbrk_init+0x7c>
9d011370:	7e10e000 	ext	s0,s0,0x0,0x1d
9d011374:	0f4052f3 	jal	9d014bcc <_stub_sbd_memlayout>
9d011378:	00000000 	nop
9d01137c:	8c430000 	lw	v1,0(v0)
9d011380:	8c420004 	lw	v0,4(v0)
9d011384:	0223202b 	sltu	a0,s1,v1
9d011388:	14800004 	bnez	a0,9d01139c <_sbrk_init+0xa4>
9d01138c:	00621021 	addu	v0,v1,v0
9d011390:	0222202b 	sltu	a0,s1,v0
9d011394:	54800029 	bnezl	a0,9d01143c <_sbrk_init+0x144>
9d011398:	0211182b 	sltu	v1,s0,s1
9d01139c:	3c04a001 	lui	a0,0xa001
9d0113a0:	24849fcc 	addiu	a0,a0,-24628
9d0113a4:	7c84e000 	ext	a0,a0,0x0,0x1d
9d0113a8:	0064202b 	sltu	a0,v1,a0
9d0113ac:	14800015 	bnez	a0,9d011404 <_sbrk_init+0x10c>
9d0113b0:	0203202b 	sltu	a0,s0,v1
9d0113b4:	14800004 	bnez	a0,9d0113c8 <_sbrk_init+0xd0>
9d0113b8:	0062202b 	sltu	a0,v1,v0
9d0113bc:	0202202b 	sltu	a0,s0,v0
9d0113c0:	14800018 	bnez	a0,9d011424 <_sbrk_init+0x12c>
9d0113c4:	0062202b 	sltu	a0,v1,v0
9d0113c8:	1080000f 	beqz	a0,9d011408 <_sbrk_init+0x110>
9d0113cc:	8fbf0024 	lw	ra,36(sp)
9d0113d0:	3c04a001 	lui	a0,0xa001
9d0113d4:	24849fcc 	addiu	a0,a0,-24628
9d0113d8:	00042742 	srl	a0,a0,0x1d
9d0113dc:	24050005 	li	a1,5
9d0113e0:	14850012 	bne	a0,a1,9d01142c <_sbrk_init+0x134>
9d0113e4:	24050004 	li	a1,4
9d0113e8:	3c04a000 	lui	a0,0xa000
9d0113ec:	00641825 	or	v1,v1,a0
9d0113f0:	00441025 	or	v0,v0,a0
9d0113f4:	ae43a374 	sw	v1,-23692(s2)
9d0113f8:	ae62a370 	sw	v0,-23696(s3)
9d0113fc:	8e42a374 	lw	v0,-23692(s2)
9d011400:	ae82a36c 	sw	v0,-23700(s4)
9d011404:	8fbf0024 	lw	ra,36(sp)
9d011408:	8fb40020 	lw	s4,32(sp)
9d01140c:	8fb3001c 	lw	s3,28(sp)
9d011410:	8fb20018 	lw	s2,24(sp)
9d011414:	8fb10014 	lw	s1,20(sp)
9d011418:	8fb00010 	lw	s0,16(sp)
9d01141c:	03e00008 	jr	ra
9d011420:	27bd0028 	addiu	sp,sp,40
9d011424:	1000ffea 	b	9d0113d0 <_sbrk_init+0xd8>
9d011428:	02001025 	move	v0,s0
9d01142c:	1085ffef 	beq	a0,a1,9d0113ec <_sbrk_init+0xf4>
9d011430:	3c048000 	lui	a0,0x8000
9d011434:	1000fff1 	b	9d0113fc <_sbrk_init+0x104>
9d011438:	ae42a374 	sw	v0,-23692(s2)
9d01143c:	1460ffe4 	bnez	v1,9d0113d0 <_sbrk_init+0xd8>
9d011440:	02201825 	move	v1,s1
9d011444:	1000ffde 	b	9d0113c0 <_sbrk_init+0xc8>
9d011448:	0202202b 	sltu	a0,s0,v0

Disassembly of section .text.__fmt_d:

9d01144c <__fmt_d>:
9d01144c:	27bdffc0 	addiu	sp,sp,-64
9d011450:	afb1002c 	sw	s1,44(sp)
9d011454:	00808825 	move	s1,a0
9d011458:	00c02025 	move	a0,a2
9d01145c:	8c870004 	lw	a3,4(a0)
9d011460:	8ca20000 	lw	v0,0(a1)
9d011464:	afb40038 	sw	s4,56(sp)
9d011468:	0007a7c2 	srl	s4,a3,0x1f
9d01146c:	afb30034 	sw	s3,52(sp)
9d011470:	afb20030 	sw	s2,48(sp)
9d011474:	afb00028 	sw	s0,40(sp)
9d011478:	afbf003c 	sw	ra,60(sp)
9d01147c:	00a08025 	move	s0,a1
9d011480:	8ca30004 	lw	v1,4(a1)
9d011484:	8cb20008 	lw	s2,8(a1)
9d011488:	afa20020 	sw	v0,32(sp)
9d01148c:	8cb3000c 	lw	s3,12(a1)
9d011490:	1280003e 	beqz	s4,9d01158c <__fmt_d+0x140>
9d011494:	8cc60000 	lw	a2,0(a2)
9d011498:	00063023 	negu	a2,a2
9d01149c:	0006202b 	sltu	a0,zero,a2
9d0114a0:	00073823 	negu	a3,a3
9d0114a4:	04600008 	bltz	v1,9d0114c8 <__fmt_d+0x7c>
9d0114a8:	00e43823 	subu	a3,a3,a0
9d0114ac:	7c020844 	ins	v0,zero,0x1,0x1
9d0114b0:	16800005 	bnez	s4,9d0114c8 <__fmt_d+0x7c>
9d0114b4:	afa20020 	sw	v0,32(sp)
9d0114b8:	8fa20020 	lw	v0,32(sp)
9d0114bc:	30430004 	andi	v1,v0,0x4
9d0114c0:	1060002a 	beqz	v1,9d01156c <__fmt_d+0x120>
9d0114c4:	7c4200c0 	ext	v0,v0,0x3,0x1
9d0114c8:	2642ffff 	addiu	v0,s2,-1
9d0114cc:	27a30020 	addiu	v1,sp,32
9d0114d0:	afa30018 	sw	v1,24(sp)
9d0114d4:	2403000a 	li	v1,10
9d0114d8:	afa30014 	sw	v1,20(sp)
9d0114dc:	afa20010 	sw	v0,16(sp)
9d0114e0:	0f4045bb 	jal	9d0116ec <__cvt_u>
9d0114e4:	02002025 	move	a0,s0
9d0114e8:	16800006 	bnez	s4,9d011504 <__fmt_d+0xb8>
9d0114ec:	2403002d 	li	v1,45
9d0114f0:	8fa30020 	lw	v1,32(sp)
9d0114f4:	30640004 	andi	a0,v1,0x4
9d0114f8:	1080001e 	beqz	a0,9d011574 <__fmt_d+0x128>
9d0114fc:	30630008 	andi	v1,v1,0x8
9d011500:	2403002b 	li	v1,43
9d011504:	2442ffff 	addiu	v0,v0,-1
9d011508:	02622021 	addu	a0,s3,v0
9d01150c:	a0830000 	sb	v1,0(a0)
9d011510:	8e060010 	lw	a2,16(s0)
9d011514:	8fa30020 	lw	v1,32(sp)
9d011518:	02403825 	move	a3,s2
9d01151c:	24c6ffff 	addiu	a2,a2,-1
9d011520:	afa30010 	sw	v1,16(sp)
9d011524:	00c23023 	subu	a2,a2,v0
9d011528:	02622821 	addu	a1,s3,v0
9d01152c:	0f40484b 	jal	9d01212c <__pad>
9d011530:	02202025 	move	a0,s1
9d011534:	8e230004 	lw	v1,4(s1)
9d011538:	30630100 	andi	v1,v1,0x100
9d01153c:	10600004 	beqz	v1,9d011550 <__fmt_d+0x104>
9d011540:	8fbf003c 	lw	ra,60(sp)
9d011544:	8e030004 	lw	v1,4(s0)
9d011548:	0043202a 	slt	a0,v0,v1
9d01154c:	0064100b 	movn	v0,v1,a0
9d011550:	8fb40038 	lw	s4,56(sp)
9d011554:	8fb30034 	lw	s3,52(sp)
9d011558:	8fb20030 	lw	s2,48(sp)
9d01155c:	8fb1002c 	lw	s1,44(sp)
9d011560:	8fb00028 	lw	s0,40(sp)
9d011564:	03e00008 	jr	ra
9d011568:	27bd0040 	addiu	sp,sp,64
9d01156c:	1000ffd7 	b	9d0114cc <__fmt_d+0x80>
9d011570:	02421023 	subu	v0,s2,v0
9d011574:	1060ffe6 	beqz	v1,9d011510 <__fmt_d+0xc4>
9d011578:	24040020 	li	a0,32
9d01157c:	2442ffff 	addiu	v0,v0,-1
9d011580:	02621821 	addu	v1,s3,v0
9d011584:	1000ffe2 	b	9d011510 <__fmt_d+0xc4>
9d011588:	a0640000 	sb	a0,0(v1)
9d01158c:	0463ffc8 	bgezl	v1,9d0114b0 <__fmt_d+0x64>
9d011590:	7c020844 	ins	v0,zero,0x1,0x1
9d011594:	1000ffc9 	b	9d0114bc <__fmt_d+0x70>
9d011598:	8fa20020 	lw	v0,32(sp)

Disassembly of section .text.__read_int:

9d01159c <__read_int>:
9d01159c:	27bdffc8 	addiu	sp,sp,-56
9d0115a0:	afb50028 	sw	s5,40(sp)
9d0115a4:	8cb50008 	lw	s5,8(a1)
9d0115a8:	afb40024 	sw	s4,36(sp)
9d0115ac:	afb30020 	sw	s3,32(sp)
9d0115b0:	afb2001c 	sw	s2,28(sp)
9d0115b4:	afb10018 	sw	s1,24(sp)
9d0115b8:	afbf0034 	sw	ra,52(sp)
9d0115bc:	afb70030 	sw	s7,48(sp)
9d0115c0:	afb6002c 	sw	s6,44(sp)
9d0115c4:	afb00014 	sw	s0,20(sp)
9d0115c8:	00808825 	move	s1,a0
9d0115cc:	00c09025 	move	s2,a2
9d0115d0:	8cb40010 	lw	s4,16(a1)
9d0115d4:	0f404ad2 	jal	9d012b48 <__skipws>
9d0115d8:	8cb3000c 	lw	s3,12(a1)
9d0115dc:	52a00001 	beqzl	s5,9d0115e4 <__read_int+0x48>
9d0115e0:	2695ffff 	addiu	s5,s4,-1
9d0115e4:	8e430000 	lw	v1,0(s2)
9d0115e8:	00008025 	move	s0,zero
9d0115ec:	2694ffff 	addiu	s4,s4,-1
9d0115f0:	00621821 	addu	v1,v1,v0
9d0115f4:	ae430000 	sw	v1,0(s2)
9d0115f8:	2416ffff 	li	s6,-1
9d0115fc:	2417fffd 	li	s7,-3
9d011600:	0215102a 	slt	v0,s0,s5
9d011604:	1040001b 	beqz	v0,9d011674 <__read_int+0xd8>
9d011608:	0214102a 	slt	v0,s0,s4
9d01160c:	5040001a 	beqzl	v0,9d011678 <__read_int+0xdc>
9d011610:	02708021 	addu	s0,s3,s0
9d011614:	8e22003c 	lw	v0,60(s1)
9d011618:	8e23004c 	lw	v1,76(s1)
9d01161c:	0043182b 	sltu	v1,v0,v1
9d011620:	1060000e 	beqz	v1,9d01165c <__read_int+0xc0>
9d011624:	24430001 	addiu	v1,v0,1
9d011628:	ae23003c 	sw	v1,60(s1)
9d01162c:	90420000 	lbu	v0,0(v0)
9d011630:	2443ffd5 	addiu	v1,v0,-43
9d011634:	00771824 	and	v1,v1,s7
9d011638:	00701825 	or	v1,v1,s0
9d01163c:	1460001b 	bnez	v1,9d0116ac <__read_int+0x110>
9d011640:	2443ffd0 	addiu	v1,v0,-48
9d011644:	a2620000 	sb	v0,0(s3)
9d011648:	8e420000 	lw	v0,0(s2)
9d01164c:	24100001 	li	s0,1
9d011650:	24420001 	addiu	v0,v0,1
9d011654:	1000ffea 	b	9d011600 <__read_int+0x64>
9d011658:	ae420000 	sw	v0,0(s2)
9d01165c:	0f404aa5 	jal	9d012a94 <__shgetc>
9d011660:	02202025 	move	a0,s1
9d011664:	1456fff3 	bne	v0,s6,9d011634 <__read_int+0x98>
9d011668:	2443ffd5 	addiu	v1,v0,-43
9d01166c:	12000005 	beqz	s0,9d011684 <__read_int+0xe8>
9d011670:	8fbf0034 	lw	ra,52(sp)
9d011674:	02708021 	addu	s0,s3,s0
9d011678:	a2000000 	sb	zero,0(s0)
9d01167c:	00001025 	move	v0,zero
9d011680:	8fbf0034 	lw	ra,52(sp)
9d011684:	8fb70030 	lw	s7,48(sp)
9d011688:	8fb6002c 	lw	s6,44(sp)
9d01168c:	8fb50028 	lw	s5,40(sp)
9d011690:	8fb40024 	lw	s4,36(sp)
9d011694:	8fb30020 	lw	s3,32(sp)
9d011698:	8fb2001c 	lw	s2,28(sp)
9d01169c:	8fb10018 	lw	s1,24(sp)
9d0116a0:	8fb00014 	lw	s0,20(sp)
9d0116a4:	03e00008 	jr	ra
9d0116a8:	27bd0038 	addiu	sp,sp,56
9d0116ac:	2c63000a 	sltiu	v1,v1,10
9d0116b0:	54600008 	bnezl	v1,9d0116d4 <__read_int+0x138>
9d0116b4:	02701821 	addu	v1,s3,s0
9d0116b8:	8e22004c 	lw	v0,76(s1)
9d0116bc:	5040ffee 	beqzl	v0,9d011678 <__read_int+0xdc>
9d0116c0:	02708021 	addu	s0,s3,s0
9d0116c4:	8e22003c 	lw	v0,60(s1)
9d0116c8:	2442ffff 	addiu	v0,v0,-1
9d0116cc:	1000ffe9 	b	9d011674 <__read_int+0xd8>
9d0116d0:	ae22003c 	sw	v0,60(s1)
9d0116d4:	a0620000 	sb	v0,0(v1)
9d0116d8:	8e420000 	lw	v0,0(s2)
9d0116dc:	26100001 	addiu	s0,s0,1
9d0116e0:	24420001 	addiu	v0,v0,1
9d0116e4:	1000ffc6 	b	9d011600 <__read_int+0x64>
9d0116e8:	ae420000 	sw	v0,0(s2)

Disassembly of section .text.__cvt_u:

9d0116ec <__cvt_u>:
9d0116ec:	8c820004 	lw	v0,4(a0)
9d0116f0:	27bdffc0 	addiu	sp,sp,-64
9d0116f4:	afbe0038 	sw	s8,56(sp)
9d0116f8:	afb40028 	sw	s4,40(sp)
9d0116fc:	afb20020 	sw	s2,32(sp)
9d011700:	afb1001c 	sw	s1,28(sp)
9d011704:	afbf003c 	sw	ra,60(sp)
9d011708:	afb70034 	sw	s7,52(sp)
9d01170c:	afb60030 	sw	s6,48(sp)
9d011710:	afb5002c 	sw	s5,44(sp)
9d011714:	afb30024 	sw	s3,36(sp)
9d011718:	afb00018 	sw	s0,24(sp)
9d01171c:	00c08825 	move	s1,a2
9d011720:	00e09025 	move	s2,a3
9d011724:	8fb40054 	lw	s4,84(sp)
9d011728:	04410002 	bgez	v0,9d011734 <__cvt_u+0x48>
9d01172c:	8fbe0058 	lw	s8,88(sp)
9d011730:	24020001 	li	v0,1
9d011734:	8c900010 	lw	s0,16(a0)
9d011738:	8c95000c 	lw	s5,12(a0)
9d01173c:	8fd70000 	lw	s7,0(s8)
9d011740:	8fb30050 	lw	s3,80(sp)
9d011744:	2610ffff 	addiu	s0,s0,-1
9d011748:	02b01821 	addu	v1,s5,s0
9d01174c:	a0600000 	sb	zero,0(v1)
9d011750:	24090001 	li	t1,1
9d011754:	00534023 	subu	t0,v0,s3
9d011758:	32f70002 	andi	s7,s7,0x2
9d01175c:	0014b7c3 	sra	s6,s4,0x1f
9d011760:	1e000010 	bgtz	s0,9d0117a4 <__cvt_u+0xb8>
9d011764:	02321025 	or	v0,s1,s2
9d011768:	5120002c 	beqzl	t1,9d01181c <__cvt_u+0x130>
9d01176c:	8fc20000 	lw	v0,0(s8)
9d011770:	8fbf003c 	lw	ra,60(sp)
9d011774:	02001025 	move	v0,s0
9d011778:	8fbe0038 	lw	s8,56(sp)
9d01177c:	8fb70034 	lw	s7,52(sp)
9d011780:	8fb60030 	lw	s6,48(sp)
9d011784:	8fb5002c 	lw	s5,44(sp)
9d011788:	8fb40028 	lw	s4,40(sp)
9d01178c:	8fb30024 	lw	s3,36(sp)
9d011790:	8fb20020 	lw	s2,32(sp)
9d011794:	8fb1001c 	lw	s1,28(sp)
9d011798:	8fb00018 	lw	s0,24(sp)
9d01179c:	03e00008 	jr	ra
9d0117a0:	27bd0040 	addiu	sp,sp,64
9d0117a4:	14400007 	bnez	v0,9d0117c4 <__cvt_u+0xd8>
9d0117a8:	01131021 	addu	v0,t0,s3
9d0117ac:	1c400006 	bgtz	v0,9d0117c8 <__cvt_u+0xdc>
9d0117b0:	02202025 	move	a0,s1
9d0117b4:	1a60ffec 	blez	s3,9d011768 <__cvt_u+0x7c>
9d0117b8:	00000000 	nop
9d0117bc:	12e0ffea 	beqz	s7,9d011768 <__cvt_u+0x7c>
9d0117c0:	00000000 	nop
9d0117c4:	02202025 	move	a0,s1
9d0117c8:	02402825 	move	a1,s2
9d0117cc:	02803025 	move	a2,s4
9d0117d0:	02c03825 	move	a3,s6
9d0117d4:	afa80014 	sw	t0,20(sp)
9d0117d8:	0f403aa1 	jal	9d00ea84 <__umoddi3>
9d0117dc:	2610ffff 	addiu	s0,s0,-1
9d0117e0:	afa20010 	sw	v0,16(sp)
9d0117e4:	02b01821 	addu	v1,s5,s0
9d0117e8:	24420030 	addiu	v0,v0,48
9d0117ec:	02202025 	move	a0,s1
9d0117f0:	02402825 	move	a1,s2
9d0117f4:	a0620000 	sb	v0,0(v1)
9d0117f8:	02803025 	move	a2,s4
9d0117fc:	0f4039b2 	jal	9d00e6c8 <__udivdi3>
9d011800:	02c03825 	move	a3,s6
9d011804:	2673ffff 	addiu	s3,s3,-1
9d011808:	00408825 	move	s1,v0
9d01180c:	00609025 	move	s2,v1
9d011810:	8fa80014 	lw	t0,20(sp)
9d011814:	1000ffd2 	b	9d011760 <__cvt_u+0x74>
9d011818:	8fa90010 	lw	t1,16(sp)
9d01181c:	7c022104 	ins	v0,zero,0x4,0x1
9d011820:	1000ffd3 	b	9d011770 <__cvt_u+0x84>
9d011824:	afc20000 	sw	v0,0(s8)

Disassembly of section .text.read:

9d011828 <read>:
9d011828:	50a0004a 	beqzl	a1,9d011954 <read+0x12c>
9d01182c:	00002025 	move	a0,zero
9d011830:	50c00048 	beqzl	a2,9d011954 <read+0x12c>
9d011834:	00002025 	move	a0,zero
9d011838:	27bdffe0 	addiu	sp,sp,-32
9d01183c:	afb10014 	sw	s1,20(sp)
9d011840:	afbf001c 	sw	ra,28(sp)
9d011844:	afb20018 	sw	s2,24(sp)
9d011848:	afb00010 	sw	s0,16(sp)
9d01184c:	1480000b 	bnez	a0,9d01187c <read+0x54>
9d011850:	00c08825 	move	s1,a2
9d011854:	3c020000 	lui	v0,0x0
9d011858:	24420000 	addiu	v0,v0,0
9d01185c:	1040000f 	beqz	v0,9d01189c <read+0x74>
9d011860:	00a08025 	move	s0,a1
9d011864:	00a69021 	addu	s2,a1,a2
9d011868:	0c000000 	jal	90000000 <_bmxdudba_address+0x8fff0000>
9d01186c:	24040001 	li	a0,1
9d011870:	26100001 	addiu	s0,s0,1
9d011874:	1650fffc 	bne	s2,s0,9d011868 <read+0x40>
9d011878:	a202ffff 	sb	v0,-1(s0)
9d01187c:	02202025 	move	a0,s1
9d011880:	8fbf001c 	lw	ra,28(sp)
9d011884:	00801025 	move	v0,a0
9d011888:	8fb20018 	lw	s2,24(sp)
9d01188c:	8fb10014 	lw	s1,20(sp)
9d011890:	8fb00010 	lw	s0,16(sp)
9d011894:	03e00008 	jr	ra
9d011898:	27bd0020 	addiu	sp,sp,32
9d01189c:	3c03bf80 	lui	v1,0xbf80
9d0118a0:	24626010 	addiu	v0,v1,24592
9d0118a4:	1040fff6 	beqz	v0,9d011880 <read+0x58>
9d0118a8:	3c03a000 	lui	v1,0xa000
9d0118ac:	8c640008 	lw	a0,8(v1)
9d0118b0:	24030002 	li	v1,2
9d0118b4:	1083001d 	beq	a0,v1,9d01192c <read+0x104>
9d0118b8:	3c03bf80 	lui	v1,0xbf80
9d0118bc:	3c03bf80 	lui	v1,0xbf80
9d0118c0:	8c646000 	lw	a0,24576(v1)
9d0118c4:	3c03bf80 	lui	v1,0xbf80
9d0118c8:	24636030 	addiu	v1,v1,24624
9d0118cc:	30848000 	andi	a0,a0,0x8000
9d0118d0:	14800003 	bnez	a0,9d0118e0 <read+0xb8>
9d0118d4:	3c04bf80 	lui	a0,0xbf80
9d0118d8:	34058000 	li	a1,0x8000
9d0118dc:	ac856008 	sw	a1,24584(a0)
9d0118e0:	02202025 	move	a0,s1
9d0118e4:	240500a1 	li	a1,161
9d0118e8:	8c460000 	lw	a2,0(v0)
9d0118ec:	30c60001 	andi	a2,a2,0x1
9d0118f0:	14c00003 	bnez	a2,9d011900 <read+0xd8>
9d0118f4:	24a5ffff 	addiu	a1,a1,-1
9d0118f8:	14a0fffb 	bnez	a1,9d0118e8 <read+0xc0>
9d0118fc:	00000000 	nop
9d011900:	8c450000 	lw	a1,0(v0)
9d011904:	30a50001 	andi	a1,a1,0x1
9d011908:	54a0ffdc 	bnezl	a1,9d01187c <read+0x54>
9d01190c:	02248823 	subu	s1,s1,a0
9d011910:	8c650000 	lw	a1,0(v1)
9d011914:	26100001 	addiu	s0,s0,1
9d011918:	2484ffff 	addiu	a0,a0,-1
9d01191c:	1480fff1 	bnez	a0,9d0118e4 <read+0xbc>
9d011920:	a205ffff 	sb	a1,-1(s0)
9d011924:	1000ffd5 	b	9d01187c <read+0x54>
9d011928:	02248823 	subu	s1,s1,a0
9d01192c:	24636240 	addiu	v1,v1,25152
9d011930:	5060ffe3 	beqzl	v1,9d0118c0 <read+0x98>
9d011934:	3c03bf80 	lui	v1,0xbf80
9d011938:	3c02bf80 	lui	v0,0xbf80
9d01193c:	8c446200 	lw	a0,25088(v0)
9d011940:	3c03bf80 	lui	v1,0xbf80
9d011944:	3c02bf80 	lui	v0,0xbf80
9d011948:	24636230 	addiu	v1,v1,25136
9d01194c:	1000ffdf 	b	9d0118cc <read+0xa4>
9d011950:	24426210 	addiu	v0,v0,25104
9d011954:	03e00008 	jr	ra
9d011958:	00801025 	move	v0,a0

Disassembly of section .text.dpcmp:

9d01195c <__eqdf2>:
9d01195c:	2409fffe 00055040 00075840 01645825     ...$@P..@X..%Xd.
9d01196c:	01665825 014b5025 15400003 00000000     %Xf.%PK...@.....
9d01197c:	1000003c 24020000                       <......$

9d011984 <i56>:
9d011984:	10800002 	beqz	a0,9d011990 <i57>
9d011988:	00054040 	sll	t0,a1,0x1
9d01198c:	25080001 	addiu	t0,t0,1

9d011990 <i57>:
9d011990:	3c01ffe0 	lui	at,0xffe0
9d011994:	34210001 	ori	at,at,0x1
9d011998:	0101082b 	sltu	at,t0,at
9d01199c:	10200037 	beqz	at,9d011a7c <Lnan>
9d0119a0:	00000000 	nop
9d0119a4:	10c00002 	beqz	a2,9d0119b0 <i58>
9d0119a8:	00074040 	sll	t0,a3,0x1
9d0119ac:	25080001 	addiu	t0,t0,1

9d0119b0 <i58>:
9d0119b0:	3c01ffe0 	lui	at,0xffe0
9d0119b4:	34210001 	ori	at,at,0x1
9d0119b8:	0101082b 	sltu	at,t0,at
9d0119bc:	1020002f 	beqz	at,9d011a7c <Lnan>
9d0119c0:	00000000 	nop
9d0119c4:	04a10016 	bgez	a1,9d011a20 <i59>
9d0119c8:	00000000 	nop
9d0119cc:	04e00003 	bltz	a3,9d0119dc <i60>
9d0119d0:	00000000 	nop
9d0119d4:	10000026 	b	9d011a70 <L999>
9d0119d8:	2402ffff 	li	v0,-1

9d0119dc <i60>:
9d0119dc:	0086502b 	sltu	t2,a0,a2
9d0119e0:	00862023 	subu	a0,a0,a2
9d0119e4:	00aa582b 	sltu	t3,a1,t2
9d0119e8:	00aa2823 	subu	a1,a1,t2
9d0119ec:	00a7502b 	sltu	t2,a1,a3
9d0119f0:	014b5025 	or	t2,t2,t3
9d0119f4:	11400003 	beqz	t2,9d011a04 <i61>
9d0119f8:	00a72823 	subu	a1,a1,a3
9d0119fc:	1000001c 	b	9d011a70 <L999>
9d011a00:	24020001 	li	v0,1

9d011a04 <i61>:
9d011a04:	00a45025 	or	t2,a1,a0
9d011a08:	11400003 	beqz	t2,9d011a18 <i62>
9d011a0c:	00000000 	nop
9d011a10:	10000017 	b	9d011a70 <L999>
9d011a14:	2402ffff 	li	v0,-1

9d011a18 <i62>:
9d011a18:	10000015 	b	9d011a70 <L999>
9d011a1c:	24020000 	li	v0,0

9d011a20 <i59>:
9d011a20:	04e10003 	bgez	a3,9d011a30 <i63>
9d011a24:	00000000 	nop
9d011a28:	10000011 	b	9d011a70 <L999>
9d011a2c:	24020001 	li	v0,1

9d011a30 <i63>:
9d011a30:	0086502b 	sltu	t2,a0,a2
9d011a34:	00862023 	subu	a0,a0,a2
9d011a38:	00aa582b 	sltu	t3,a1,t2
9d011a3c:	00aa2823 	subu	a1,a1,t2
9d011a40:	00a7502b 	sltu	t2,a1,a3
9d011a44:	014b5025 	or	t2,t2,t3
9d011a48:	11400003 	beqz	t2,9d011a58 <i64>
9d011a4c:	00a72823 	subu	a1,a1,a3
9d011a50:	10000007 	b	9d011a70 <L999>
9d011a54:	2402ffff 	li	v0,-1

9d011a58 <i64>:
9d011a58:	00a45025 	or	t2,a1,a0
9d011a5c:	11400003 	beqz	t2,9d011a6c <i65>
9d011a60:	00000000 	nop
9d011a64:	10000002 	b	9d011a70 <L999>
9d011a68:	24020001 	li	v0,1

9d011a6c <i65>:
9d011a6c:	24020000 	li	v0,0

9d011a70 <L999>:
9d011a70:	03e00008 	jr	ra
9d011a74:	00000000 	nop
9d011a78:	00000000 	nop

9d011a7c <Lnan>:
9d011a7c:	1000fffc 	b	9d011a70 <L999>
9d011a80:	00091025 	or	v0,zero,t1
9d011a84:	00000000 	nop

Disassembly of section .text.dfcmplt:

9d011a88 <dpcmplt>:
9d011a88:	2409fffe 	li	t1,-2
9d011a8c:	00055040 	sll	t2,a1,0x1
9d011a90:	00075840 	sll	t3,a3,0x1
9d011a94:	01645825 	or	t3,t3,a0
9d011a98:	01665825 	or	t3,t3,a2
9d011a9c:	014b5025 	or	t2,t2,t3
9d011aa0:	15400003 	bnez	t2,9d011ab0 <dpcmplt+0x28>
9d011aa4:	00000000 	nop
9d011aa8:	1000003c 	b	9d011b9c <dpcmplt+0x114>
9d011aac:	24020000 	li	v0,0
9d011ab0:	10800002 	beqz	a0,9d011abc <dpcmplt+0x34>
9d011ab4:	00054040 	sll	t0,a1,0x1
9d011ab8:	25080001 	addiu	t0,t0,1
9d011abc:	3c01ffe0 	lui	at,0xffe0
9d011ac0:	34210001 	ori	at,at,0x1
9d011ac4:	0101082b 	sltu	at,t0,at
9d011ac8:	10200037 	beqz	at,9d011ba8 <dpcmplt+0x120>
9d011acc:	00000000 	nop
9d011ad0:	10c00002 	beqz	a2,9d011adc <dpcmplt+0x54>
9d011ad4:	00074040 	sll	t0,a3,0x1
9d011ad8:	25080001 	addiu	t0,t0,1
9d011adc:	3c01ffe0 	lui	at,0xffe0
9d011ae0:	34210001 	ori	at,at,0x1
9d011ae4:	0101082b 	sltu	at,t0,at
9d011ae8:	1020002f 	beqz	at,9d011ba8 <dpcmplt+0x120>
9d011aec:	00000000 	nop
9d011af0:	04a10016 	bgez	a1,9d011b4c <dpcmplt+0xc4>
9d011af4:	00000000 	nop
9d011af8:	04e00003 	bltz	a3,9d011b08 <dpcmplt+0x80>
9d011afc:	00000000 	nop
9d011b00:	10000026 	b	9d011b9c <dpcmplt+0x114>
9d011b04:	2402ffff 	li	v0,-1
9d011b08:	0086502b 	sltu	t2,a0,a2
9d011b0c:	00862023 	subu	a0,a0,a2
9d011b10:	00aa582b 	sltu	t3,a1,t2
9d011b14:	00aa2823 	subu	a1,a1,t2
9d011b18:	00a7502b 	sltu	t2,a1,a3
9d011b1c:	014b5025 	or	t2,t2,t3
9d011b20:	11400003 	beqz	t2,9d011b30 <dpcmplt+0xa8>
9d011b24:	00a72823 	subu	a1,a1,a3
9d011b28:	1000001c 	b	9d011b9c <dpcmplt+0x114>
9d011b2c:	24020001 	li	v0,1
9d011b30:	00a45025 	or	t2,a1,a0
9d011b34:	11400003 	beqz	t2,9d011b44 <dpcmplt+0xbc>
9d011b38:	00000000 	nop
9d011b3c:	10000017 	b	9d011b9c <dpcmplt+0x114>
9d011b40:	2402ffff 	li	v0,-1
9d011b44:	10000015 	b	9d011b9c <dpcmplt+0x114>
9d011b48:	24020000 	li	v0,0
9d011b4c:	04e10003 	bgez	a3,9d011b5c <dpcmplt+0xd4>
9d011b50:	00000000 	nop
9d011b54:	10000011 	b	9d011b9c <dpcmplt+0x114>
9d011b58:	24020001 	li	v0,1
9d011b5c:	0086502b 	sltu	t2,a0,a2
9d011b60:	00862023 	subu	a0,a0,a2
9d011b64:	00aa582b 	sltu	t3,a1,t2
9d011b68:	00aa2823 	subu	a1,a1,t2
9d011b6c:	00a7502b 	sltu	t2,a1,a3
9d011b70:	014b5025 	or	t2,t2,t3
9d011b74:	11400003 	beqz	t2,9d011b84 <dpcmplt+0xfc>
9d011b78:	00a72823 	subu	a1,a1,a3
9d011b7c:	10000007 	b	9d011b9c <dpcmplt+0x114>
9d011b80:	2402ffff 	li	v0,-1
9d011b84:	00a45025 	or	t2,a1,a0
9d011b88:	11400003 	beqz	t2,9d011b98 <dpcmplt+0x110>
9d011b8c:	00000000 	nop
9d011b90:	10000002 	b	9d011b9c <dpcmplt+0x114>
9d011b94:	24020001 	li	v0,1
9d011b98:	24020000 	li	v0,0
9d011b9c:	03e00008 	jr	ra
9d011ba0:	00000000 	nop
9d011ba4:	00000000 	nop
9d011ba8:	1000fffc 	b	9d011b9c <dpcmplt+0x114>
9d011bac:	34020001 	li	v0,0x1
9d011bb0:	00000000 	nop

Disassembly of section .text._mon_putc:

9d011bb4 <_mon_putc>:
9d011bb4:	3c02a000 	lui	v0,0xa000
9d011bb8:	8c430008 	lw	v1,8(v0)
9d011bbc:	14600013 	bnez	v1,9d011c0c <_mon_putc+0x58>
9d011bc0:	00803025 	move	a2,a0
9d011bc4:	3c020000 	lui	v0,0x0
9d011bc8:	27bdffe8 	addiu	sp,sp,-24
9d011bcc:	24420000 	addiu	v0,v0,0
9d011bd0:	10400006 	beqz	v0,9d011bec <_mon_putc+0x38>
9d011bd4:	afbf0014 	sw	ra,20(sp)
9d011bd8:	0c000000 	jal	90000000 <_bmxdudba_address+0x8fff0000>
9d011bdc:	00000000 	nop
9d011be0:	8fbf0014 	lw	ra,20(sp)
9d011be4:	03e00008 	jr	ra
9d011be8:	27bd0018 	addiu	sp,sp,24
9d011bec:	3c020000 	lui	v0,0x0
9d011bf0:	24420000 	addiu	v0,v0,0
9d011bf4:	10400025 	beqz	v0,9d011c8c <_mon_putc+0xd8>
9d011bf8:	3c05bf80 	lui	a1,0xbf80
9d011bfc:	0c000000 	jal	90000000 <_bmxdudba_address+0x8fff0000>
9d011c00:	00000000 	nop
9d011c04:	1000fff7 	b	9d011be4 <_mon_putc+0x30>
9d011c08:	8fbf0014 	lw	ra,20(sp)
9d011c0c:	3c02bf80 	lui	v0,0xbf80
9d011c10:	24426010 	addiu	v0,v0,24592
9d011c14:	1040002f 	beqz	v0,9d011cd4 <_mon_putc+0x120>
9d011c18:	00000000 	nop
9d011c1c:	24040001 	li	a0,1
9d011c20:	14640012 	bne	v1,a0,9d011c6c <_mon_putc+0xb8>
9d011c24:	3c03bf80 	lui	v1,0xbf80
9d011c28:	3c03bf80 	lui	v1,0xbf80
9d011c2c:	3c04bf80 	lui	a0,0xbf80
9d011c30:	3c05bf80 	lui	a1,0xbf80
9d011c34:	24636020 	addiu	v1,v1,24608
9d011c38:	24846018 	addiu	a0,a0,24600
9d011c3c:	24a56008 	addiu	a1,a1,24584
9d011c40:	34078000 	li	a3,0x8000
9d011c44:	aca70000 	sw	a3,0(a1)
9d011c48:	24050400 	li	a1,1024
9d011c4c:	ac850000 	sw	a1,0(a0)
9d011c50:	8c440000 	lw	a0,0(v0)
9d011c54:	30840100 	andi	a0,a0,0x100
9d011c58:	1080fffd 	beqz	a0,9d011c50 <_mon_putc+0x9c>
9d011c5c:	00000000 	nop
9d011c60:	ac660000 	sw	a2,0(v1)
9d011c64:	03e00008 	jr	ra
9d011c68:	00000000 	nop
9d011c6c:	3c04bf80 	lui	a0,0xbf80
9d011c70:	3c05bf80 	lui	a1,0xbf80
9d011c74:	3c02bf80 	lui	v0,0xbf80
9d011c78:	24636220 	addiu	v1,v1,25120
9d011c7c:	24846218 	addiu	a0,a0,25112
9d011c80:	24a56208 	addiu	a1,a1,25096
9d011c84:	1000ffee 	b	9d011c40 <_mon_putc+0x8c>
9d011c88:	24426210 	addiu	v0,v0,25104
9d011c8c:	24a56208 	addiu	a1,a1,25096
9d011c90:	3c04bf80 	lui	a0,0xbf80
9d011c94:	34078000 	li	a3,0x8000
9d011c98:	aca70000 	sw	a3,0(a1)
9d011c9c:	3c03bf80 	lui	v1,0xbf80
9d011ca0:	24846218 	addiu	a0,a0,25112
9d011ca4:	3c02bf80 	lui	v0,0xbf80
9d011ca8:	24050400 	li	a1,1024
9d011cac:	24636220 	addiu	v1,v1,25120
9d011cb0:	24426210 	addiu	v0,v0,25104
9d011cb4:	ac850000 	sw	a1,0(a0)
9d011cb8:	8c440000 	lw	a0,0(v0)
9d011cbc:	30840100 	andi	a0,a0,0x100
9d011cc0:	1080fffd 	beqz	a0,9d011cb8 <_mon_putc+0x104>
9d011cc4:	00000000 	nop
9d011cc8:	ac660000 	sw	a2,0(v1)
9d011ccc:	1000ffc5 	b	9d011be4 <_mon_putc+0x30>
9d011cd0:	8fbf0014 	lw	ra,20(sp)
9d011cd4:	03e00008 	jr	ra
9d011cd8:	00000000 	nop

Disassembly of section .text.logbl:

9d011cdc <logbl>:
9d011cdc:	27bdffe0 	addiu	sp,sp,-32
9d011ce0:	afa50024 	sw	a1,36(sp)
9d011ce4:	afb20018 	sw	s2,24(sp)
9d011ce8:	87b20026 	lh	s2,38(sp)
9d011cec:	24037ff0 	li	v1,32752
9d011cf0:	afbf001c 	sw	ra,28(sp)
9d011cf4:	32427ff0 	andi	v0,s2,0x7ff0
9d011cf8:	afb10014 	sw	s1,20(sp)
9d011cfc:	afb00010 	sw	s0,16(sp)
9d011d00:	10430021 	beq	v0,v1,9d011d88 <logbl+0xac>
9d011d04:	afa40020 	sw	a0,32(sp)
9d011d08:	14400012 	bnez	v0,9d011d54 <logbl+0x78>
9d011d0c:	00003025 	move	a2,zero
9d011d10:	0f404657 	jal	9d01195c <__eqdf2>
9d011d14:	00003825 	move	a3,zero
9d011d18:	1440002e 	bnez	v0,9d011dd4 <logbl+0xf8>
9d011d1c:	3c029d00 	lui	v0,0x9d00
9d011d20:	3c02a001 	lui	v0,0xa001
9d011d24:	24030021 	li	v1,33
9d011d28:	00008025 	move	s0,zero
9d011d2c:	3c11ffc0 	lui	s1,0xffc0
9d011d30:	ac43a378 	sw	v1,-23688(v0)
9d011d34:	8fbf001c 	lw	ra,28(sp)
9d011d38:	02001025 	move	v0,s0
9d011d3c:	02201825 	move	v1,s1
9d011d40:	8fb20018 	lw	s2,24(sp)
9d011d44:	8fb10014 	lw	s1,20(sp)
9d011d48:	8fb00010 	lw	s0,16(sp)
9d011d4c:	03e00008 	jr	ra
9d011d50:	27bd0020 	addiu	sp,sp,32
9d011d54:	00022103 	sra	a0,v0,0x4
9d011d58:	0f404ec2 	jal	9d013b08 <__floatsidf>
9d011d5c:	2484fc01 	addiu	a0,a0,-1023
9d011d60:	8fbf001c 	lw	ra,28(sp)
9d011d64:	00408025 	move	s0,v0
9d011d68:	00608825 	move	s1,v1
9d011d6c:	02001025 	move	v0,s0
9d011d70:	02201825 	move	v1,s1
9d011d74:	8fb20018 	lw	s2,24(sp)
9d011d78:	8fb10014 	lw	s1,20(sp)
9d011d7c:	8fb00010 	lw	s0,16(sp)
9d011d80:	03e00008 	jr	ra
9d011d84:	27bd0020 	addiu	sp,sp,32
9d011d88:	00803025 	move	a2,a0
9d011d8c:	00a03825 	move	a3,a1
9d011d90:	00808025 	move	s0,a0
9d011d94:	0f404657 	jal	9d01195c <__eqdf2>
9d011d98:	00a08825 	move	s1,a1
9d011d9c:	1440ffe6 	bnez	v0,9d011d38 <logbl+0x5c>
9d011da0:	8fbf001c 	lw	ra,28(sp)
9d011da4:	32527fff 	andi	s2,s2,0x7fff
9d011da8:	a7b20026 	sh	s2,38(sp)
9d011dac:	8fb00020 	lw	s0,32(sp)
9d011db0:	8fb10024 	lw	s1,36(sp)
9d011db4:	8fbf001c 	lw	ra,28(sp)
9d011db8:	02001025 	move	v0,s0
9d011dbc:	02201825 	move	v1,s1
9d011dc0:	8fb20018 	lw	s2,24(sp)
9d011dc4:	8fb10014 	lw	s1,20(sp)
9d011dc8:	8fb00010 	lw	s0,16(sp)
9d011dcc:	03e00008 	jr	ra
9d011dd0:	27bd0020 	addiu	sp,sp,32
9d011dd4:	8c5175fc 	lw	s1,30204(v0)
9d011dd8:	8c5075f8 	lw	s0,30200(v0)
9d011ddc:	8fbf001c 	lw	ra,28(sp)
9d011de0:	02201825 	move	v1,s1
9d011de4:	02001025 	move	v0,s0
9d011de8:	8fb20018 	lw	s2,24(sp)
9d011dec:	8fb10014 	lw	s1,20(sp)
9d011df0:	8fb00010 	lw	s0,16(sp)
9d011df4:	03e00008 	jr	ra
9d011df8:	27bd0020 	addiu	sp,sp,32

Disassembly of section .text.realloc:

9d011dfc <realloc>:
9d011dfc:	27bdffd8 	addiu	sp,sp,-40
9d011e00:	afbf0024 	sw	ra,36(sp)
9d011e04:	afb40020 	sw	s4,32(sp)
9d011e08:	afb3001c 	sw	s3,28(sp)
9d011e0c:	afb20018 	sw	s2,24(sp)
9d011e10:	afb10014 	sw	s1,20(sp)
9d011e14:	afb00010 	sw	s0,16(sp)
9d011e18:	1480000d 	bnez	a0,9d011e50 <realloc+0x54>
9d011e1c:	afa5002c 	sw	a1,44(sp)
9d011e20:	0f403e5d 	jal	9d00f974 <malloc>
9d011e24:	00a02025 	move	a0,a1
9d011e28:	00408825 	move	s1,v0
9d011e2c:	8fbf0024 	lw	ra,36(sp)
9d011e30:	02201025 	move	v0,s1
9d011e34:	8fb40020 	lw	s4,32(sp)
9d011e38:	8fb3001c 	lw	s3,28(sp)
9d011e3c:	8fb20018 	lw	s2,24(sp)
9d011e40:	8fb10014 	lw	s1,20(sp)
9d011e44:	8fb00010 	lw	s0,16(sp)
9d011e48:	03e00008 	jr	ra
9d011e4c:	27bd0028 	addiu	sp,sp,40
9d011e50:	00808025 	move	s0,a0
9d011e54:	0f40507f 	jal	9d0141fc <adjust_size>
9d011e58:	27a4002c 	addiu	a0,sp,44
9d011e5c:	0440002b 	bltz	v0,9d011f0c <realloc+0x110>
9d011e60:	2413fffe 	li	s3,-2
9d011e64:	8e02fffc 	lw	v0,-4(s0)
9d011e68:	2614fff8 	addiu	s4,s0,-8
9d011e6c:	00539024 	and	s2,v0,s3
9d011e70:	02928821 	addu	s1,s4,s2
9d011e74:	8e230000 	lw	v1,0(s1)
9d011e78:	10430003 	beq	v0,v1,9d011e88 <realloc+0x8c>
9d011e7c:	8fa2002c 	lw	v0,44(sp)
9d011e80:	a0000000 	sb	zero,0(zero)
9d011e84:	00000034 	teq	zero,zero
9d011e88:	0242102b 	sltu	v0,s2,v0
9d011e8c:	10400009 	beqz	v0,9d011eb4 <realloc+0xb8>
9d011e90:	02401825 	move	v1,s2
9d011e94:	0f404f8a 	jal	9d013e28 <alloc_fwd>
9d011e98:	02202025 	move	a0,s1
9d011e9c:	10400005 	beqz	v0,9d011eb4 <realloc+0xb8>
9d011ea0:	02401825 	move	v1,s2
9d011ea4:	8e220004 	lw	v0,4(s1)
9d011ea8:	02629824 	and	s3,s3,v0
9d011eac:	02721821 	addu	v1,s3,s2
9d011eb0:	02338821 	addu	s1,s1,s3
9d011eb4:	8fa5002c 	lw	a1,44(sp)
9d011eb8:	34620001 	ori	v0,v1,0x1
9d011ebc:	ae02fffc 	sw	v0,-4(s0)
9d011ec0:	0065182b 	sltu	v1,v1,a1
9d011ec4:	14600005 	bnez	v1,9d011edc <realloc+0xe0>
9d011ec8:	ae220000 	sw	v0,0(s1)
9d011ecc:	0f405095 	jal	9d014254 <trim>
9d011ed0:	02802025 	move	a0,s4
9d011ed4:	1000ffd5 	b	9d011e2c <realloc+0x30>
9d011ed8:	02008825 	move	s1,s0
9d011edc:	0f403e5d 	jal	9d00f974 <malloc>
9d011ee0:	24a4fff8 	addiu	a0,a1,-8
9d011ee4:	1040ffd1 	beqz	v0,9d011e2c <realloc+0x30>
9d011ee8:	00408825 	move	s1,v0
9d011eec:	2646fff8 	addiu	a2,s2,-8
9d011ef0:	02002825 	move	a1,s0
9d011ef4:	0f4052b1 	jal	9d014ac4 <memcpy>
9d011ef8:	00402025 	move	a0,v0
9d011efc:	0f40417c 	jal	9d0105f0 <free>
9d011f00:	02002025 	move	a0,s0
9d011f04:	1000ffca 	b	9d011e30 <realloc+0x34>
9d011f08:	8fbf0024 	lw	ra,36(sp)
9d011f0c:	1000ffc7 	b	9d011e2c <realloc+0x30>
9d011f10:	00008825 	move	s1,zero

Disassembly of section .rodata:

9d011f14 <table-0xc>:
9d011f14:	04020100 	bltzl	zero,9d012318 <i49+0x14>
9d011f18:	05060307 	0x5060307
9d011f1c:	00000000 	nop

9d011f20 <table>:
9d011f20:	ffffffff ffffffff ffffffff ffffffff     ................
9d011f30:	ffffffff ffffffff ffffffff ffffffff     ................
9d011f40:	ffffffff ffffffff ffffffff ffffffff     ................
9d011f50:	020100ff 06050403 ff090807 ffffffff     ................
9d011f60:	0b0affff 0f0e0d0c 13121110 17161514     ................
9d011f70:	1b1a1918 1f1e1d1c 23222120 ffffffff     ........ !"#....
9d011f80:	0b0affff 0f0e0d0c 13121110 17161514     ................
9d011f90:	1b1a1918 1f1e1d1c 23222120 ffffffff     ........ !"#....
9d011fa0:	ffffffff ffffffff ffffffff ffffffff     ................
9d011fb0:	ffffffff ffffffff ffffffff ffffffff     ................
9d011fc0:	ffffffff ffffffff ffffffff ffffffff     ................
9d011fd0:	ffffffff ffffffff ffffffff ffffffff     ................
9d011fe0:	ffffffff ffffffff ffffffff ffffffff     ................
9d011ff0:	ffffffff ffffffff ffffffff ffffffff     ................
9d012000:	ffffffff ffffffff ffffffff ffffffff     ................
9d012010:	ffffffff ffffffff ffffffff ffffffff     ................
9d012020:	000000ff                                ....

Disassembly of section .text:

9d012024 <dpfloor>:
9d012024:	3c018000 00a13024 00053840 00073d42     ...<$0..@8..B=..
9d012034:	240107ff 10e1002b 00000000 24090433     ...$+.......3..$
9d012044:	01273823 2ce10035 1420000b 00000000     #8'.5..,.. .....
9d012054:	04e00020 00000000 10c0002d 00000000      .......-.......
9d012064:	00054840 01244825 15200026 00000000     @H..%H$.&. .....
9d012074:	10000027 00000000                       '.......

9d01207c <i1>:
9d01207c:	10c00005 	beqz	a2,9d012094 <i3>
9d012080:	00000000 	nop
9d012084:	0004482b 	sltu	t1,zero,a0
9d012088:	00042023 	negu	a0,a0
9d01208c:	00052823 	negu	a1,a1
9d012090:	00a92823 	subu	a1,a1,t1

9d012094 <i3>:
9d012094:	30e9001f 	andi	t1,a3,0x1f
9d012098:	24080001 	li	t0,1
9d01209c:	01284004 	sllv	t0,t0,t1
9d0120a0:	00084023 	negu	t0,t0
9d0120a4:	2ce10020 	sltiu	at,a3,32
9d0120a8:	14200004 	bnez	at,9d0120bc <i4>
9d0120ac:	00000000 	nop
9d0120b0:	24040000 	li	a0,0
9d0120b4:	10000002 	b	9d0120c0 <e4>
9d0120b8:	00a82824 	and	a1,a1,t0

9d0120bc <i4>:
9d0120bc:	00882024 	and	a0,a0,t0

9d0120c0 <e4>:
9d0120c0:	10c00005 	beqz	a2,9d0120d8 <Aret>
9d0120c4:	00000000 	nop
9d0120c8:	0004482b 	sltu	t1,zero,a0
9d0120cc:	00042023 	negu	a0,a0
9d0120d0:	00052823 	negu	a1,a1
9d0120d4:	00a92823 	subu	a1,a1,t1

9d0120d8 <Aret>:
9d0120d8:	00041025 	or	v0,zero,a0
9d0120dc:	00051825 	or	v1,zero,a1

9d0120e0 <A999>:
9d0120e0:	03e00008 	jr	ra
9d0120e4:	00000000 	nop

9d0120e8 <Aspec>:
9d0120e8:	3c01000f 	lui	at,0xf
9d0120ec:	3421ffff 	ori	at,at,0xffff
9d0120f0:	00a14824 	and	t1,a1,at
9d0120f4:	01244825 	or	t1,t1,a0
9d0120f8:	15200009 	bnez	t1,9d012120 <Anan>
9d0120fc:	00000000 	nop
9d012100:	1000fff5 	b	9d0120d8 <Aret>
9d012104:	00000000 	nop

9d012108 <Amin1>:
9d012108:	3c05bff0 	lui	a1,0xbff0
9d01210c:	1000fff2 	b	9d0120d8 <Aret>
9d012110:	24040000 	li	a0,0

9d012114 <Azer>:
9d012114:	00062825 	or	a1,zero,a2
9d012118:	1000ffef 	b	9d0120d8 <Aret>
9d01211c:	24040000 	li	a0,0

9d012120 <Anan>:
9d012120:	3c05fff8 	lui	a1,0xfff8
9d012124:	1000ffec 	b	9d0120d8 <Aret>
9d012128:	24040000 	li	a0,0

Disassembly of section .text.__pad:

9d01212c <__pad>:
9d01212c:	27bdffc0 	addiu	sp,sp,-64
9d012130:	afb3002c 	sw	s3,44(sp)
9d012134:	8fb30050 	lw	s3,80(sp)
9d012138:	afb60038 	sw	s6,56(sp)
9d01213c:	afb40030 	sw	s4,48(sp)
9d012140:	32730001 	andi	s3,s3,0x1
9d012144:	afb20028 	sw	s2,40(sp)
9d012148:	afb10024 	sw	s1,36(sp)
9d01214c:	afb00020 	sw	s0,32(sp)
9d012150:	afbf003c 	sw	ra,60(sp)
9d012154:	afb50034 	sw	s5,52(sp)
9d012158:	00809025 	move	s2,a0
9d01215c:	00a0b025 	move	s6,a1
9d012160:	00c08025 	move	s0,a2
9d012164:	00e08825 	move	s1,a3
9d012168:	16600003 	bnez	s3,9d012178 <__pad+0x4c>
9d01216c:	00c7a02b 	sltu	s4,a2,a3
9d012170:	56800013 	bnezl	s4,9d0121c0 <__pad+0x94>
9d012174:	0230a023 	subu	s4,s1,s0
9d012178:	02003025 	move	a2,s0
9d01217c:	02c02825 	move	a1,s6
9d012180:	0f404d57 	jal	9d01355c <__out>
9d012184:	02402025 	move	a0,s2
9d012188:	1680000d 	bnez	s4,9d0121c0 <__pad+0x94>
9d01218c:	0230a023 	subu	s4,s1,s0
9d012190:	02008825 	move	s1,s0
9d012194:	8fbf003c 	lw	ra,60(sp)
9d012198:	02201025 	move	v0,s1
9d01219c:	8fb60038 	lw	s6,56(sp)
9d0121a0:	8fb50034 	lw	s5,52(sp)
9d0121a4:	8fb40030 	lw	s4,48(sp)
9d0121a8:	8fb3002c 	lw	s3,44(sp)
9d0121ac:	8fb20028 	lw	s2,40(sp)
9d0121b0:	8fb10024 	lw	s1,36(sp)
9d0121b4:	8fb00020 	lw	s0,32(sp)
9d0121b8:	03e00008 	jr	ra
9d0121bc:	27bd0040 	addiu	sp,sp,64
9d0121c0:	2e860011 	sltiu	a2,s4,17
9d0121c4:	24020010 	li	v0,16
9d0121c8:	0286100b 	movn	v0,s4,a2
9d0121cc:	00403025 	move	a2,v0
9d0121d0:	24050020 	li	a1,32
9d0121d4:	27a40010 	addiu	a0,sp,16
9d0121d8:	0f40533a 	jal	9d014ce8 <memset>
9d0121dc:	0280a825 	move	s5,s4
9d0121e0:	2ea20010 	sltiu	v0,s5,16
9d0121e4:	1040000b 	beqz	v0,9d012214 <__pad+0xe8>
9d0121e8:	3286000f 	andi	a2,s4,0xf
9d0121ec:	27a50010 	addiu	a1,sp,16
9d0121f0:	0f404d57 	jal	9d01355c <__out>
9d0121f4:	02402025 	move	a0,s2
9d0121f8:	1660ffe6 	bnez	s3,9d012194 <__pad+0x68>
9d0121fc:	02003025 	move	a2,s0
9d012200:	02c02825 	move	a1,s6
9d012204:	0f404d57 	jal	9d01355c <__out>
9d012208:	02402025 	move	a0,s2
9d01220c:	1000ffe2 	b	9d012198 <__pad+0x6c>
9d012210:	8fbf003c 	lw	ra,60(sp)
9d012214:	24060010 	li	a2,16
9d012218:	27a50010 	addiu	a1,sp,16
9d01221c:	0f404d57 	jal	9d01355c <__out>
9d012220:	02402025 	move	a0,s2
9d012224:	1000ffee 	b	9d0121e0 <__pad+0xb4>
9d012228:	26b5fff0 	addiu	s5,s5,-16

Disassembly of section .text.dptofp:

9d01222c <__truncdfsf2>:
9d01222c:	00053ac0 00045d42 00eb3825 000432c0     .:..B]..%8...2..
9d01223c:	3c018000 00e13825 3c018000 00a14824     ...<%8.....<$H..
9d01224c:	00054040 00084542 2508fc80 250bffff     @@..BE.....%...%
9d01225c:	2d6100fe 10200012 00000000              ..a-.. .....

9d012268 <Hlab1>:
9d012268:	10c00002 	beqz	a2,9d012274 <i45>
9d01226c:	00000000 	nop
9d012270:	34e70001 	ori	a3,a3,0x1

9d012274 <i45>:
9d012274:	24e70080 	addiu	a3,a3,128
9d012278:	2ceb0080 	sltiu	t3,a3,128
9d01227c:	010b4021 	addu	t0,t0,t3
9d012280:	00075a02 	srl	t3,a3,0x8
9d012284:	316b0001 	andi	t3,t3,0x1
9d012288:	00eb3823 	subu	a3,a3,t3
9d01228c:	00073840 	sll	a3,a3,0x1
9d012290:	00073a42 	srl	a3,a3,0x9
9d012294:	00085dc0 	sll	t3,t0,0x17
9d012298:	00eb3825 	or	a3,a3,t3
9d01229c:	00e91025 	or	v0,a3,t1

9d0122a0 <H999>:
9d0122a0:	03e00008 	jr	ra
9d0122a4:	00000000 	nop
9d0122a8:	00000000 	nop

9d0122ac <Hspec>:
9d0122ac:	2401047f 	li	at,1151
9d0122b0:	15010007 	bne	t0,at,9d0122d0 <i46>
9d0122b4:	00000000 	nop
9d0122b8:	00075840 	sll	t3,a3,0x1
9d0122bc:	01665825 	or	t3,t3,a2
9d0122c0:	11600003 	beqz	t3,9d0122d0 <i46>
9d0122c4:	00000000 	nop
9d0122c8:	1000fff5 	b	9d0122a0 <H999>
9d0122cc:	3c02ffc0 	lui	v0,0xffc0

9d0122d0 <i46>:
9d0122d0:	290100ff 	slti	at,t0,255
9d0122d4:	14200004 	bnez	at,9d0122e8 <i48>
9d0122d8:	00000000 	nop
9d0122dc:	3c017f80 	lui	at,0x7f80
9d0122e0:	1000ffef 	b	9d0122a0 <H999>
9d0122e4:	01211025 	or	v0,t1,at

9d0122e8 <i48>:
9d0122e8:	240a0001 	li	t2,1
9d0122ec:	01485023 	subu	t2,t2,t0
9d0122f0:	2d410020 	sltiu	at,t2,32
9d0122f4:	14200003 	bnez	at,9d012304 <i49>
9d0122f8:	00000000 	nop
9d0122fc:	1000ffe8 	b	9d0122a0 <H999>
9d012300:	00091025 	or	v0,zero,t1

9d012304 <i49>:
9d012304:	240c0020 	li	t4,32
9d012308:	018a6023 	subu	t4,t4,t2
9d01230c:	01875804 	sllv	t3,a3,t4
9d012310:	00cb3025 	or	a2,a2,t3
9d012314:	01473806 	srlv	a3,a3,t2
9d012318:	24080000 	li	t0,0
9d01231c:	3c018000 	lui	at,0x8000
9d012320:	1000ffd1 	b	9d012268 <Hlab1>
9d012324:	00e13825 	or	a3,a3,at
9d012328:	00000000 	nop

Disassembly of section .text.__fmt_o:

9d01232c <__fmt_o>:
9d01232c:	8ca20000 	lw	v0,0(a1)
9d012330:	8ca30004 	lw	v1,4(a1)
9d012334:	27bdffc0 	addiu	sp,sp,-64
9d012338:	afb30038 	sw	s3,56(sp)
9d01233c:	afb20034 	sw	s2,52(sp)
9d012340:	afb10030 	sw	s1,48(sp)
9d012344:	afb0002c 	sw	s0,44(sp)
9d012348:	afbf003c 	sw	ra,60(sp)
9d01234c:	00809025 	move	s2,a0
9d012350:	00a08025 	move	s0,a1
9d012354:	8cb30008 	lw	s3,8(a1)
9d012358:	afa20020 	sw	v0,32(sp)
9d01235c:	04600003 	bltz	v1,9d01236c <__fmt_o+0x40>
9d012360:	8cb1000c 	lw	s1,12(a1)
9d012364:	7c020844 	ins	v0,zero,0x1,0x1
9d012368:	afa20020 	sw	v0,32(sp)
9d01236c:	27a20020 	addiu	v0,sp,32
9d012370:	afa20018 	sw	v0,24(sp)
9d012374:	24020008 	li	v0,8
9d012378:	afa20014 	sw	v0,20(sp)
9d01237c:	afb30010 	sw	s3,16(sp)
9d012380:	8cc70004 	lw	a3,4(a2)
9d012384:	8cc60000 	lw	a2,0(a2)
9d012388:	0f4045bb 	jal	9d0116ec <__cvt_u>
9d01238c:	02002025 	move	a0,s0
9d012390:	8fa30020 	lw	v1,32(sp)
9d012394:	30630010 	andi	v1,v1,0x10
9d012398:	10600004 	beqz	v1,9d0123ac <__fmt_o+0x80>
9d01239c:	24040030 	li	a0,48
9d0123a0:	2442ffff 	addiu	v0,v0,-1
9d0123a4:	02221821 	addu	v1,s1,v0
9d0123a8:	a0640000 	sb	a0,0(v1)
9d0123ac:	8fa30020 	lw	v1,32(sp)
9d0123b0:	30630008 	andi	v1,v1,0x8
9d0123b4:	10600004 	beqz	v1,9d0123c8 <__fmt_o+0x9c>
9d0123b8:	24040020 	li	a0,32
9d0123bc:	2442ffff 	addiu	v0,v0,-1
9d0123c0:	02221821 	addu	v1,s1,v0
9d0123c4:	a0640000 	sb	a0,0(v1)
9d0123c8:	8e060010 	lw	a2,16(s0)
9d0123cc:	8fa30020 	lw	v1,32(sp)
9d0123d0:	02603825 	move	a3,s3
9d0123d4:	24c6ffff 	addiu	a2,a2,-1
9d0123d8:	afa30010 	sw	v1,16(sp)
9d0123dc:	00c23023 	subu	a2,a2,v0
9d0123e0:	02222821 	addu	a1,s1,v0
9d0123e4:	0f40484b 	jal	9d01212c <__pad>
9d0123e8:	02402025 	move	a0,s2
9d0123ec:	8e430004 	lw	v1,4(s2)
9d0123f0:	30630100 	andi	v1,v1,0x100
9d0123f4:	10600004 	beqz	v1,9d012408 <__fmt_o+0xdc>
9d0123f8:	8fbf003c 	lw	ra,60(sp)
9d0123fc:	8e030004 	lw	v1,4(s0)
9d012400:	0043202a 	slt	a0,v0,v1
9d012404:	0064100b 	movn	v0,v1,a0
9d012408:	8fb30038 	lw	s3,56(sp)
9d01240c:	8fb20034 	lw	s2,52(sp)
9d012410:	8fb10030 	lw	s1,48(sp)
9d012414:	8fb0002c 	lw	s0,44(sp)
9d012418:	03e00008 	jr	ra
9d01241c:	27bd0040 	addiu	sp,sp,64

Disassembly of section .text.scalbn:

9d012420 <scalbn>:
9d012420:	27bdffe0 	addiu	sp,sp,-32
9d012424:	afb10014 	sw	s1,20(sp)
9d012428:	00c08825 	move	s1,a2
9d01242c:	28c60400 	slti	a2,a2,1024
9d012430:	afbf001c 	sw	ra,28(sp)
9d012434:	afb20018 	sw	s2,24(sp)
9d012438:	14c0001f 	bnez	a2,9d0124b8 <scalbn+0x98>
9d01243c:	afb00010 	sw	s0,16(sp)
9d012440:	3c129d00 	lui	s2,0x9d00
9d012444:	8e467638 	lw	a2,30264(s2)
9d012448:	8e47763c 	lw	a3,30268(s2)
9d01244c:	0f403b8f 	jal	9d00ee3c <__muldf3>
9d012450:	2630fc01 	addiu	s0,s1,-1023
9d012454:	2a040400 	slti	a0,s0,1024
9d012458:	14800009 	bnez	a0,9d012480 <scalbn+0x60>
9d01245c:	8e467638 	lw	a2,30264(s2)
9d012460:	8e47763c 	lw	a3,30268(s2)
9d012464:	00402025 	move	a0,v0
9d012468:	00602825 	move	a1,v1
9d01246c:	0f403b8f 	jal	9d00ee3c <__muldf3>
9d012470:	2630f802 	addiu	s0,s1,-2046
9d012474:	2a050400 	slti	a1,s0,1024
9d012478:	240403ff 	li	a0,1023
9d01247c:	0085800a 	movz	s0,a0,a1
9d012480:	261003ff 	addiu	s0,s0,1023
9d012484:	00102500 	sll	a0,s0,0x14
9d012488:	00002825 	move	a1,zero
9d01248c:	00a03025 	move	a2,a1
9d012490:	00803825 	move	a3,a0
9d012494:	00602825 	move	a1,v1
9d012498:	0f403b8f 	jal	9d00ee3c <__muldf3>
9d01249c:	00402025 	move	a0,v0
9d0124a0:	8fbf001c 	lw	ra,28(sp)
9d0124a4:	8fb20018 	lw	s2,24(sp)
9d0124a8:	8fb10014 	lw	s1,20(sp)
9d0124ac:	8fb00010 	lw	s0,16(sp)
9d0124b0:	03e00008 	jr	ra
9d0124b4:	27bd0020 	addiu	sp,sp,32
9d0124b8:	2a26fc02 	slti	a2,s1,-1022
9d0124bc:	00801025 	move	v0,a0
9d0124c0:	00a01825 	move	v1,a1
9d0124c4:	10c0ffee 	beqz	a2,9d012480 <scalbn+0x60>
9d0124c8:	02208025 	move	s0,s1
9d0124cc:	3c129d00 	lui	s2,0x9d00
9d0124d0:	8e467640 	lw	a2,30272(s2)
9d0124d4:	8e477644 	lw	a3,30276(s2)
9d0124d8:	0f403b8f 	jal	9d00ee3c <__muldf3>
9d0124dc:	263003c9 	addiu	s0,s1,969
9d0124e0:	2a04fc02 	slti	a0,s0,-1022
9d0124e4:	1080ffe6 	beqz	a0,9d012480 <scalbn+0x60>
9d0124e8:	8e467640 	lw	a2,30272(s2)
9d0124ec:	8e477644 	lw	a3,30276(s2)
9d0124f0:	00402025 	move	a0,v0
9d0124f4:	00602825 	move	a1,v1
9d0124f8:	0f403b8f 	jal	9d00ee3c <__muldf3>
9d0124fc:	26300792 	addiu	s0,s1,1938
9d012500:	2a05fc02 	slti	a1,s0,-1022
9d012504:	2404fc02 	li	a0,-1022
9d012508:	1000ffdd 	b	9d012480 <scalbn+0x60>
9d01250c:	0085800b 	movn	s0,a0,a1

Disassembly of section .text.__pop_ptr:

9d012510 <__pop_ptr>:
9d012510:	24020084 	li	v0,132
9d012514:	50a20022 	beql	a1,v0,9d0125a0 <__pop_ptr+0x90>
9d012518:	8ce20000 	lw	v0,0(a3)
9d01251c:	28a20085 	slti	v0,a1,133
9d012520:	10400010 	beqz	v0,9d012564 <__pop_ptr+0x54>
9d012524:	24020081 	li	v0,129
9d012528:	50a20008 	beql	a1,v0,9d01254c <__pop_ptr+0x3c>
9d01252c:	8ce20000 	lw	v0,0(a3)
9d012530:	24020082 	li	v0,130
9d012534:	50a20027 	beql	a1,v0,9d0125d4 <__pop_ptr+0xc4>
9d012538:	8ce20000 	lw	v0,0(a3)
9d01253c:	24020080 	li	v0,128
9d012540:	14a20010 	bne	a1,v0,9d012584 <__pop_ptr+0x74>
9d012544:	00000000 	nop
9d012548:	8ce20000 	lw	v0,0(a3)
9d01254c:	24430004 	addiu	v1,v0,4
9d012550:	ace30000 	sw	v1,0(a3)
9d012554:	8c420000 	lw	v0,0(v0)
9d012558:	ac820000 	sw	v0,0(a0)
9d01255c:	10000015 	b	9d0125b4 <__pop_ptr+0xa4>
9d012560:	ac460000 	sw	a2,0(v0)
9d012564:	24020090 	li	v0,144
9d012568:	50a2001a 	beql	a1,v0,9d0125d4 <__pop_ptr+0xc4>
9d01256c:	8ce20000 	lw	v0,0(a3)
9d012570:	28a20091 	slti	v0,a1,145
9d012574:	10400005 	beqz	v0,9d01258c <__pop_ptr+0x7c>
9d012578:	24020088 	li	v0,136
9d01257c:	50a2000f 	beql	a1,v0,9d0125bc <__pop_ptr+0xac>
9d012580:	8ce20000 	lw	v0,0(a3)
9d012584:	03e00008 	jr	ra
9d012588:	00001025 	move	v0,zero
9d01258c:	240200a0 	li	v0,160
9d012590:	50a2ffee 	beql	a1,v0,9d01254c <__pop_ptr+0x3c>
9d012594:	8ce20000 	lw	v0,0(a3)
9d012598:	1000ffe9 	b	9d012540 <__pop_ptr+0x30>
9d01259c:	240200c0 	li	v0,192
9d0125a0:	24430004 	addiu	v1,v0,4
9d0125a4:	ace30000 	sw	v1,0(a3)
9d0125a8:	8c420000 	lw	v0,0(v0)
9d0125ac:	ac820000 	sw	v0,0(a0)
9d0125b0:	a4460000 	sh	a2,0(v0)
9d0125b4:	03e00008 	jr	ra
9d0125b8:	24020001 	li	v0,1
9d0125bc:	24430004 	addiu	v1,v0,4
9d0125c0:	ace30000 	sw	v1,0(a3)
9d0125c4:	8c420000 	lw	v0,0(v0)
9d0125c8:	ac820000 	sw	v0,0(a0)
9d0125cc:	1000fff9 	b	9d0125b4 <__pop_ptr+0xa4>
9d0125d0:	a0460000 	sb	a2,0(v0)
9d0125d4:	24430004 	addiu	v1,v0,4
9d0125d8:	ace30000 	sw	v1,0(a3)
9d0125dc:	8c420000 	lw	v0,0(v0)
9d0125e0:	ac820000 	sw	v0,0(a0)
9d0125e4:	ac460000 	sw	a2,0(v0)
9d0125e8:	000637c3 	sra	a2,a2,0x1f
9d0125ec:	1000fff1 	b	9d0125b4 <__pop_ptr+0xa4>
9d0125f0:	ac460004 	sw	a2,4(v0)

Disassembly of section .text.general_exception:

9d0125f4 <_general_exception_context>:
9d0125f4:	27bdffa8 	addiu	sp,sp,-88
9d0125f8:	afa10004 	sw	at,4(sp)
9d0125fc:	afa20008 	sw	v0,8(sp)
9d012600:	afa3000c 	sw	v1,12(sp)
9d012604:	afa40010 	sw	a0,16(sp)
9d012608:	afa50014 	sw	a1,20(sp)
9d01260c:	afa60018 	sw	a2,24(sp)
9d012610:	afa7001c 	sw	a3,28(sp)
9d012614:	afa80020 	sw	t0,32(sp)
9d012618:	afa90024 	sw	t1,36(sp)
9d01261c:	afaa0028 	sw	t2,40(sp)
9d012620:	afab002c 	sw	t3,44(sp)
9d012624:	afac0030 	sw	t4,48(sp)
9d012628:	afad0034 	sw	t5,52(sp)
9d01262c:	afae0038 	sw	t6,56(sp)
9d012630:	afaf003c 	sw	t7,60(sp)
9d012634:	afb80040 	sw	t8,64(sp)
9d012638:	afb90044 	sw	t9,68(sp)
9d01263c:	afbf0048 	sw	ra,72(sp)
9d012640:	00004012 	mflo	t0
9d012644:	afa8004c 	sw	t0,76(sp)
9d012648:	00004010 	mfhi	t0
9d01264c:	afa80050 	sw	t0,80(sp)
9d012650:	3c1a9d01 	lui	k0,0x9d01
9d012654:	275a44d4 	addiu	k0,k0,17620
9d012658:	00000000 	nop
9d01265c:	40046800 	mfc0	a0,c0_cause
9d012660:	40056000 	mfc0	a1,c0_status
9d012664:	0340f809 	jalr	k0
9d012668:	00000000 	nop
9d01266c:	8fa80050 	lw	t0,80(sp)
9d012670:	01000011 	mthi	t0
9d012674:	8fa8004c 	lw	t0,76(sp)
9d012678:	01000013 	mtlo	t0
9d01267c:	8fa10004 	lw	at,4(sp)
9d012680:	8fa20008 	lw	v0,8(sp)
9d012684:	8fa3000c 	lw	v1,12(sp)
9d012688:	8fa40010 	lw	a0,16(sp)
9d01268c:	8fa50014 	lw	a1,20(sp)
9d012690:	8fa60018 	lw	a2,24(sp)
9d012694:	8fa7001c 	lw	a3,28(sp)
9d012698:	8fa80020 	lw	t0,32(sp)
9d01269c:	8fa90024 	lw	t1,36(sp)
9d0126a0:	8faa0028 	lw	t2,40(sp)
9d0126a4:	8fab002c 	lw	t3,44(sp)
9d0126a8:	8fac0030 	lw	t4,48(sp)
9d0126ac:	8fad0034 	lw	t5,52(sp)
9d0126b0:	8fae0038 	lw	t6,56(sp)
9d0126b4:	8faf003c 	lw	t7,60(sp)
9d0126b8:	8fb80040 	lw	t8,64(sp)
9d0126bc:	8fb90044 	lw	t9,68(sp)
9d0126c0:	8fbf0048 	lw	ra,72(sp)
9d0126c4:	27bd0058 	addiu	sp,sp,88
9d0126c8:	000000c0 	ehb
9d0126cc:	42000018 	eret

Disassembly of section .text.__stdio_read:

9d0126d0 <__stdio_read>:
9d0126d0:	8c83000c 	lw	v1,12(a0)
9d0126d4:	27bdffd0 	addiu	sp,sp,-48
9d0126d8:	afb00020 	sw	s0,32(sp)
9d0126dc:	0003102b 	sltu	v0,zero,v1
9d0126e0:	00c21023 	subu	v0,a2,v0
9d0126e4:	00808025 	move	s0,a0
9d0126e8:	afa20014 	sw	v0,20(sp)
9d0126ec:	8c820008 	lw	v0,8(a0)
9d0126f0:	8c840000 	lw	a0,0(a0)
9d0126f4:	afb20028 	sw	s2,40(sp)
9d0126f8:	afb10024 	sw	s1,36(sp)
9d0126fc:	00a09025 	move	s2,a1
9d012700:	00c08825 	move	s1,a2
9d012704:	afa50010 	sw	a1,16(sp)
9d012708:	24060002 	li	a2,2
9d01270c:	27a50010 	addiu	a1,sp,16
9d012710:	afbf002c 	sw	ra,44(sp)
9d012714:	afa20018 	sw	v0,24(sp)
9d012718:	0f404ea3 	jal	9d013a8c <readv>
9d01271c:	afa3001c 	sw	v1,28(sp)
9d012720:	1c400007 	bgtz	v0,9d012740 <__stdio_read+0x70>
9d012724:	30430018 	andi	v1,v0,0x18
9d012728:	38640008 	xori	a0,v1,0x8
9d01272c:	8e030004 	lw	v1,4(s0)
9d012730:	00641825 	or	v1,v1,a0
9d012734:	ae030004 	sw	v1,4(s0)
9d012738:	10000011 	b	9d012780 <__stdio_read+0xb0>
9d01273c:	00408825 	move	s1,v0
9d012740:	8fa40014 	lw	a0,20(sp)
9d012744:	0082182b 	sltu	v1,a0,v0
9d012748:	5060000d 	beqzl	v1,9d012780 <__stdio_read+0xb0>
9d01274c:	00408825 	move	s1,v0
9d012750:	8e030008 	lw	v1,8(s0)
9d012754:	00441023 	subu	v0,v0,a0
9d012758:	00621021 	addu	v0,v1,v0
9d01275c:	ae020040 	sw	v0,64(s0)
9d012760:	8e02000c 	lw	v0,12(s0)
9d012764:	10400006 	beqz	v0,9d012780 <__stdio_read+0xb0>
9d012768:	ae03003c 	sw	v1,60(s0)
9d01276c:	24620001 	addiu	v0,v1,1
9d012770:	ae02003c 	sw	v0,60(s0)
9d012774:	90620000 	lbu	v0,0(v1)
9d012778:	02519021 	addu	s2,s2,s1
9d01277c:	a242ffff 	sb	v0,-1(s2)
9d012780:	8fbf002c 	lw	ra,44(sp)
9d012784:	02201025 	move	v0,s1
9d012788:	8fb20028 	lw	s2,40(sp)
9d01278c:	8fb10024 	lw	s1,36(sp)
9d012790:	8fb00020 	lw	s0,32(sp)
9d012794:	03e00008 	jr	ra
9d012798:	27bd0030 	addiu	sp,sp,48

Disassembly of section .text.__stdio_seek_rw:

9d01279c <__stdio_seek_rw>:
9d01279c:	27bdffe0 	addiu	sp,sp,-32
9d0127a0:	24020001 	li	v0,1
9d0127a4:	afb20018 	sw	s2,24(sp)
9d0127a8:	afb10014 	sw	s1,20(sp)
9d0127ac:	afb00010 	sw	s0,16(sp)
9d0127b0:	afbf001c 	sw	ra,28(sp)
9d0127b4:	00808025 	move	s0,a0
9d0127b8:	00c09025 	move	s2,a2
9d0127bc:	14c20005 	bne	a2,v0,9d0127d4 <__stdio_seek_rw+0x38>
9d0127c0:	00a08825 	move	s1,a1
9d0127c4:	8c820040 	lw	v0,64(a0)
9d0127c8:	8c83003c 	lw	v1,60(a0)
9d0127cc:	00431023 	subu	v0,v0,v1
9d0127d0:	00a28823 	subu	s1,a1,v0
9d0127d4:	8e020004 	lw	v0,4(s0)
9d0127d8:	30420020 	andi	v0,v0,0x20
9d0127dc:	1040000a 	beqz	v0,9d012808 <__stdio_seek_rw+0x6c>
9d0127e0:	02403025 	move	a2,s2
9d0127e4:	8e020014 	lw	v0,20(s0)
9d0127e8:	8e030018 	lw	v1,24(s0)
9d0127ec:	0062102b 	sltu	v0,v1,v0
9d0127f0:	5440000d 	bnezl	v0,9d012828 <__stdio_seek_rw+0x8c>
9d0127f4:	8e02002c 	lw	v0,44(s0)
9d0127f8:	ae000028 	sw	zero,40(s0)
9d0127fc:	ae000018 	sw	zero,24(s0)
9d012800:	ae000014 	sw	zero,20(s0)
9d012804:	02403025 	move	a2,s2
9d012808:	02202825 	move	a1,s1
9d01280c:	0f40516b 	jal	9d0145ac <__stdio_seek_unbuffered>
9d012810:	02002025 	move	a0,s0
9d012814:	0440000b 	bltz	v0,9d012844 <__stdio_seek_rw+0xa8>
9d012818:	00001025 	move	v0,zero
9d01281c:	ae000040 	sw	zero,64(s0)
9d012820:	10000009 	b	9d012848 <__stdio_seek_rw+0xac>
9d012824:	ae00003c 	sw	zero,60(s0)
9d012828:	00003025 	move	a2,zero
9d01282c:	00002825 	move	a1,zero
9d012830:	0040f809 	jalr	v0
9d012834:	02002025 	move	a0,s0
9d012838:	8e020014 	lw	v0,20(s0)
9d01283c:	5440ffef 	bnezl	v0,9d0127fc <__stdio_seek_rw+0x60>
9d012840:	ae000028 	sw	zero,40(s0)
9d012844:	2402ffff 	li	v0,-1
9d012848:	8fbf001c 	lw	ra,28(sp)
9d01284c:	8fb20018 	lw	s2,24(sp)
9d012850:	8fb10014 	lw	s1,20(sp)
9d012854:	8fb00010 	lw	s0,16(sp)
9d012858:	03e00008 	jr	ra
9d01285c:	27bd0020 	addiu	sp,sp,32

Disassembly of section .text.__stdio_close_rw:

9d012860 <__stdio_close_rw>:
9d012860:	14800003 	bnez	a0,9d012870 <__stdio_close_rw+0x10>
9d012864:	00001025 	move	v0,zero
9d012868:	03e00008 	jr	ra
9d01286c:	00000000 	nop
9d012870:	8c820004 	lw	v0,4(a0)
9d012874:	27bdffe0 	addiu	sp,sp,-32
9d012878:	afb10018 	sw	s1,24(sp)
9d01287c:	30420020 	andi	v0,v0,0x20
9d012880:	afb00014 	sw	s0,20(sp)
9d012884:	afbf001c 	sw	ra,28(sp)
9d012888:	00808025 	move	s0,a0
9d01288c:	10400009 	beqz	v0,9d0128b4 <__stdio_close_rw+0x54>
9d012890:	00a08825 	move	s1,a1
9d012894:	8c820014 	lw	v0,20(a0)
9d012898:	8c830018 	lw	v1,24(a0)
9d01289c:	0062102b 	sltu	v0,v1,v0
9d0128a0:	54400014 	bnezl	v0,9d0128f4 <__stdio_close_rw+0x94>
9d0128a4:	8c82002c 	lw	v0,44(a0)
9d0128a8:	ae000028 	sw	zero,40(s0)
9d0128ac:	ae000018 	sw	zero,24(s0)
9d0128b0:	ae000014 	sw	zero,20(s0)
9d0128b4:	8e05003c 	lw	a1,60(s0)
9d0128b8:	8e020040 	lw	v0,64(s0)
9d0128bc:	00a2182b 	sltu	v1,a1,v0
9d0128c0:	10600004 	beqz	v1,9d0128d4 <__stdio_close_rw+0x74>
9d0128c4:	24060001 	li	a2,1
9d0128c8:	8e040000 	lw	a0,0(s0)
9d0128cc:	0f40543a 	jal	9d0150e8 <lseek>
9d0128d0:	00a22823 	subu	a1,a1,v0
9d0128d4:	ae000040 	sw	zero,64(s0)
9d0128d8:	ae00003c 	sw	zero,60(s0)
9d0128dc:	1220000b 	beqz	s1,9d01290c <__stdio_close_rw+0xac>
9d0128e0:	00001025 	move	v0,zero
9d0128e4:	0f40543c 	jal	9d0150f0 <close>
9d0128e8:	8e040000 	lw	a0,0(s0)
9d0128ec:	10000008 	b	9d012910 <__stdio_close_rw+0xb0>
9d0128f0:	8fbf001c 	lw	ra,28(sp)
9d0128f4:	00003025 	move	a2,zero
9d0128f8:	0040f809 	jalr	v0
9d0128fc:	00002825 	move	a1,zero
9d012900:	8e030014 	lw	v1,20(s0)
9d012904:	1460ffe8 	bnez	v1,9d0128a8 <__stdio_close_rw+0x48>
9d012908:	2402ffff 	li	v0,-1
9d01290c:	8fbf001c 	lw	ra,28(sp)
9d012910:	8fb10018 	lw	s1,24(sp)
9d012914:	8fb00014 	lw	s0,20(sp)
9d012918:	03e00008 	jr	ra
9d01291c:	27bd0020 	addiu	sp,sp,32

Disassembly of section .text.__fmt_u:

9d012920 <__fmt_u>:
9d012920:	8ca20000 	lw	v0,0(a1)
9d012924:	8ca30004 	lw	v1,4(a1)
9d012928:	27bdffc0 	addiu	sp,sp,-64
9d01292c:	afb30038 	sw	s3,56(sp)
9d012930:	afb20034 	sw	s2,52(sp)
9d012934:	afb10030 	sw	s1,48(sp)
9d012938:	afb0002c 	sw	s0,44(sp)
9d01293c:	afbf003c 	sw	ra,60(sp)
9d012940:	00808825 	move	s1,a0
9d012944:	00a08025 	move	s0,a1
9d012948:	8cb20008 	lw	s2,8(a1)
9d01294c:	afa20020 	sw	v0,32(sp)
9d012950:	04600003 	bltz	v1,9d012960 <__fmt_u+0x40>
9d012954:	8cb3000c 	lw	s3,12(a1)
9d012958:	7c020844 	ins	v0,zero,0x1,0x1
9d01295c:	afa20020 	sw	v0,32(sp)
9d012960:	27a20020 	addiu	v0,sp,32
9d012964:	afa20018 	sw	v0,24(sp)
9d012968:	2402000a 	li	v0,10
9d01296c:	afa20014 	sw	v0,20(sp)
9d012970:	afb20010 	sw	s2,16(sp)
9d012974:	8cc70004 	lw	a3,4(a2)
9d012978:	8cc60000 	lw	a2,0(a2)
9d01297c:	0f4045bb 	jal	9d0116ec <__cvt_u>
9d012980:	02002025 	move	a0,s0
9d012984:	8e060010 	lw	a2,16(s0)
9d012988:	8fa30020 	lw	v1,32(sp)
9d01298c:	02403825 	move	a3,s2
9d012990:	24c6ffff 	addiu	a2,a2,-1
9d012994:	afa30010 	sw	v1,16(sp)
9d012998:	00c23023 	subu	a2,a2,v0
9d01299c:	02622821 	addu	a1,s3,v0
9d0129a0:	0f40484b 	jal	9d01212c <__pad>
9d0129a4:	02202025 	move	a0,s1
9d0129a8:	8e230004 	lw	v1,4(s1)
9d0129ac:	30630100 	andi	v1,v1,0x100
9d0129b0:	10600004 	beqz	v1,9d0129c4 <__fmt_u+0xa4>
9d0129b4:	8fbf003c 	lw	ra,60(sp)
9d0129b8:	8e030004 	lw	v1,4(s0)
9d0129bc:	0043202a 	slt	a0,v0,v1
9d0129c0:	0064100b 	movn	v0,v1,a0
9d0129c4:	8fb30038 	lw	s3,56(sp)
9d0129c8:	8fb20034 	lw	s2,52(sp)
9d0129cc:	8fb10030 	lw	s1,48(sp)
9d0129d0:	8fb0002c 	lw	s0,44(sp)
9d0129d4:	03e00008 	jr	ra
9d0129d8:	27bd0040 	addiu	sp,sp,64

Disassembly of section .text.strtox:

9d0129dc <strtox>:
9d0129dc:	27bdff78 	addiu	sp,sp,-136
9d0129e0:	afb20080 	sw	s2,128(sp)
9d0129e4:	afb1007c 	sw	s1,124(sp)
9d0129e8:	afb00078 	sw	s0,120(sp)
9d0129ec:	afbf0084 	sw	ra,132(sp)
9d0129f0:	00808025 	move	s0,a0
9d0129f4:	00a08825 	move	s1,a1
9d0129f8:	00c09025 	move	s2,a2
9d0129fc:	afa0001c 	sw	zero,28(sp)
9d012a00:	afa40054 	sw	a0,84(sp)
9d012a04:	afa40020 	sw	a0,32(sp)
9d012a08:	04800004 	bltz	a0,9d012a1c <strtox+0x40>
9d012a0c:	2402ffff 	li	v0,-1
9d012a10:	3c027fff 	lui	v0,0x7fff
9d012a14:	3442ffff 	ori	v0,v0,0xffff
9d012a18:	00821021 	addu	v0,a0,v0
9d012a1c:	00002825 	move	a1,zero
9d012a20:	27a40018 	addiu	a0,sp,24
9d012a24:	0f4052c7 	jal	9d014b1c <__shlim>
9d012a28:	afa20058 	sw	v0,88(sp)
9d012a2c:	8fa20098 	lw	v0,152(sp)
9d012a30:	8fa3009c 	lw	v1,156(sp)
9d012a34:	02402825 	move	a1,s2
9d012a38:	27a40018 	addiu	a0,sp,24
9d012a3c:	afa20010 	sw	v0,16(sp)
9d012a40:	afa30014 	sw	v1,20(sp)
9d012a44:	0f402e11 	jal	9d00b844 <__intscan>
9d012a48:	24060001 	li	a2,1
9d012a4c:	00402025 	move	a0,v0
9d012a50:	12200008 	beqz	s1,9d012a74 <strtox+0x98>
9d012a54:	00602825 	move	a1,v1
9d012a58:	8fa20058 	lw	v0,88(sp)
9d012a5c:	8fa30054 	lw	v1,84(sp)
9d012a60:	00621823 	subu	v1,v1,v0
9d012a64:	8fa2006c 	lw	v0,108(sp)
9d012a68:	00621821 	addu	v1,v1,v0
9d012a6c:	02038021 	addu	s0,s0,v1
9d012a70:	ae300000 	sw	s0,0(s1)
9d012a74:	8fbf0084 	lw	ra,132(sp)
9d012a78:	00801025 	move	v0,a0
9d012a7c:	00a01825 	move	v1,a1
9d012a80:	8fb20080 	lw	s2,128(sp)
9d012a84:	8fb1007c 	lw	s1,124(sp)
9d012a88:	8fb00078 	lw	s0,120(sp)
9d012a8c:	03e00008 	jr	ra
9d012a90:	27bd0088 	addiu	sp,sp,136

Disassembly of section .text.__shgetc:

9d012a94 <__shgetc>:
9d012a94:	8c820050 	lw	v0,80(a0)
9d012a98:	27bdffe8 	addiu	sp,sp,-24
9d012a9c:	afb00010 	sw	s0,16(sp)
9d012aa0:	afbf0014 	sw	ra,20(sp)
9d012aa4:	1040000b 	beqz	v0,9d012ad4 <__shgetc+0x40>
9d012aa8:	00808025 	move	s0,a0
9d012aac:	8c830054 	lw	v1,84(a0)
9d012ab0:	0062102a 	slt	v0,v1,v0
9d012ab4:	14400007 	bnez	v0,9d012ad4 <__shgetc+0x40>
9d012ab8:	00000000 	nop
9d012abc:	ae00004c 	sw	zero,76(s0)
9d012ac0:	2402ffff 	li	v0,-1
9d012ac4:	8fbf0014 	lw	ra,20(sp)
9d012ac8:	8fb00010 	lw	s0,16(sp)
9d012acc:	03e00008 	jr	ra
9d012ad0:	27bd0018 	addiu	sp,sp,24
9d012ad4:	0f4050c0 	jal	9d014300 <__uflow>
9d012ad8:	02002025 	move	a0,s0
9d012adc:	0442fff8 	bltzl	v0,9d012ac0 <__shgetc+0x2c>
9d012ae0:	ae00004c 	sw	zero,76(s0)
9d012ae4:	8e030040 	lw	v1,64(s0)
9d012ae8:	8e040050 	lw	a0,80(s0)
9d012aec:	8e05003c 	lw	a1,60(s0)
9d012af0:	10800009 	beqz	a0,9d012b18 <__shgetc+0x84>
9d012af4:	00603025 	move	a2,v1
9d012af8:	8e060054 	lw	a2,84(s0)
9d012afc:	00653823 	subu	a3,v1,a1
9d012b00:	00862023 	subu	a0,a0,a2
9d012b04:	00e4382a 	slt	a3,a3,a0
9d012b08:	14e00003 	bnez	a3,9d012b18 <__shgetc+0x84>
9d012b0c:	00603025 	move	a2,v1
9d012b10:	2484ffff 	addiu	a0,a0,-1
9d012b14:	00a43021 	addu	a2,a1,a0
9d012b18:	10600006 	beqz	v1,9d012b34 <__shgetc+0xa0>
9d012b1c:	ae06004c 	sw	a2,76(s0)
9d012b20:	8e040054 	lw	a0,84(s0)
9d012b24:	00651823 	subu	v1,v1,a1
9d012b28:	24630001 	addiu	v1,v1,1
9d012b2c:	00831821 	addu	v1,a0,v1
9d012b30:	ae030054 	sw	v1,84(s0)
9d012b34:	90a3ffff 	lbu	v1,-1(a1)
9d012b38:	5462ffe2 	bnel	v1,v0,9d012ac4 <__shgetc+0x30>
9d012b3c:	a0a2ffff 	sb	v0,-1(a1)
9d012b40:	1000ffe1 	b	9d012ac8 <__shgetc+0x34>
9d012b44:	8fbf0014 	lw	ra,20(sp)

Disassembly of section .text.__skipws:

9d012b48 <__skipws>:
9d012b48:	27bdffd8 	addiu	sp,sp,-40
9d012b4c:	afb30020 	sw	s3,32(sp)
9d012b50:	afb2001c 	sw	s2,28(sp)
9d012b54:	afb10018 	sw	s1,24(sp)
9d012b58:	afb00014 	sw	s0,20(sp)
9d012b5c:	afbf0024 	sw	ra,36(sp)
9d012b60:	00808025 	move	s0,a0
9d012b64:	00008825 	move	s1,zero
9d012b68:	2412ffff 	li	s2,-1
9d012b6c:	24130020 	li	s3,32
9d012b70:	8e02003c 	lw	v0,60(s0)
9d012b74:	8e03004c 	lw	v1,76(s0)
9d012b78:	0043182b 	sltu	v1,v0,v1
9d012b7c:	10600018 	beqz	v1,9d012be0 <__skipws+0x98>
9d012b80:	24430001 	addiu	v1,v0,1
9d012b84:	ae03003c 	sw	v1,60(s0)
9d012b88:	90420000 	lbu	v0,0(v0)
9d012b8c:	10530012 	beq	v0,s3,9d012bd8 <__skipws+0x90>
9d012b90:	2442fff7 	addiu	v0,v0,-9
9d012b94:	2c420005 	sltiu	v0,v0,5
9d012b98:	5440fff5 	bnezl	v0,9d012b70 <__skipws+0x28>
9d012b9c:	26310001 	addiu	s1,s1,1
9d012ba0:	8e02004c 	lw	v0,76(s0)
9d012ba4:	10400005 	beqz	v0,9d012bbc <__skipws+0x74>
9d012ba8:	8fbf0024 	lw	ra,36(sp)
9d012bac:	8e02003c 	lw	v0,60(s0)
9d012bb0:	2442ffff 	addiu	v0,v0,-1
9d012bb4:	ae02003c 	sw	v0,60(s0)
9d012bb8:	8fbf0024 	lw	ra,36(sp)
9d012bbc:	02201025 	move	v0,s1
9d012bc0:	8fb30020 	lw	s3,32(sp)
9d012bc4:	8fb2001c 	lw	s2,28(sp)
9d012bc8:	8fb10018 	lw	s1,24(sp)
9d012bcc:	8fb00014 	lw	s0,20(sp)
9d012bd0:	03e00008 	jr	ra
9d012bd4:	27bd0028 	addiu	sp,sp,40
9d012bd8:	1000ffe5 	b	9d012b70 <__skipws+0x28>
9d012bdc:	26310001 	addiu	s1,s1,1
9d012be0:	0f404aa5 	jal	9d012a94 <__shgetc>
9d012be4:	02002025 	move	a0,s0
9d012be8:	1452ffe8 	bne	v0,s2,9d012b8c <__skipws+0x44>
9d012bec:	8fbf0024 	lw	ra,36(sp)
9d012bf0:	1000fff3 	b	9d012bc0 <__skipws+0x78>
9d012bf4:	02201025 	move	v0,s1

Disassembly of section .text._sbrk:

9d012bf8 <_sbrk>:
9d012bf8:	27bdffe0 	addiu	sp,sp,-32
9d012bfc:	afb00014 	sw	s0,20(sp)
9d012c00:	3c10a001 	lui	s0,0xa001
9d012c04:	8e02a36c 	lw	v0,-23700(s0)
9d012c08:	afb10018 	sw	s1,24(sp)
9d012c0c:	afbf001c 	sw	ra,28(sp)
9d012c10:	1440000f 	bnez	v0,9d012c50 <_sbrk+0x58>
9d012c14:	00808825 	move	s1,a0
9d012c18:	0f4044be 	jal	9d0112f8 <_sbrk_init>
9d012c1c:	00000000 	nop
9d012c20:	8e02a36c 	lw	v0,-23700(s0)
9d012c24:	1440000b 	bnez	v0,9d012c54 <_sbrk+0x5c>
9d012c28:	00000000 	nop
9d012c2c:	3c02a001 	lui	v0,0xa001
9d012c30:	2403000c 	li	v1,12
9d012c34:	ac43a378 	sw	v1,-23688(v0)
9d012c38:	2402ffff 	li	v0,-1
9d012c3c:	8fbf001c 	lw	ra,28(sp)
9d012c40:	8fb10018 	lw	s1,24(sp)
9d012c44:	8fb00014 	lw	s0,20(sp)
9d012c48:	03e00008 	jr	ra
9d012c4c:	27bd0020 	addiu	sp,sp,32
9d012c50:	8e02a36c 	lw	v0,-23700(s0)
9d012c54:	1a20000a 	blez	s1,9d012c80 <_sbrk+0x88>
9d012c58:	00511821 	addu	v1,v0,s1
9d012c5c:	0062202b 	sltu	a0,v1,v0
9d012c60:	1480fff2 	bnez	a0,9d012c2c <_sbrk+0x34>
9d012c64:	3c04a001 	lui	a0,0xa001
9d012c68:	8c84a370 	lw	a0,-23696(a0)
9d012c6c:	0083202b 	sltu	a0,a0,v1
9d012c70:	5480ffef 	bnezl	a0,9d012c30 <_sbrk+0x38>
9d012c74:	3c02a001 	lui	v0,0xa001
9d012c78:	1000fff0 	b	9d012c3c <_sbrk+0x44>
9d012c7c:	ae03a36c 	sw	v1,-23700(s0)
9d012c80:	0043202b 	sltu	a0,v0,v1
9d012c84:	14800005 	bnez	a0,9d012c9c <_sbrk+0xa4>
9d012c88:	3c04a001 	lui	a0,0xa001
9d012c8c:	8c84a374 	lw	a0,-23692(a0)
9d012c90:	0064202b 	sltu	a0,v1,a0
9d012c94:	5080ffe9 	beqzl	a0,9d012c3c <_sbrk+0x44>
9d012c98:	ae03a36c 	sw	v1,-23700(s0)
9d012c9c:	3c02a001 	lui	v0,0xa001
9d012ca0:	1000ffe4 	b	9d012c34 <_sbrk+0x3c>
9d012ca4:	24030016 	li	v1,22

Disassembly of section .text.unbin:

9d012ca8 <unbin>:
9d012ca8:	27bdffe0 	addiu	sp,sp,-32
9d012cac:	afb20018 	sw	s2,24(sp)
9d012cb0:	afb10014 	sw	s1,20(sp)
9d012cb4:	8c92000c 	lw	s2,12(a0)
9d012cb8:	8c910008 	lw	s1,8(a0)
9d012cbc:	afb00010 	sw	s0,16(sp)
9d012cc0:	afbf001c 	sw	ra,28(sp)
9d012cc4:	16510013 	bne	s2,s1,9d012d14 <unbin+0x6c>
9d012cc8:	00808025 	move	s0,a0
9d012ccc:	00a03025 	move	a2,a1
9d012cd0:	24040001 	li	a0,1
9d012cd4:	0f405229 	jal	9d0148a4 <__ashldi3>
9d012cd8:	00002825 	move	a1,zero
9d012cdc:	00031827 	nor	v1,zero,v1
9d012ce0:	10400005 	beqz	v0,9d012cf8 <unbin+0x50>
9d012ce4:	00022827 	nor	a1,zero,v0
9d012ce8:	3c04a001 	lui	a0,0xa001
9d012cec:	8c82a098 	lw	v0,-24424(a0)
9d012cf0:	00451024 	and	v0,v0,a1
9d012cf4:	ac82a098 	sw	v0,-24424(a0)
9d012cf8:	2402ffff 	li	v0,-1
9d012cfc:	10620005 	beq	v1,v0,9d012d14 <unbin+0x6c>
9d012d00:	3c02a001 	lui	v0,0xa001
9d012d04:	2442a098 	addiu	v0,v0,-24424
9d012d08:	8c440004 	lw	a0,4(v0)
9d012d0c:	00641824 	and	v1,v1,a0
9d012d10:	ac430004 	sw	v1,4(v0)
9d012d14:	8e020004 	lw	v0,4(s0)
9d012d18:	ae510008 	sw	s1,8(s2)
9d012d1c:	ae32000c 	sw	s2,12(s1)
9d012d20:	34430001 	ori	v1,v0,0x1
9d012d24:	7c020004 	ins	v0,zero,0x0,0x1
9d012d28:	ae030004 	sw	v1,4(s0)
9d012d2c:	02028021 	addu	s0,s0,v0
9d012d30:	8e020000 	lw	v0,0(s0)
9d012d34:	8fbf001c 	lw	ra,28(sp)
9d012d38:	8fb20018 	lw	s2,24(sp)
9d012d3c:	34420001 	ori	v0,v0,0x1
9d012d40:	ae020000 	sw	v0,0(s0)
9d012d44:	8fb10014 	lw	s1,20(sp)
9d012d48:	8fb00010 	lw	s0,16(sp)
9d012d4c:	03e00008 	jr	ra
9d012d50:	27bd0020 	addiu	sp,sp,32

Disassembly of section .text.fptodp:

9d012d54 <__extendsfdf2>:
9d012d54:	00043dc2 30e700ff 3c018000 00813024     .=.....0...<$0..
9d012d64:	24e9ffff 2d2100fe 1020000d 00000000     ...$..!-.. .....

9d012d74 <Glab1>:
9d012d74:	24e70380 	addiu	a3,a3,896
9d012d78:	00044a40 	sll	t1,a0,0x9
9d012d7c:	00094b02 	srl	t1,t1,0xc
9d012d80:	00c93025 	or	a2,a2,t1
9d012d84:	00042f40 	sll	a1,a0,0x1d

9d012d88 <Gret>:
9d012d88:	00074d00 	sll	t1,a3,0x14
9d012d8c:	00c93025 	or	a2,a2,t1
9d012d90:	00051025 	or	v0,zero,a1
9d012d94:	00061825 	or	v1,zero,a2

9d012d98 <G999>:
9d012d98:	03e00008 	jr	ra
9d012d9c:	00000000 	nop
9d012da0:	00000000 	nop

9d012da4 <Gspec>:
9d012da4:	24050000 	li	a1,0
9d012da8:	00842021 	addu	a0,a0,a0
9d012dac:	1080fff6 	beqz	a0,9d012d88 <Gret>
9d012db0:	00000000 	nop
9d012db4:	14e00009 	bnez	a3,9d012ddc <i42>
9d012db8:	00000000 	nop

9d012dbc <b43>:
9d012dbc:	24e7ffff 	addiu	a3,a3,-1
9d012dc0:	00842021 	addu	a0,a0,a0
9d012dc4:	3c010080 	lui	at,0x80
9d012dc8:	0081082b 	sltu	at,a0,at
9d012dcc:	1420fffb 	bnez	at,9d012dbc <b43>
9d012dd0:	00000000 	nop
9d012dd4:	1000ffe7 	b	9d012d74 <Glab1>
9d012dd8:	00000000 	nop

9d012ddc <i42>:
9d012ddc:	240707ff 	li	a3,2047
9d012de0:	3c01ff00 	lui	at,0xff00
9d012de4:	34210001 	ori	at,at,0x1
9d012de8:	0081082b 	sltu	at,a0,at
9d012dec:	1420ffe6 	bnez	at,9d012d88 <Gret>
9d012df0:	00000000 	nop
9d012df4:	1000ffe4 	b	9d012d88 <Gret>
9d012df8:	3c06fff8 	lui	a2,0xfff8
9d012dfc:	00000000 	nop

Disassembly of section .text.__push_float:

9d012e00 <__push_float>:
9d012e00:	24020081 	li	v0,129
9d012e04:	50a20012 	beql	a1,v0,9d012e50 <__push_float+0x50>
9d012e08:	8cc20000 	lw	v0,0(a2)
9d012e0c:	24020083 	li	v0,131
9d012e10:	50a20006 	beql	a1,v0,9d012e2c <__push_float+0x2c>
9d012e14:	8cc20000 	lw	v0,0(a2)
9d012e18:	24020080 	li	v0,128
9d012e1c:	10a20012 	beq	a1,v0,9d012e68 <__push_float+0x68>
9d012e20:	00001025 	move	v0,zero
9d012e24:	03e00008 	jr	ra
9d012e28:	00000000 	nop
9d012e2c:	24430004 	addiu	v1,v0,4
9d012e30:	acc30000 	sw	v1,0(a2)
9d012e34:	8c850004 	lw	a1,4(a0)
9d012e38:	8c420000 	lw	v0,0(v0)
9d012e3c:	8c840000 	lw	a0,0(a0)
9d012e40:	ac440000 	sw	a0,0(v0)
9d012e44:	ac450004 	sw	a1,4(v0)
9d012e48:	03e00008 	jr	ra
9d012e4c:	24020001 	li	v0,1
9d012e50:	24430004 	addiu	v1,v0,4
9d012e54:	acc30000 	sw	v1,0(a2)
9d012e58:	8c850004 	lw	a1,4(a0)
9d012e5c:	8c420000 	lw	v0,0(v0)
9d012e60:	1000fff7 	b	9d012e40 <__push_float+0x40>
9d012e64:	8c840000 	lw	a0,0(a0)
9d012e68:	8cc20000 	lw	v0,0(a2)
9d012e6c:	8c850004 	lw	a1,4(a0)
9d012e70:	8c840000 	lw	a0,0(a0)
9d012e74:	24430004 	addiu	v1,v0,4
9d012e78:	27bdffe8 	addiu	sp,sp,-24
9d012e7c:	acc30000 	sw	v1,0(a2)
9d012e80:	afb00010 	sw	s0,16(sp)
9d012e84:	afbf0014 	sw	ra,20(sp)
9d012e88:	0f40488b 	jal	9d01222c <__truncdfsf2>
9d012e8c:	8c500000 	lw	s0,0(v0)
9d012e90:	8fbf0014 	lw	ra,20(sp)
9d012e94:	ae020000 	sw	v0,0(s0)
9d012e98:	24020001 	li	v0,1
9d012e9c:	8fb00010 	lw	s0,16(sp)
9d012ea0:	03e00008 	jr	ra
9d012ea4:	27bd0018 	addiu	sp,sp,24

Disassembly of section .text.normalize:

9d012ea8 <normalize>:
9d012ea8:	27bdffe0 	addiu	sp,sp,-32
9d012eac:	afb10018 	sw	s1,24(sp)
9d012eb0:	00078d02 	srl	s1,a3,0x14
9d012eb4:	322507ff 	andi	a1,s1,0x7ff
9d012eb8:	afb00014 	sw	s0,20(sp)
9d012ebc:	afbf001c 	sw	ra,28(sp)
9d012ec0:	00808025 	move	s0,a0
9d012ec4:	00c01025 	move	v0,a2
9d012ec8:	14a0000e 	bnez	a1,9d012f04 <normalize+0x5c>
9d012ecc:	00e02025 	move	a0,a3
9d012ed0:	3c029d00 	lui	v0,0x9d00
9d012ed4:	00c04025 	move	t0,a2
9d012ed8:	00e01825 	move	v1,a3
9d012edc:	8c467618 	lw	a2,30232(v0)
9d012ee0:	8c47761c 	lw	a3,30236(v0)
9d012ee4:	01002025 	move	a0,t0
9d012ee8:	0f403b8f 	jal	9d00ee3c <__muldf3>
9d012eec:	00602825 	move	a1,v1
9d012ef0:	00602025 	move	a0,v1
9d012ef4:	7c635500 	ext	v1,v1,0x14,0xb
9d012ef8:	10600002 	beqz	v1,9d012f04 <normalize+0x5c>
9d012efc:	24050800 	li	a1,2048
9d012f00:	2465ffc1 	addiu	a1,v1,-63
9d012f04:	000237c2 	srl	a2,v0,0x1f
9d012f08:	00041840 	sll	v1,a0,0x1
9d012f0c:	00021040 	sll	v0,v0,0x1
9d012f10:	00c31825 	or	v1,a2,v1
9d012f14:	8fbf001c 	lw	ra,28(sp)
9d012f18:	ae020000 	sw	v0,0(s0)
9d012f1c:	7c63a000 	ext	v1,v1,0x0,0x15
9d012f20:	3c020020 	lui	v0,0x20
9d012f24:	00431825 	or	v1,v0,v1
9d012f28:	32310800 	andi	s1,s1,0x800
9d012f2c:	24a5fbcc 	addiu	a1,a1,-1076
9d012f30:	ae11000c 	sw	s1,12(s0)
9d012f34:	02001025 	move	v0,s0
9d012f38:	ae030004 	sw	v1,4(s0)
9d012f3c:	ae050008 	sw	a1,8(s0)
9d012f40:	8fb10018 	lw	s1,24(sp)
9d012f44:	8fb00014 	lw	s0,20(sp)
9d012f48:	03e00008 	jr	ra
9d012f4c:	27bd0020 	addiu	sp,sp,32

Disassembly of section .text.__fmt_s:

9d012f50 <__fmt_s>:
9d012f50:	3c036c75 	lui	v1,0x6c75
9d012f54:	27bdffc8 	addiu	sp,sp,-56
9d012f58:	24636e28 	addiu	v1,v1,28200
9d012f5c:	afa30018 	sw	v1,24(sp)
9d012f60:	2403296c 	li	v1,10604
9d012f64:	afb20028 	sw	s2,40(sp)
9d012f68:	afb00020 	sw	s0,32(sp)
9d012f6c:	afbf0034 	sw	ra,52(sp)
9d012f70:	afb40030 	sw	s4,48(sp)
9d012f74:	afb3002c 	sw	s3,44(sp)
9d012f78:	afb10024 	sw	s1,36(sp)
9d012f7c:	00809025 	move	s2,a0
9d012f80:	00e01025 	move	v0,a3
9d012f84:	a7a3001c 	sh	v1,28(sp)
9d012f88:	a3a0001e 	sb	zero,30(sp)
9d012f8c:	10c00002 	beqz	a2,9d012f98 <__fmt_s+0x48>
9d012f90:	27b00018 	addiu	s0,sp,24
9d012f94:	00c08025 	move	s0,a2
9d012f98:	8cb10004 	lw	s1,4(a1)
9d012f9c:	8cb30008 	lw	s3,8(a1)
9d012fa0:	14400003 	bnez	v0,9d012fb0 <__fmt_s+0x60>
9d012fa4:	8cb40000 	lw	s4,0(a1)
9d012fa8:	0f405402 	jal	9d015008 <strlen>
9d012fac:	02002025 	move	a0,s0
9d012fb0:	06200002 	bltz	s1,9d012fbc <__fmt_s+0x6c>
9d012fb4:	0222182b 	sltu	v1,s1,v0
9d012fb8:	0223100b 	movn	v0,s1,v1
9d012fbc:	afb40010 	sw	s4,16(sp)
9d012fc0:	02603825 	move	a3,s3
9d012fc4:	02002825 	move	a1,s0
9d012fc8:	02402025 	move	a0,s2
9d012fcc:	0f40484b 	jal	9d01212c <__pad>
9d012fd0:	00403025 	move	a2,v0
9d012fd4:	8fbf0034 	lw	ra,52(sp)
9d012fd8:	8fb40030 	lw	s4,48(sp)
9d012fdc:	8fb3002c 	lw	s3,44(sp)
9d012fe0:	8fb20028 	lw	s2,40(sp)
9d012fe4:	8fb10024 	lw	s1,36(sp)
9d012fe8:	8fb00020 	lw	s0,32(sp)
9d012fec:	03e00008 	jr	ra
9d012ff0:	27bd0038 	addiu	sp,sp,56

Disassembly of section .text.strtox:

9d012ff4 <strtox>:
9d012ff4:	27bdff80 	addiu	sp,sp,-128
9d012ff8:	afb20078 	sw	s2,120(sp)
9d012ffc:	afb10074 	sw	s1,116(sp)
9d013000:	afb00070 	sw	s0,112(sp)
9d013004:	00c09025 	move	s2,a2
9d013008:	00808025 	move	s0,a0
9d01300c:	24060060 	li	a2,96
9d013010:	27a40010 	addiu	a0,sp,16
9d013014:	00a08825 	move	s1,a1
9d013018:	afbf007c 	sw	ra,124(sp)
9d01301c:	0f40533a 	jal	9d014ce8 <memset>
9d013020:	00002825 	move	a1,zero
9d013024:	2402ffff 	li	v0,-1
9d013028:	00002825 	move	a1,zero
9d01302c:	27a40010 	addiu	a0,sp,16
9d013030:	afa20050 	sw	v0,80(sp)
9d013034:	afb00018 	sw	s0,24(sp)
9d013038:	0f4052c7 	jal	9d014b1c <__shlim>
9d01303c:	afb0004c 	sw	s0,76(sp)
9d013040:	02402825 	move	a1,s2
9d013044:	27a40010 	addiu	a0,sp,16
9d013048:	0f4020f6 	jal	9d0083d8 <__floatscan>
9d01304c:	24060001 	li	a2,1
9d013050:	00402025 	move	a0,v0
9d013054:	12200008 	beqz	s1,9d013078 <strtox+0x84>
9d013058:	00602825 	move	a1,v1
9d01305c:	8fa20050 	lw	v0,80(sp)
9d013060:	8fa3004c 	lw	v1,76(sp)
9d013064:	00621823 	subu	v1,v1,v0
9d013068:	8fa20064 	lw	v0,100(sp)
9d01306c:	00621821 	addu	v1,v1,v0
9d013070:	02038021 	addu	s0,s0,v1
9d013074:	ae300000 	sw	s0,0(s1)
9d013078:	8fbf007c 	lw	ra,124(sp)
9d01307c:	00801025 	move	v0,a0
9d013080:	00a01825 	move	v1,a1
9d013084:	8fb20078 	lw	s2,120(sp)
9d013088:	8fb10074 	lw	s1,116(sp)
9d01308c:	8fb00070 	lw	s0,112(sp)
9d013090:	03e00008 	jr	ra
9d013094:	27bd0080 	addiu	sp,sp,128

Disassembly of section .text.__string_read:

9d013098 <__string_read>:
9d013098:	27bdffd0 	addiu	sp,sp,-48
9d01309c:	afb00014 	sw	s0,20(sp)
9d0130a0:	8c900038 	lw	s0,56(a0)
9d0130a4:	afb2001c 	sw	s2,28(sp)
9d0130a8:	24d20100 	addiu	s2,a2,256
9d0130ac:	afb50028 	sw	s5,40(sp)
9d0130b0:	afb40024 	sw	s4,36(sp)
9d0130b4:	afb30020 	sw	s3,32(sp)
9d0130b8:	00a0a825 	move	s5,a1
9d0130bc:	00809825 	move	s3,a0
9d0130c0:	00c0a025 	move	s4,a2
9d0130c4:	00002825 	move	a1,zero
9d0130c8:	02403025 	move	a2,s2
9d0130cc:	02002025 	move	a0,s0
9d0130d0:	afbf002c 	sw	ra,44(sp)
9d0130d4:	0f40526d 	jal	9d0149b4 <memchr>
9d0130d8:	afb10018 	sw	s1,24(sp)
9d0130dc:	54400001 	bnezl	v0,9d0130e4 <__string_read+0x4c>
9d0130e0:	00509023 	subu	s2,v0,s0
9d0130e4:	0292882b 	sltu	s1,s4,s2
9d0130e8:	0251a00a 	movz	s4,s2,s1
9d0130ec:	02803025 	move	a2,s4
9d0130f0:	02002825 	move	a1,s0
9d0130f4:	0f4052b1 	jal	9d014ac4 <memcpy>
9d0130f8:	02a02025 	move	a0,s5
9d0130fc:	8fbf002c 	lw	ra,44(sp)
9d013100:	02141021 	addu	v0,s0,s4
9d013104:	02128021 	addu	s0,s0,s2
9d013108:	ae62003c 	sw	v0,60(s3)
9d01310c:	ae700040 	sw	s0,64(s3)
9d013110:	ae700038 	sw	s0,56(s3)
9d013114:	02801025 	move	v0,s4
9d013118:	8fb50028 	lw	s5,40(sp)
9d01311c:	8fb40024 	lw	s4,36(sp)
9d013120:	8fb30020 	lw	s3,32(sp)
9d013124:	8fb2001c 	lw	s2,28(sp)
9d013128:	8fb10018 	lw	s1,24(sp)
9d01312c:	8fb00014 	lw	s0,20(sp)
9d013130:	03e00008 	jr	ra
9d013134:	27bd0030 	addiu	sp,sp,48

Disassembly of section .text.__stdio_close:

9d013138 <__stdio_close>:
9d013138:	14800003 	bnez	a0,9d013148 <__stdio_close+0x10>
9d01313c:	00001025 	move	v0,zero
9d013140:	03e00008 	jr	ra
9d013144:	00000000 	nop
9d013148:	8c820004 	lw	v0,4(a0)
9d01314c:	27bdffe0 	addiu	sp,sp,-32
9d013150:	afb10018 	sw	s1,24(sp)
9d013154:	30420020 	andi	v0,v0,0x20
9d013158:	afb00014 	sw	s0,20(sp)
9d01315c:	afbf001c 	sw	ra,28(sp)
9d013160:	00808025 	move	s0,a0
9d013164:	1440000b 	bnez	v0,9d013194 <__stdio_close+0x5c>
9d013168:	00a08825 	move	s1,a1
9d01316c:	ae000028 	sw	zero,40(s0)
9d013170:	ae000018 	sw	zero,24(s0)
9d013174:	16200014 	bnez	s1,9d0131c8 <__stdio_close+0x90>
9d013178:	ae000014 	sw	zero,20(s0)
9d01317c:	00001025 	move	v0,zero
9d013180:	8fbf001c 	lw	ra,28(sp)
9d013184:	8fb10018 	lw	s1,24(sp)
9d013188:	8fb00014 	lw	s0,20(sp)
9d01318c:	03e00008 	jr	ra
9d013190:	27bd0020 	addiu	sp,sp,32
9d013194:	8c820014 	lw	v0,20(a0)
9d013198:	8c830018 	lw	v1,24(a0)
9d01319c:	0062102b 	sltu	v0,v1,v0
9d0131a0:	1040fff2 	beqz	v0,9d01316c <__stdio_close+0x34>
9d0131a4:	00003025 	move	a2,zero
9d0131a8:	8c82002c 	lw	v0,44(a0)
9d0131ac:	0040f809 	jalr	v0
9d0131b0:	00002825 	move	a1,zero
9d0131b4:	8e030014 	lw	v1,20(s0)
9d0131b8:	1060fff1 	beqz	v1,9d013180 <__stdio_close+0x48>
9d0131bc:	2402ffff 	li	v0,-1
9d0131c0:	1000ffeb 	b	9d013170 <__stdio_close+0x38>
9d0131c4:	ae000028 	sw	zero,40(s0)
9d0131c8:	0f40543c 	jal	9d0150f0 <close>
9d0131cc:	8e040000 	lw	a0,0(s0)
9d0131d0:	1000ffec 	b	9d013184 <__stdio_close+0x4c>
9d0131d4:	8fbf001c 	lw	ra,28(sp)

Disassembly of section .text.fpcmp:

9d0131d8 <__eqsf2>:
9d0131d8:	2408fffe 00043040 00053840 00c74825     ...$@0..@8..%H..
9d0131e8:	1120001b 00000000 3c01ff00 34210001     .. ........<..!4
9d0131f8:	00c1082b 1020001a 00000000 3c01ff00     +..... ........<
9d013208:	34210001 00e1082b 10200015 00000000     ..!4+..... .....
9d013218:	04810002 00063042 00063023              ....B0..#0..

9d013224 <i48>:
9d013224:	04a10002 	bgez	a1,9d013230 <i49>
9d013228:	00073842 	srl	a3,a3,0x1
9d01322c:	00073823 	negu	a3,a3

9d013230 <i49>:
9d013230:	00c7082a 	slt	at,a2,a3
9d013234:	10200003 	beqz	at,9d013244 <i50>
9d013238:	00000000 	nop
9d01323c:	10000007 	b	9d01325c <J999>
9d013240:	2402ffff 	li	v0,-1

9d013244 <i50>:
9d013244:	00e6082a 	slt	at,a3,a2
9d013248:	10200003 	beqz	at,9d013258 <Jequ>
9d01324c:	00000000 	nop
9d013250:	10000002 	b	9d01325c <J999>
9d013254:	24020001 	li	v0,1

9d013258 <Jequ>:
9d013258:	24020000 	li	v0,0

9d01325c <J999>:
9d01325c:	03e00008 	jr	ra
9d013260:	00000000 	nop
9d013264:	00000000 	nop

9d013268 <Jnan>:
9d013268:	1000fffc 	b	9d01325c <J999>
9d01326c:	00081025 	or	v0,zero,t0
9d013270:	00000000 	nop

Disassembly of section .text.fpcmplt:

9d013274 <fpcmplt>:
9d013274:	2408fffe 	li	t0,-2
9d013278:	00043040 	sll	a2,a0,0x1
9d01327c:	00053840 	sll	a3,a1,0x1
9d013280:	00c74825 	or	t1,a2,a3
9d013284:	1120001b 	beqz	t1,9d0132f4 <fpcmplt+0x80>
9d013288:	00000000 	nop
9d01328c:	3c01ff00 	lui	at,0xff00
9d013290:	34210001 	ori	at,at,0x1
9d013294:	00c1082b 	sltu	at,a2,at
9d013298:	1020001a 	beqz	at,9d013304 <fpcmplt+0x90>
9d01329c:	00000000 	nop
9d0132a0:	3c01ff00 	lui	at,0xff00
9d0132a4:	34210001 	ori	at,at,0x1
9d0132a8:	00e1082b 	sltu	at,a3,at
9d0132ac:	10200015 	beqz	at,9d013304 <fpcmplt+0x90>
9d0132b0:	00000000 	nop
9d0132b4:	04810002 	bgez	a0,9d0132c0 <fpcmplt+0x4c>
9d0132b8:	00063042 	srl	a2,a2,0x1
9d0132bc:	00063023 	negu	a2,a2
9d0132c0:	04a10002 	bgez	a1,9d0132cc <fpcmplt+0x58>
9d0132c4:	00073842 	srl	a3,a3,0x1
9d0132c8:	00073823 	negu	a3,a3
9d0132cc:	00c7082a 	slt	at,a2,a3
9d0132d0:	10200003 	beqz	at,9d0132e0 <fpcmplt+0x6c>
9d0132d4:	00000000 	nop
9d0132d8:	10000007 	b	9d0132f8 <fpcmplt+0x84>
9d0132dc:	2402ffff 	li	v0,-1
9d0132e0:	00e6082a 	slt	at,a3,a2
9d0132e4:	10200003 	beqz	at,9d0132f4 <fpcmplt+0x80>
9d0132e8:	00000000 	nop
9d0132ec:	10000002 	b	9d0132f8 <fpcmplt+0x84>
9d0132f0:	24020001 	li	v0,1
9d0132f4:	24020000 	li	v0,0
9d0132f8:	03e00008 	jr	ra
9d0132fc:	00000000 	nop
9d013300:	00000000 	nop
9d013304:	1000fffc 	b	9d0132f8 <fpcmplt+0x84>
9d013308:	34020001 	li	v0,0x1
9d01330c:	00000000 	nop

Disassembly of section .text.__toread:

9d013310 <__toread>:
9d013310:	27bdffe8 	addiu	sp,sp,-24
9d013314:	afb00010 	sw	s0,16(sp)
9d013318:	afbf0014 	sw	ra,20(sp)
9d01331c:	80820048 	lb	v0,72(a0)
9d013320:	2443ffff 	addiu	v1,v0,-1
9d013324:	00431025 	or	v0,v0,v1
9d013328:	a0820048 	sb	v0,72(a0)
9d01332c:	8c830018 	lw	v1,24(a0)
9d013330:	8c820014 	lw	v0,20(a0)
9d013334:	0062102b 	sltu	v0,v1,v0
9d013338:	10400005 	beqz	v0,9d013350 <__toread+0x40>
9d01333c:	00808025 	move	s0,a0
9d013340:	8c82002c 	lw	v0,44(a0)
9d013344:	00003025 	move	a2,zero
9d013348:	0040f809 	jalr	v0
9d01334c:	00002825 	move	a1,zero
9d013350:	8e020004 	lw	v0,4(s0)
9d013354:	ae000028 	sw	zero,40(s0)
9d013358:	ae000018 	sw	zero,24(s0)
9d01335c:	30430002 	andi	v1,v0,0x2
9d013360:	10600008 	beqz	v1,9d013384 <__toread+0x74>
9d013364:	ae000014 	sw	zero,20(s0)
9d013368:	34420010 	ori	v0,v0,0x10
9d01336c:	ae020004 	sw	v0,4(s0)
9d013370:	2402ffff 	li	v0,-1
9d013374:	8fbf0014 	lw	ra,20(sp)
9d013378:	8fb00010 	lw	s0,16(sp)
9d01337c:	03e00008 	jr	ra
9d013380:	27bd0018 	addiu	sp,sp,24
9d013384:	8e030008 	lw	v1,8(s0)
9d013388:	8e04000c 	lw	a0,12(s0)
9d01338c:	7c4200c0 	ext	v0,v0,0x3,0x1
9d013390:	00021023 	negu	v0,v0
9d013394:	00641821 	addu	v1,v1,a0
9d013398:	ae030040 	sw	v1,64(s0)
9d01339c:	1000fff5 	b	9d013374 <__toread+0x64>
9d0133a0:	ae03003c 	sw	v1,60(s0)

Disassembly of section .text.__stdio_seek:

9d0133a4 <__stdio_seek>:
9d0133a4:	8c820004 	lw	v0,4(a0)
9d0133a8:	27bdffe0 	addiu	sp,sp,-32
9d0133ac:	afb20018 	sw	s2,24(sp)
9d0133b0:	30420020 	andi	v0,v0,0x20
9d0133b4:	afb10014 	sw	s1,20(sp)
9d0133b8:	afb00010 	sw	s0,16(sp)
9d0133bc:	afbf001c 	sw	ra,28(sp)
9d0133c0:	00808025 	move	s0,a0
9d0133c4:	00a08825 	move	s1,a1
9d0133c8:	10400009 	beqz	v0,9d0133f0 <__stdio_seek+0x4c>
9d0133cc:	00c09025 	move	s2,a2
9d0133d0:	8c820014 	lw	v0,20(a0)
9d0133d4:	8c830018 	lw	v1,24(a0)
9d0133d8:	0062102b 	sltu	v0,v1,v0
9d0133dc:	5440000a 	bnezl	v0,9d013408 <__stdio_seek+0x64>
9d0133e0:	8c82002c 	lw	v0,44(a0)
9d0133e4:	ae000028 	sw	zero,40(s0)
9d0133e8:	ae000018 	sw	zero,24(s0)
9d0133ec:	ae000014 	sw	zero,20(s0)
9d0133f0:	02403025 	move	a2,s2
9d0133f4:	02202825 	move	a1,s1
9d0133f8:	0f40516b 	jal	9d0145ac <__stdio_seek_unbuffered>
9d0133fc:	02002025 	move	a0,s0
9d013400:	10000008 	b	9d013424 <__stdio_seek+0x80>
9d013404:	8fbf001c 	lw	ra,28(sp)
9d013408:	00003025 	move	a2,zero
9d01340c:	0040f809 	jalr	v0
9d013410:	00002825 	move	a1,zero
9d013414:	8e030014 	lw	v1,20(s0)
9d013418:	1460fff2 	bnez	v1,9d0133e4 <__stdio_seek+0x40>
9d01341c:	2402ffff 	li	v0,-1
9d013420:	8fbf001c 	lw	ra,28(sp)
9d013424:	8fb20018 	lw	s2,24(sp)
9d013428:	8fb10014 	lw	s1,20(sp)
9d01342c:	8fb00010 	lw	s0,16(sp)
9d013430:	03e00008 	jr	ra
9d013434:	27bd0020 	addiu	sp,sp,32

Disassembly of section .text.__overflow:

9d013438 <__overflow>:
9d013438:	8c820028 	lw	v0,40(a0)
9d01343c:	27bdffe0 	addiu	sp,sp,-32
9d013440:	afb00018 	sw	s0,24(sp)
9d013444:	afbf001c 	sw	ra,28(sp)
9d013448:	00808025 	move	s0,a0
9d01344c:	10400010 	beqz	v0,9d013490 <__overflow+0x58>
9d013450:	a3a50010 	sb	a1,16(sp)
9d013454:	8e030014 	lw	v1,20(s0)
9d013458:	8e020028 	lw	v0,40(s0)
9d01345c:	0062102b 	sltu	v0,v1,v0
9d013460:	14400014 	bnez	v0,9d0134b4 <__overflow+0x7c>
9d013464:	93a20010 	lbu	v0,16(sp)
9d013468:	8e02002c 	lw	v0,44(s0)
9d01346c:	24060001 	li	a2,1
9d013470:	27a50010 	addiu	a1,sp,16
9d013474:	0040f809 	jalr	v0
9d013478:	02002025 	move	a0,s0
9d01347c:	24030001 	li	v1,1
9d013480:	14430007 	bne	v0,v1,9d0134a0 <__overflow+0x68>
9d013484:	93a20010 	lbu	v0,16(sp)
9d013488:	10000007 	b	9d0134a8 <__overflow+0x70>
9d01348c:	8fbf001c 	lw	ra,28(sp)
9d013490:	0f40519f 	jal	9d01467c <__towrite>
9d013494:	00000000 	nop
9d013498:	5040ffef 	beqzl	v0,9d013458 <__overflow+0x20>
9d01349c:	8e030014 	lw	v1,20(s0)
9d0134a0:	2402ffff 	li	v0,-1
9d0134a4:	8fbf001c 	lw	ra,28(sp)
9d0134a8:	8fb00018 	lw	s0,24(sp)
9d0134ac:	03e00008 	jr	ra
9d0134b0:	27bd0020 	addiu	sp,sp,32
9d0134b4:	82040034 	lb	a0,52(s0)
9d0134b8:	1044ffeb 	beq	v0,a0,9d013468 <__overflow+0x30>
9d0134bc:	24640001 	addiu	a0,v1,1
9d0134c0:	ae040014 	sw	a0,20(s0)
9d0134c4:	1000fff7 	b	9d0134a4 <__overflow+0x6c>
9d0134c8:	a0620000 	sb	v0,0(v1)

Disassembly of section .text.dptoli:

9d0134cc <__fixdfsi>:
9d0134cc:	00053ac0 00045542 00ea3825 3c018000     .:..BU..%8.....<
9d0134dc:	00e13825 00055040 000a5542 2406041e     %8..@P..BU.....$
9d0134ec:	00ca3023 18c0000c 00000000 2cc10020     #0.......... ..,
9d0134fc:	14200002 00000000 34070000              .. ........4

9d013508 <L42>:
9d013508:	04a10002 	bgez	a1,9d013514 <i50>
9d01350c:	00c73806 	srlv	a3,a3,a2
9d013510:	00073823 	negu	a3,a3

9d013514 <i50>:
9d013514:	00071025 	or	v0,zero,a3

9d013518 <I999>:
9d013518:	03e00008 	jr	ra
9d01351c:	00000000 	nop
9d013520:	00000000 	nop

9d013524 <Inaninf>:
9d013524:	10800002 	beqz	a0,9d013530 <i51>
9d013528:	00000000 	nop
9d01352c:	34a50001 	ori	a1,a1,0x1

9d013530 <i51>:
9d013530:	3c017ff0 	lui	at,0x7ff0
9d013534:	34210001 	ori	at,at,0x1
9d013538:	00a1082b 	sltu	at,a1,at
9d01353c:	14200003 	bnez	at,9d01354c <i52>
9d013540:	00000000 	nop
9d013544:	1000fff4 	b	9d013518 <I999>
9d013548:	3c028000 	lui	v0,0x8000

9d01354c <i52>:
9d01354c:	3c027fff 	lui	v0,0x7fff
9d013550:	1000fff1 	b	9d013518 <I999>
9d013554:	3442ffff 	ori	v0,v0,0xffff
9d013558:	00000000 	nop

Disassembly of section .text.__out:

9d01355c <__out>:
9d01355c:	8c820004 	lw	v0,4(a0)
9d013560:	27bdffe0 	addiu	sp,sp,-32
9d013564:	afbf001c 	sw	ra,28(sp)
9d013568:	30470100 	andi	a3,v0,0x100
9d01356c:	afb10018 	sw	s1,24(sp)
9d013570:	10e00016 	beqz	a3,9d0135cc <__out+0x70>
9d013574:	afb00014 	sw	s0,20(sp)
9d013578:	8c820010 	lw	v0,16(a0)
9d01357c:	00808025 	move	s0,a0
9d013580:	00c01825 	move	v1,a2
9d013584:	00c2882b 	sltu	s1,a2,v0
9d013588:	8c840014 	lw	a0,20(a0)
9d01358c:	0051180a 	movz	v1,v0,s1
9d013590:	00603025 	move	a2,v1
9d013594:	0f4052b1 	jal	9d014ac4 <memcpy>
9d013598:	00608825 	move	s1,v1
9d01359c:	8e020014 	lw	v0,20(s0)
9d0135a0:	8e030010 	lw	v1,16(s0)
9d0135a4:	00511021 	addu	v0,v0,s1
9d0135a8:	00718823 	subu	s1,v1,s1
9d0135ac:	ae020014 	sw	v0,20(s0)
9d0135b0:	ae110010 	sw	s1,16(s0)
9d0135b4:	a0400000 	sb	zero,0(v0)
9d0135b8:	8fbf001c 	lw	ra,28(sp)
9d0135bc:	8fb10018 	lw	s1,24(sp)
9d0135c0:	8fb00014 	lw	s0,20(sp)
9d0135c4:	03e00008 	jr	ra
9d0135c8:	27bd0020 	addiu	sp,sp,32
9d0135cc:	30420010 	andi	v0,v0,0x10
9d0135d0:	5440fffa 	bnezl	v0,9d0135bc <__out+0x60>
9d0135d4:	8fbf001c 	lw	ra,28(sp)
9d0135d8:	0f405253 	jal	9d01494c <__fwrite>
9d0135dc:	00000000 	nop
9d0135e0:	1000fff6 	b	9d0135bc <__out+0x60>
9d0135e4:	8fbf001c 	lw	ra,28(sp)

Disassembly of section .text.dptoul:

9d0135e8 <__fixunsdfsi>:
9d0135e8:	00053ac0 00045542 00ea3825 3c018000     .:..BU..%8.....<
9d0135f8:	00e13825 00055040 000a5542 2406041e     %8..@P..BU.....$
9d013608:	00ca3023 04c0000c 00000000 2cc10020     #0.......... ..,
9d013618:	14200002 00000000 34070000              .. ........4

9d013624 <L43>:
9d013624:	04a10002 	bgez	a1,9d013630 <i53>
9d013628:	00c73806 	srlv	a3,a3,a2
9d01362c:	00073823 	negu	a3,a3

9d013630 <i53>:
9d013630:	00071025 	or	v0,zero,a3

9d013634 <K999>:
9d013634:	03e00008 	jr	ra
9d013638:	00000000 	nop
9d01363c:	00000000 	nop

9d013640 <Knaninf>:
9d013640:	10800002 	beqz	a0,9d01364c <i54>
9d013644:	00000000 	nop
9d013648:	34a50001 	ori	a1,a1,0x1

9d01364c <i54>:
9d01364c:	3c017ff0 	lui	at,0x7ff0
9d013650:	34210001 	ori	at,at,0x1
9d013654:	00a1082b 	sltu	at,a1,at
9d013658:	14200003 	bnez	at,9d013668 <i55>
9d01365c:	00000000 	nop
9d013660:	1000fff4 	b	9d013634 <K999>
9d013664:	3c028000 	lui	v0,0x8000

9d013668 <i55>:
9d013668:	1000fff2 	b	9d013634 <K999>
9d01366c:	2402ffff 	li	v0,-1
9d013670:	00000000 	nop

Disassembly of section .text.copysignf:

9d013674 <copysignf>:
9d013674:	27bdffd0 	addiu	sp,sp,-48
9d013678:	afb30028 	sw	s3,40(sp)
9d01367c:	afb20024 	sw	s2,36(sp)
9d013680:	00e09825 	move	s3,a3
9d013684:	00c09025 	move	s2,a2
9d013688:	afbf002c 	sw	ra,44(sp)
9d01368c:	afb10020 	sw	s1,32(sp)
9d013690:	0f40488b 	jal	9d01222c <__truncdfsf2>
9d013694:	afb0001c 	sw	s0,28(sp)
9d013698:	02602825 	move	a1,s3
9d01369c:	02402025 	move	a0,s2
9d0136a0:	0f40488b 	jal	9d01222c <__truncdfsf2>
9d0136a4:	00408825 	move	s1,v0
9d0136a8:	00408025 	move	s0,v0
9d0136ac:	0f404b55 	jal	9d012d54 <__extendsfdf2>
9d0136b0:	02202025 	move	a0,s1
9d0136b4:	02002025 	move	a0,s0
9d0136b8:	afa20010 	sw	v0,16(sp)
9d0136bc:	7c707400 	ext	s0,v1,0x10,0xf
9d0136c0:	0f404b55 	jal	9d012d54 <__extendsfdf2>
9d0136c4:	afa30014 	sw	v1,20(sp)
9d0136c8:	00031c02 	srl	v1,v1,0x10
9d0136cc:	7c037004 	ins	v1,zero,0x0,0xf
9d0136d0:	02031825 	or	v1,s0,v1
9d0136d4:	a7a30016 	sh	v1,22(sp)
9d0136d8:	8fa40010 	lw	a0,16(sp)
9d0136dc:	0f40488b 	jal	9d01222c <__truncdfsf2>
9d0136e0:	8fa50014 	lw	a1,20(sp)
9d0136e4:	8fbf002c 	lw	ra,44(sp)
9d0136e8:	8fb30028 	lw	s3,40(sp)
9d0136ec:	8fb20024 	lw	s2,36(sp)
9d0136f0:	8fb10020 	lw	s1,32(sp)
9d0136f4:	8fb0001c 	lw	s0,28(sp)
9d0136f8:	03e00008 	jr	ra
9d0136fc:	27bd0030 	addiu	sp,sp,48

Disassembly of section .text.__fopen_rw:

9d013700 <__fopen_rw>:
9d013700:	27bdffe8 	addiu	sp,sp,-24
9d013704:	afb00010 	sw	s0,16(sp)
9d013708:	afbf0014 	sw	ra,20(sp)
9d01370c:	0f403e5d 	jal	9d00f974 <malloc>
9d013710:	24040468 	li	a0,1128
9d013714:	10400017 	beqz	v0,9d013774 <__fopen_rw+0x74>
9d013718:	00408025 	move	s0,v0
9d01371c:	24060060 	li	a2,96
9d013720:	00002825 	move	a1,zero
9d013724:	0f40533a 	jal	9d014ce8 <memset>
9d013728:	00402025 	move	a0,v0
9d01372c:	3c029d01 	lui	v0,0x9d01
9d013730:	24424d70 	addiu	v0,v0,19824
9d013734:	ae02002c 	sw	v0,44(s0)
9d013738:	3c029d01 	lui	v0,0x9d01
9d01373c:	2442279c 	addiu	v0,v0,10140
9d013740:	ae020030 	sw	v0,48(s0)
9d013744:	3c029d01 	lui	v0,0x9d01
9d013748:	24422860 	addiu	v0,v0,10336
9d01374c:	ae02001c 	sw	v0,28(s0)
9d013750:	3c029d01 	lui	v0,0x9d01
9d013754:	244226d0 	addiu	v0,v0,9936
9d013758:	ae020044 	sw	v0,68(s0)
9d01375c:	2402ffff 	li	v0,-1
9d013760:	a2020034 	sb	v0,52(s0)
9d013764:	26020068 	addiu	v0,s0,104
9d013768:	ae020008 	sw	v0,8(s0)
9d01376c:	24020400 	li	v0,1024
9d013770:	ae02000c 	sw	v0,12(s0)
9d013774:	8fbf0014 	lw	ra,20(sp)
9d013778:	02001025 	move	v0,s0
9d01377c:	8fb00010 	lw	s0,16(sp)
9d013780:	03e00008 	jr	ra
9d013784:	27bd0018 	addiu	sp,sp,24

Disassembly of section .text.write:

9d013788 <write>:
9d013788:	27bdffe0 	addiu	sp,sp,-32
9d01378c:	afb10014 	sw	s1,20(sp)
9d013790:	afbf001c 	sw	ra,28(sp)
9d013794:	afb20018 	sw	s2,24(sp)
9d013798:	afb00010 	sw	s0,16(sp)
9d01379c:	10a0000d 	beqz	a1,9d0137d4 <write+0x4c>
9d0137a0:	00008825 	move	s1,zero
9d0137a4:	50c0000c 	beqzl	a2,9d0137d8 <write+0x50>
9d0137a8:	8fbf001c 	lw	ra,28(sp)
9d0137ac:	2c840003 	sltiu	a0,a0,3
9d0137b0:	10800008 	beqz	a0,9d0137d4 <write+0x4c>
9d0137b4:	00c08825 	move	s1,a2
9d0137b8:	3c020000 	lui	v0,0x0
9d0137bc:	24420000 	addiu	v0,v0,0
9d0137c0:	1040000b 	beqz	v0,9d0137f0 <write+0x68>
9d0137c4:	00a08025 	move	s0,a1
9d0137c8:	00c02825 	move	a1,a2
9d0137cc:	0c000000 	jal	90000000 <_bmxdudba_address+0x8fff0000>
9d0137d0:	02002025 	move	a0,s0
9d0137d4:	8fbf001c 	lw	ra,28(sp)
9d0137d8:	02201025 	move	v0,s1
9d0137dc:	8fb20018 	lw	s2,24(sp)
9d0137e0:	8fb10014 	lw	s1,20(sp)
9d0137e4:	8fb00010 	lw	s0,16(sp)
9d0137e8:	03e00008 	jr	ra
9d0137ec:	27bd0020 	addiu	sp,sp,32
9d0137f0:	00a69021 	addu	s2,a1,a2
9d0137f4:	82040000 	lb	a0,0(s0)
9d0137f8:	0f4046ed 	jal	9d011bb4 <_mon_putc>
9d0137fc:	26100001 	addiu	s0,s0,1
9d013800:	1650fffc 	bne	s2,s0,9d0137f4 <write+0x6c>
9d013804:	8fbf001c 	lw	ra,28(sp)
9d013808:	1000fff4 	b	9d0137dc <write+0x54>
9d01380c:	02201025 	move	v0,s1

Disassembly of section .text.dinit.startup:

9d013810 <__pic32_data_init_impl>:
9d013810:	3c089d01 	lui	t0,0x9d01
9d013814:	25080910 	addiu	t0,t0,2320
9d013818:	1100001b 	beqz	t0,9d013888 <_dinit_end+0x18>
9d01381c:	00000000 	nop
9d013820:	8d090000 	lw	t1,0(t0)
9d013824:	11200018 	beqz	t1,9d013888 <_dinit_end+0x18>
9d013828:	25080004 	addiu	t0,t0,4
9d01382c:	8d0a0000 	lw	t2,0(t0)
9d013830:	25080004 	addiu	t0,t0,4
9d013834:	8d0b0000 	lw	t3,0(t0)
9d013838:	11600009 	beqz	t3,9d013860 <_dinit_clear>
9d01383c:	25080004 	addiu	t0,t0,4

9d013840 <_dinit_copy>:
9d013840:	910c0000 	lbu	t4,0(t0)
9d013844:	254affff 	addiu	t2,t2,-1
9d013848:	25080001 	addiu	t0,t0,1
9d01384c:	a12c0000 	sb	t4,0(t1)
9d013850:	1540fffb 	bnez	t2,9d013840 <_dinit_copy>
9d013854:	25290001 	addiu	t1,t1,1
9d013858:	10000005 	b	9d013870 <_dinit_end>
9d01385c:	00000000 	nop

9d013860 <_dinit_clear>:
9d013860:	a1200000 	sb	zero,0(t1)
9d013864:	254affff 	addiu	t2,t2,-1
9d013868:	1540fffd 	bnez	t2,9d013860 <_dinit_clear>
9d01386c:	25290001 	addiu	t1,t1,1

9d013870 <_dinit_end>:
9d013870:	25080003 	addiu	t0,t0,3
9d013874:	240afffc 	li	t2,-4
9d013878:	01484024 	and	t0,t2,t0
9d01387c:	8d090000 	lw	t1,0(t0)
9d013880:	1520ffe7 	bnez	t1,9d013820 <__pic32_data_init_impl+0x10>
9d013884:	00000000 	nop
9d013888:	03e00008 	jr	ra
9d01388c:	00000000 	nop

Disassembly of section .text.__vsnprintf:

9d013890 <__vsnprintf>:
9d013890:	27bdffc8 	addiu	sp,sp,-56
9d013894:	2403ffff 	li	v1,-1
9d013898:	afa30010 	sw	v1,16(sp)
9d01389c:	24030102 	li	v1,258
9d0138a0:	00a01025 	move	v0,a1
9d0138a4:	afbf0034 	sw	ra,52(sp)
9d0138a8:	00c02825 	move	a1,a2
9d0138ac:	afa30014 	sw	v1,20(sp)
9d0138b0:	14800002 	bnez	a0,9d0138bc <__vsnprintf+0x2c>
9d0138b4:	00e03025 	move	a2,a3
9d0138b8:	27a4002c 	addiu	a0,sp,44
9d0138bc:	afa40018 	sw	a0,24(sp)
9d0138c0:	afa2001c 	sw	v0,28(sp)
9d0138c4:	10400002 	beqz	v0,9d0138d0 <__vsnprintf+0x40>
9d0138c8:	00001825 	move	v1,zero
9d0138cc:	2443ffff 	addiu	v1,v0,-1
9d0138d0:	04410008 	bgez	v0,9d0138f4 <__vsnprintf+0x64>
9d0138d4:	afa30020 	sw	v1,32(sp)
9d0138d8:	3c02a001 	lui	v0,0xa001
9d0138dc:	2403004f 	li	v1,79
9d0138e0:	ac43a378 	sw	v1,-23688(v0)
9d0138e4:	2402ffff 	li	v0,-1
9d0138e8:	8fbf0034 	lw	ra,52(sp)
9d0138ec:	03e00008 	jr	ra
9d0138f0:	27bd0038 	addiu	sp,sp,56
9d0138f4:	afa40028 	sw	a0,40(sp)
9d0138f8:	afa40024 	sw	a0,36(sp)
9d0138fc:	a0800000 	sb	zero,0(a0)
9d013900:	0f4051fc 	jal	9d0147f0 <__vfprintf>
9d013904:	27a40010 	addiu	a0,sp,16
9d013908:	1000fff8 	b	9d0138ec <__vsnprintf+0x5c>
9d01390c:	8fbf0034 	lw	ra,52(sp)

Disassembly of section .text.fptoli:

9d013910 <__fixsfsi>:
9d013910:	00042a00 3c018000 00a12825 00043dc2     .*.....<%(...=..
9d013920:	30e700ff 2406009e 00c73023 18c0000d     ...0...$#0......
9d013930:	00000000 28c10020 14200003 00000000     .... ..(.. .....
9d013940:	10000005 24020000                       .......$

9d013948 <i42>:
9d013948:	04810002 	bgez	a0,9d013954 <i43>
9d01394c:	00c52806 	srlv	a1,a1,a2
9d013950:	00052823 	negu	a1,a1

9d013954 <i43>:
9d013954:	00051025 	or	v0,zero,a1

9d013958 <G999>:
9d013958:	03e00008 	jr	ra
9d01395c:	00000000 	nop
9d013960:	00000000 	nop

9d013964 <Gspec>:
9d013964:	3c017f80 	lui	at,0x7f80
9d013968:	34210001 	ori	at,at,0x1
9d01396c:	0081082b 	sltu	at,a0,at
9d013970:	14200003 	bnez	at,9d013980 <i44>
9d013974:	00000000 	nop
9d013978:	1000fff7 	b	9d013958 <G999>
9d01397c:	3c028000 	lui	v0,0x8000

9d013980 <i44>:
9d013980:	3c027fff 	lui	v0,0x7fff
9d013984:	1000fff4 	b	9d013958 <G999>
9d013988:	3442ffff 	ori	v0,v0,0xffff
9d01398c:	00000000 	nop

Disassembly of section .text.dremf:

9d013990 <dremf>:
9d013990:	27bdffe0 	addiu	sp,sp,-32
9d013994:	afb10014 	sw	s1,20(sp)
9d013998:	afb00010 	sw	s0,16(sp)
9d01399c:	00e08825 	move	s1,a3
9d0139a0:	00c08025 	move	s0,a2
9d0139a4:	afbf001c 	sw	ra,28(sp)
9d0139a8:	0f40488b 	jal	9d01222c <__truncdfsf2>
9d0139ac:	afb20018 	sw	s2,24(sp)
9d0139b0:	02202825 	move	a1,s1
9d0139b4:	02002025 	move	a0,s0
9d0139b8:	0f40488b 	jal	9d01222c <__truncdfsf2>
9d0139bc:	00409025 	move	s2,v0
9d0139c0:	0f404b55 	jal	9d012d54 <__extendsfdf2>
9d0139c4:	00402025 	move	a0,v0
9d0139c8:	02402025 	move	a0,s2
9d0139cc:	00408025 	move	s0,v0
9d0139d0:	0f404b55 	jal	9d012d54 <__extendsfdf2>
9d0139d4:	00608825 	move	s1,v1
9d0139d8:	00402025 	move	a0,v0
9d0139dc:	02003025 	move	a2,s0
9d0139e0:	02203825 	move	a3,s1
9d0139e4:	0f403386 	jal	9d00ce18 <dreml>
9d0139e8:	00602825 	move	a1,v1
9d0139ec:	00402025 	move	a0,v0
9d0139f0:	0f40488b 	jal	9d01222c <__truncdfsf2>
9d0139f4:	00602825 	move	a1,v1
9d0139f8:	8fbf001c 	lw	ra,28(sp)
9d0139fc:	8fb20018 	lw	s2,24(sp)
9d013a00:	8fb10014 	lw	s1,20(sp)
9d013a04:	8fb00010 	lw	s0,16(sp)
9d013a08:	03e00008 	jr	ra
9d013a0c:	27bd0020 	addiu	sp,sp,32

Disassembly of section .text.atoi:

9d013a10 <atoi>:
9d013a10:	24050020 	li	a1,32
9d013a14:	80820000 	lb	v0,0(a0)
9d013a18:	1045000d 	beq	v0,a1,9d013a50 <atoi+0x40>
9d013a1c:	2443fff7 	addiu	v1,v0,-9
9d013a20:	2c630005 	sltiu	v1,v1,5
9d013a24:	1460000a 	bnez	v1,9d013a50 <atoi+0x40>
9d013a28:	2403002b 	li	v1,43
9d013a2c:	1043000a 	beq	v0,v1,9d013a58 <atoi+0x48>
9d013a30:	2403002d 	li	v1,45
9d013a34:	14430003 	bne	v0,v1,9d013a44 <atoi+0x34>
9d013a38:	00002825 	move	a1,zero
9d013a3c:	24050001 	li	a1,1
9d013a40:	24840001 	addiu	a0,a0,1
9d013a44:	00001025 	move	v0,zero
9d013a48:	10000007 	b	9d013a68 <atoi+0x58>
9d013a4c:	2407000a 	li	a3,10
9d013a50:	1000fff0 	b	9d013a14 <atoi+0x4>
9d013a54:	24840001 	addiu	a0,a0,1
9d013a58:	1000fff9 	b	9d013a40 <atoi+0x30>
9d013a5c:	00002825 	move	a1,zero
9d013a60:	24840001 	addiu	a0,a0,1
9d013a64:	00431023 	subu	v0,v0,v1
9d013a68:	80830000 	lb	v1,0(a0)
9d013a6c:	2463ffd0 	addiu	v1,v1,-48
9d013a70:	2c66000a 	sltiu	a2,v1,10
9d013a74:	54c0fffa 	bnezl	a2,9d013a60 <atoi+0x50>
9d013a78:	70471002 	mul	v0,v0,a3
9d013a7c:	50a00001 	beqzl	a1,9d013a84 <atoi+0x74>
9d013a80:	00021023 	negu	v0,v0
9d013a84:	03e00008 	jr	ra
9d013a88:	00000000 	nop

Disassembly of section .text.__readv:

9d013a8c <readv>:
9d013a8c:	27bdffd8 	addiu	sp,sp,-40
9d013a90:	afb40020 	sw	s4,32(sp)
9d013a94:	afb3001c 	sw	s3,28(sp)
9d013a98:	afb20018 	sw	s2,24(sp)
9d013a9c:	afb10014 	sw	s1,20(sp)
9d013aa0:	afb00010 	sw	s0,16(sp)
9d013aa4:	afbf0024 	sw	ra,36(sp)
9d013aa8:	0080a025 	move	s4,a0
9d013aac:	00c09825 	move	s3,a2
9d013ab0:	00a08025 	move	s0,a1
9d013ab4:	00008825 	move	s1,zero
9d013ab8:	00009025 	move	s2,zero
9d013abc:	0253102a 	slt	v0,s2,s3
9d013ac0:	14400009 	bnez	v0,9d013ae8 <readv+0x5c>
9d013ac4:	8fbf0024 	lw	ra,36(sp)
9d013ac8:	02201025 	move	v0,s1
9d013acc:	8fb40020 	lw	s4,32(sp)
9d013ad0:	8fb3001c 	lw	s3,28(sp)
9d013ad4:	8fb20018 	lw	s2,24(sp)
9d013ad8:	8fb10014 	lw	s1,20(sp)
9d013adc:	8fb00010 	lw	s0,16(sp)
9d013ae0:	03e00008 	jr	ra
9d013ae4:	27bd0028 	addiu	sp,sp,40
9d013ae8:	8e060004 	lw	a2,4(s0)
9d013aec:	8e050000 	lw	a1,0(s0)
9d013af0:	02802025 	move	a0,s4
9d013af4:	0f40460a 	jal	9d011828 <read>
9d013af8:	26520001 	addiu	s2,s2,1
9d013afc:	02228821 	addu	s1,s1,v0
9d013b00:	1000ffee 	b	9d013abc <readv+0x30>
9d013b04:	26100008 	addiu	s0,s0,8

Disassembly of section .text.litodp:

9d013b08 <__floatsidf>:
9d013b08:	24050000 00054825 00053825 00043025     ...$%H..%8..%0..
9d013b18:	10c0000c 00000000 04c10006 00000000     ................
9d013b28:	3c098000 0005502b 00052823 00063023     ...<+P..#(..#0..
9d013b38:	00ca3023                                #0..

9d013b3c <i40>:
9d013b3c:	2407041e 	li	a3,1054
9d013b40:	70c84020 	clz	t0,a2
9d013b44:	00e83823 	subu	a3,a3,t0
9d013b48:	01063004 	sllv	a2,a2,t0

9d013b4c <i39>:
9d013b4c:	000542c2 	srl	t0,a1,0xb
9d013b50:	00065540 	sll	t2,a2,0x15
9d013b54:	010a4025 	or	t0,t0,t2
9d013b58:	00065040 	sll	t2,a2,0x1
9d013b5c:	000a5302 	srl	t2,t2,0xc
9d013b60:	012a4825 	or	t1,t1,t2
9d013b64:	00075500 	sll	t2,a3,0x14
9d013b68:	012a4825 	or	t1,t1,t2
9d013b6c:	00081025 	or	v0,zero,t0
9d013b70:	00091825 	or	v1,zero,t1

9d013b74 <E999>:
9d013b74:	03e00008 	jr	ra
9d013b78:	00000000 	nop
9d013b7c:	00000000 	nop

Disassembly of section .text.alloc_rev:

9d013b80 <alloc_rev>:
9d013b80:	8c860000 	lw	a2,0(a0)
9d013b84:	30c20001 	andi	v0,a2,0x1
9d013b88:	10400009 	beqz	v0,9d013bb0 <alloc_rev+0x30>
9d013b8c:	00803825 	move	a3,a0
9d013b90:	03e00008 	jr	ra
9d013b94:	00001025 	move	v0,zero
9d013b98:	8ce60000 	lw	a2,0(a3)
9d013b9c:	30c20001 	andi	v0,a2,0x1
9d013ba0:	10400005 	beqz	v0,9d013bb8 <alloc_rev+0x38>
9d013ba4:	00001025 	move	v0,zero
9d013ba8:	10000010 	b	9d013bec <alloc_rev+0x6c>
9d013bac:	8fbf0014 	lw	ra,20(sp)
9d013bb0:	27bdffe8 	addiu	sp,sp,-24
9d013bb4:	afbf0014 	sw	ra,20(sp)
9d013bb8:	0f404ff4 	jal	9d013fd0 <bin_index>
9d013bbc:	00c02025 	move	a0,a2
9d013bc0:	00402025 	move	a0,v0
9d013bc4:	0f405246 	jal	9d014918 <lock_bin>
9d013bc8:	00404025 	move	t0,v0
9d013bcc:	8ce40000 	lw	a0,0(a3)
9d013bd0:	1486fff1 	bne	a0,a2,9d013b98 <alloc_rev+0x18>
9d013bd4:	7c040004 	ins	a0,zero,0x0,0x1
9d013bd8:	01002825 	move	a1,t0
9d013bdc:	0f404b2a 	jal	9d012ca8 <unbin>
9d013be0:	00e42023 	subu	a0,a3,a0
9d013be4:	24020001 	li	v0,1
9d013be8:	8fbf0014 	lw	ra,20(sp)
9d013bec:	03e00008 	jr	ra
9d013bf0:	27bd0018 	addiu	sp,sp,24

Disassembly of section .text:

9d013bf4 <__floatdidf>:
9d013bf4:	27bdffe0 	addiu	sp,sp,-32
9d013bf8:	afb20018 	sw	s2,24(sp)
9d013bfc:	00809025 	move	s2,a0
9d013c00:	00a02025 	move	a0,a1
9d013c04:	afbf001c 	sw	ra,28(sp)
9d013c08:	afb10014 	sw	s1,20(sp)
9d013c0c:	0f404ec2 	jal	9d013b08 <__floatsidf>
9d013c10:	afb00010 	sw	s0,16(sp)
9d013c14:	3c049d00 	lui	a0,0x9d00
9d013c18:	8c867648 	lw	a2,30280(a0)
9d013c1c:	8c87764c 	lw	a3,30284(a0)
9d013c20:	00602825 	move	a1,v1
9d013c24:	0f403b8f 	jal	9d00ee3c <__muldf3>
9d013c28:	00402025 	move	a0,v0
9d013c2c:	02402025 	move	a0,s2
9d013c30:	00408025 	move	s0,v0
9d013c34:	0f4051b0 	jal	9d0146c0 <__floatunsidf>
9d013c38:	00608825 	move	s1,v1
9d013c3c:	00402025 	move	a0,v0
9d013c40:	02003025 	move	a2,s0
9d013c44:	02203825 	move	a3,s1
9d013c48:	0f4036bb 	jal	9d00daec <__adddf3>
9d013c4c:	00602825 	move	a1,v1
9d013c50:	8fbf001c 	lw	ra,28(sp)
9d013c54:	8fb20018 	lw	s2,24(sp)
9d013c58:	8fb10014 	lw	s1,20(sp)
9d013c5c:	8fb00010 	lw	s0,16(sp)
9d013c60:	03e00008 	jr	ra
9d013c64:	27bd0020 	addiu	sp,sp,32

Disassembly of section .text.__scan_d:

9d013c68 <__scan_d>:
9d013c68:	27bdffd8 	addiu	sp,sp,-40
9d013c6c:	afb10020 	sw	s1,32(sp)
9d013c70:	afb0001c 	sw	s0,28(sp)
9d013c74:	00a08825 	move	s1,a1
9d013c78:	8cd0000c 	lw	s0,12(a2)
9d013c7c:	00c02825 	move	a1,a2
9d013c80:	afbf0024 	sw	ra,36(sp)
9d013c84:	0f404567 	jal	9d01159c <__read_int>
9d013c88:	00e03025 	move	a2,a3
9d013c8c:	2403ffff 	li	v1,-1
9d013c90:	1043000c 	beq	v0,v1,9d013cc4 <__scan_d+0x5c>
9d013c94:	02002025 	move	a0,s0
9d013c98:	2406000a 	li	a2,10
9d013c9c:	0f405290 	jal	9d014a40 <strtoll>
9d013ca0:	27a50010 	addiu	a1,sp,16
9d013ca4:	ae220000 	sw	v0,0(s1)
9d013ca8:	8fa20010 	lw	v0,16(sp)
9d013cac:	ae230004 	sw	v1,4(s1)
9d013cb0:	2404fffe 	li	a0,-2
9d013cb4:	00501026 	xor	v0,v0,s0
9d013cb8:	24030001 	li	v1,1
9d013cbc:	0082180a 	movz	v1,a0,v0
9d013cc0:	00601025 	move	v0,v1
9d013cc4:	8fbf0024 	lw	ra,36(sp)
9d013cc8:	8fb10020 	lw	s1,32(sp)
9d013ccc:	8fb0001c 	lw	s0,28(sp)
9d013cd0:	03e00008 	jr	ra
9d013cd4:	27bd0028 	addiu	sp,sp,40

Disassembly of section .text.__scan_u:

9d013cd8 <__scan_u>:
9d013cd8:	27bdffd8 	addiu	sp,sp,-40
9d013cdc:	afb10020 	sw	s1,32(sp)
9d013ce0:	afb0001c 	sw	s0,28(sp)
9d013ce4:	00a08825 	move	s1,a1
9d013ce8:	8cd0000c 	lw	s0,12(a2)
9d013cec:	00c02825 	move	a1,a2
9d013cf0:	afbf0024 	sw	ra,36(sp)
9d013cf4:	0f404567 	jal	9d01159c <__read_int>
9d013cf8:	00e03025 	move	a2,a3
9d013cfc:	2403ffff 	li	v1,-1
9d013d00:	1043000c 	beq	v0,v1,9d013d34 <__scan_u+0x5c>
9d013d04:	02002025 	move	a0,s0
9d013d08:	2406000a 	li	a2,10
9d013d0c:	0f405285 	jal	9d014a14 <strtoull>
9d013d10:	27a50010 	addiu	a1,sp,16
9d013d14:	ae220000 	sw	v0,0(s1)
9d013d18:	8fa20010 	lw	v0,16(sp)
9d013d1c:	ae230004 	sw	v1,4(s1)
9d013d20:	2404fffe 	li	a0,-2
9d013d24:	00501026 	xor	v0,v0,s0
9d013d28:	24030001 	li	v1,1
9d013d2c:	0082180a 	movz	v1,a0,v0
9d013d30:	00601025 	move	v0,v1
9d013d34:	8fbf0024 	lw	ra,36(sp)
9d013d38:	8fb10020 	lw	s1,32(sp)
9d013d3c:	8fb0001c 	lw	s0,28(sp)
9d013d40:	03e00008 	jr	ra
9d013d44:	27bd0028 	addiu	sp,sp,40

Disassembly of section .text.__consumews:

9d013d48 <__consumews>:
9d013d48:	8ca20000 	lw	v0,0(a1)
9d013d4c:	24030020 	li	v1,32
9d013d50:	80420000 	lb	v0,0(v0)
9d013d54:	10430004 	beq	v0,v1,9d013d68 <__consumews+0x20>
9d013d58:	2442fff7 	addiu	v0,v0,-9
9d013d5c:	2c430005 	sltiu	v1,v0,5
9d013d60:	10600013 	beqz	v1,9d013db0 <__consumews+0x68>
9d013d64:	00001025 	move	v0,zero
9d013d68:	27bdffe8 	addiu	sp,sp,-24
9d013d6c:	afb00010 	sw	s0,16(sp)
9d013d70:	afbf0014 	sw	ra,20(sp)
9d013d74:	0f404ad2 	jal	9d012b48 <__skipws>
9d013d78:	00a08025 	move	s0,a1
9d013d7c:	24040020 	li	a0,32
9d013d80:	8e030000 	lw	v1,0(s0)
9d013d84:	24650001 	addiu	a1,v1,1
9d013d88:	ae050000 	sw	a1,0(s0)
9d013d8c:	80630001 	lb	v1,1(v1)
9d013d90:	1064fffb 	beq	v1,a0,9d013d80 <__consumews+0x38>
9d013d94:	2463fff7 	addiu	v1,v1,-9
9d013d98:	2c630005 	sltiu	v1,v1,5
9d013d9c:	1460fff8 	bnez	v1,9d013d80 <__consumews+0x38>
9d013da0:	8fbf0014 	lw	ra,20(sp)
9d013da4:	8fb00010 	lw	s0,16(sp)
9d013da8:	03e00008 	jr	ra
9d013dac:	27bd0018 	addiu	sp,sp,24
9d013db0:	03e00008 	jr	ra
9d013db4:	00000000 	nop

Disassembly of section .text.__putc:

9d013db8 <__putc>:
9d013db8:	8ca20004 	lw	v0,4(a1)
9d013dbc:	27bdffe8 	addiu	sp,sp,-24
9d013dc0:	30420020 	andi	v0,v0,0x20
9d013dc4:	14400006 	bnez	v0,9d013de0 <__putc+0x28>
9d013dc8:	afbf0014 	sw	ra,20(sp)
9d013dcc:	0f404fdc 	jal	9d013f70 <__putc_unbuffered>
9d013dd0:	00000000 	nop
9d013dd4:	8fbf0014 	lw	ra,20(sp)
9d013dd8:	03e00008 	jr	ra
9d013ddc:	27bd0018 	addiu	sp,sp,24
9d013de0:	00803025 	move	a2,a0
9d013de4:	308200ff 	andi	v0,a0,0xff
9d013de8:	80a40034 	lb	a0,52(a1)
9d013dec:	10820009 	beq	a0,v0,9d013e14 <__putc+0x5c>
9d013df0:	00a01825 	move	v1,a1
9d013df4:	8ca40014 	lw	a0,20(a1)
9d013df8:	8ca50028 	lw	a1,40(a1)
9d013dfc:	0085282b 	sltu	a1,a0,a1
9d013e00:	10a00004 	beqz	a1,9d013e14 <__putc+0x5c>
9d013e04:	24850001 	addiu	a1,a0,1
9d013e08:	ac650014 	sw	a1,20(v1)
9d013e0c:	1000fff1 	b	9d013dd4 <__putc+0x1c>
9d013e10:	a0860000 	sb	a2,0(a0)
9d013e14:	00c02825 	move	a1,a2
9d013e18:	0f404d0e 	jal	9d013438 <__overflow>
9d013e1c:	00602025 	move	a0,v1
9d013e20:	1000ffed 	b	9d013dd8 <__putc+0x20>
9d013e24:	8fbf0014 	lw	ra,20(sp)

Disassembly of section .text.alloc_fwd:

9d013e28 <alloc_fwd>:
9d013e28:	8c860004 	lw	a2,4(a0)
9d013e2c:	30c20001 	andi	v0,a2,0x1
9d013e30:	10400009 	beqz	v0,9d013e58 <alloc_fwd+0x30>
9d013e34:	00803825 	move	a3,a0
9d013e38:	03e00008 	jr	ra
9d013e3c:	00001025 	move	v0,zero
9d013e40:	8ce60004 	lw	a2,4(a3)
9d013e44:	30c20001 	andi	v0,a2,0x1
9d013e48:	10400005 	beqz	v0,9d013e60 <alloc_fwd+0x38>
9d013e4c:	00001025 	move	v0,zero
9d013e50:	1000000f 	b	9d013e90 <alloc_fwd+0x68>
9d013e54:	8fbf0014 	lw	ra,20(sp)
9d013e58:	27bdffe8 	addiu	sp,sp,-24
9d013e5c:	afbf0014 	sw	ra,20(sp)
9d013e60:	0f404ff4 	jal	9d013fd0 <bin_index>
9d013e64:	00c02025 	move	a0,a2
9d013e68:	00402025 	move	a0,v0
9d013e6c:	0f405246 	jal	9d014918 <lock_bin>
9d013e70:	00404025 	move	t0,v0
9d013e74:	8ce20004 	lw	v0,4(a3)
9d013e78:	1446fff1 	bne	v0,a2,9d013e40 <alloc_fwd+0x18>
9d013e7c:	01002825 	move	a1,t0
9d013e80:	0f404b2a 	jal	9d012ca8 <unbin>
9d013e84:	00e02025 	move	a0,a3
9d013e88:	24020001 	li	v0,1
9d013e8c:	8fbf0014 	lw	ra,20(sp)
9d013e90:	03e00008 	jr	ra
9d013e94:	27bd0018 	addiu	sp,sp,24

Disassembly of section .text.__vsscanf:

9d013e98 <__vsscanf>:
9d013e98:	27bdff80 	addiu	sp,sp,-128
9d013e9c:	afb20078 	sw	s2,120(sp)
9d013ea0:	afb10074 	sw	s1,116(sp)
9d013ea4:	afb00070 	sw	s0,112(sp)
9d013ea8:	00a08825 	move	s1,a1
9d013eac:	00808025 	move	s0,a0
9d013eb0:	00c09025 	move	s2,a2
9d013eb4:	27a40010 	addiu	a0,sp,16
9d013eb8:	24060060 	li	a2,96
9d013ebc:	afbf007c 	sw	ra,124(sp)
9d013ec0:	0f40533a 	jal	9d014ce8 <memset>
9d013ec4:	00002825 	move	a1,zero
9d013ec8:	3c029d01 	lui	v0,0x9d01
9d013ecc:	24424eac 	addiu	v0,v0,20140
9d013ed0:	02403025 	move	a2,s2
9d013ed4:	02202825 	move	a1,s1
9d013ed8:	27a40010 	addiu	a0,sp,16
9d013edc:	afb00018 	sw	s0,24(sp)
9d013ee0:	afb00048 	sw	s0,72(sp)
9d013ee4:	0f4051de 	jal	9d014778 <__vfscanf>
9d013ee8:	afa20054 	sw	v0,84(sp)
9d013eec:	8fbf007c 	lw	ra,124(sp)
9d013ef0:	8fb20078 	lw	s2,120(sp)
9d013ef4:	8fb10074 	lw	s1,116(sp)
9d013ef8:	8fb00070 	lw	s0,112(sp)
9d013efc:	03e00008 	jr	ra
9d013f00:	27bd0080 	addiu	sp,sp,128

Disassembly of section .text.a_clz_64:

9d013f04 <a_clz_64>:
9d013f04:	24030020 	li	v1,32
9d013f08:	00a5200b 	movn	a0,a1,a1
9d013f0c:	0005180b 	movn	v1,zero,a1
9d013f10:	00042c02 	srl	a1,a0,0x10
9d013f14:	14a00004 	bnez	a1,9d013f28 <a_clz_64+0x24>
9d013f18:	00051202 	srl	v0,a1,0x8
9d013f1c:	34630010 	ori	v1,v1,0x10
9d013f20:	00802825 	move	a1,a0
9d013f24:	00051202 	srl	v0,a1,0x8
9d013f28:	14400004 	bnez	v0,9d013f3c <a_clz_64+0x38>
9d013f2c:	00022102 	srl	a0,v0,0x4
9d013f30:	34630008 	ori	v1,v1,0x8
9d013f34:	00a01025 	move	v0,a1
9d013f38:	00022102 	srl	a0,v0,0x4
9d013f3c:	54800004 	bnezl	a0,9d013f50 <a_clz_64+0x4c>
9d013f40:	00041082 	srl	v0,a0,0x2
9d013f44:	34630004 	ori	v1,v1,0x4
9d013f48:	00402025 	move	a0,v0
9d013f4c:	00041082 	srl	v0,a0,0x2
9d013f50:	54400004 	bnezl	v0,9d013f64 <a_clz_64+0x60>
9d013f54:	00021042 	srl	v0,v0,0x1
9d013f58:	34630002 	ori	v1,v1,0x2
9d013f5c:	00801025 	move	v0,a0
9d013f60:	00021042 	srl	v0,v0,0x1
9d013f64:	38420001 	xori	v0,v0,0x1
9d013f68:	03e00008 	jr	ra
9d013f6c:	00431025 	or	v0,v0,v1

Disassembly of section .text.__putc_unbuffered:

9d013f70 <__putc_unbuffered>:
9d013f70:	8ca20004 	lw	v0,4(a1)
9d013f74:	27bdffe0 	addiu	sp,sp,-32
9d013f78:	308300ff 	andi	v1,a0,0xff
9d013f7c:	30420100 	andi	v0,v0,0x100
9d013f80:	afbf001c 	sw	ra,28(sp)
9d013f84:	1040000a 	beqz	v0,9d013fb0 <__putc_unbuffered+0x40>
9d013f88:	a3a30010 	sb	v1,16(sp)
9d013f8c:	8ca20014 	lw	v0,20(a1)
9d013f90:	308400ff 	andi	a0,a0,0xff
9d013f94:	24460001 	addiu	a2,v0,1
9d013f98:	aca60014 	sw	a2,20(a1)
9d013f9c:	a0430000 	sb	v1,0(v0)
9d013fa0:	8fbf001c 	lw	ra,28(sp)
9d013fa4:	00801025 	move	v0,a0
9d013fa8:	03e00008 	jr	ra
9d013fac:	27bd0020 	addiu	sp,sp,32
9d013fb0:	00a02025 	move	a0,a1
9d013fb4:	24060001 	li	a2,1
9d013fb8:	0f405253 	jal	9d01494c <__fwrite>
9d013fbc:	27a50010 	addiu	a1,sp,16
9d013fc0:	1040fff7 	beqz	v0,9d013fa0 <__putc_unbuffered+0x30>
9d013fc4:	2404ffff 	li	a0,-1
9d013fc8:	1000fff5 	b	9d013fa0 <__putc_unbuffered+0x30>
9d013fcc:	93a40010 	lbu	a0,16(sp)

Disassembly of section .text.bin_index:

9d013fd0 <bin_index>:
9d013fd0:	00042102 	srl	a0,a0,0x4
9d013fd4:	2484ffff 	addiu	a0,a0,-1
9d013fd8:	2c820021 	sltiu	v0,a0,33
9d013fdc:	14400012 	bnez	v0,9d014028 <bin_index+0x58>
9d013fe0:	00801025 	move	v0,a0
9d013fe4:	2c820200 	sltiu	v0,a0,512
9d013fe8:	10400007 	beqz	v0,9d014008 <bin_index+0x38>
9d013fec:	2c831c01 	sltiu	v1,a0,7169
9d013ff0:	3c029d01 	lui	v0,0x9d01
9d013ff4:	24424168 	addiu	v0,v0,16744
9d013ff8:	000420c2 	srl	a0,a0,0x3
9d013ffc:	00822021 	addu	a0,a0,v0
9d014000:	03e00008 	jr	ra
9d014004:	9082fffc 	lbu	v0,-4(a0)
9d014008:	10600007 	beqz	v1,9d014028 <bin_index+0x58>
9d01400c:	2402003f 	li	v0,63
9d014010:	3c029d01 	lui	v0,0x9d01
9d014014:	24424168 	addiu	v0,v0,16744
9d014018:	000421c2 	srl	a0,a0,0x7
9d01401c:	00822021 	addu	a0,a0,v0
9d014020:	9082fffc 	lbu	v0,-4(a0)
9d014024:	24420010 	addiu	v0,v0,16
9d014028:	03e00008 	jr	ra
9d01402c:	00000000 	nop

Disassembly of section .text.__fopen_std:

9d014030 <__fopen_std>:
9d014030:	27bdffe8 	addiu	sp,sp,-24
9d014034:	afb00010 	sw	s0,16(sp)
9d014038:	afbf0014 	sw	ra,20(sp)
9d01403c:	0f403e5d 	jal	9d00f974 <malloc>
9d014040:	24040038 	li	a0,56
9d014044:	1040000d 	beqz	v0,9d01407c <__fopen_std+0x4c>
9d014048:	00408025 	move	s0,v0
9d01404c:	24060038 	li	a2,56
9d014050:	00002825 	move	a1,zero
9d014054:	0f40533a 	jal	9d014ce8 <memset>
9d014058:	00402025 	move	a0,v0
9d01405c:	3c029d01 	lui	v0,0x9d01
9d014060:	24424d70 	addiu	v0,v0,19824
9d014064:	ae02002c 	sw	v0,44(s0)
9d014068:	3c029d01 	lui	v0,0x9d01
9d01406c:	244233a4 	addiu	v0,v0,13220
9d014070:	ae020030 	sw	v0,48(s0)
9d014074:	2402ffff 	li	v0,-1
9d014078:	a2020034 	sb	v0,52(s0)
9d01407c:	8fbf0014 	lw	ra,20(sp)
9d014080:	02001025 	move	v0,s0
9d014084:	8fb00010 	lw	s0,16(sp)
9d014088:	03e00008 	jr	ra
9d01408c:	27bd0018 	addiu	sp,sp,24

Disassembly of section .text.__sio_sprintf_dfoux:

9d014090 <__sio_sprintf_dfoux>:
9d014090:	27bdffe8 	addiu	sp,sp,-24
9d014094:	afbf0014 	sw	ra,20(sp)
9d014098:	0f404513 	jal	9d01144c <__fmt_d>
9d01409c:	00000000 	nop
9d0140a0:	0f40265f 	jal	9d00997c <__fmt_fp>
9d0140a4:	00000000 	nop
9d0140a8:	0f4048cb 	jal	9d01232c <__fmt_o>
9d0140ac:	00000000 	nop
9d0140b0:	0f404a48 	jal	9d012920 <__fmt_u>
9d0140b4:	00000000 	nop
9d0140b8:	0f403f9f 	jal	9d00fe7c <__fmt_x>
9d0140bc:	00000000 	nop
9d0140c0:	0f404bd4 	jal	9d012f50 <__fmt_s>
9d0140c4:	00000000 	nop
9d0140c8:	0f4050d5 	jal	9d014354 <__pop_float>
9d0140cc:	00000000 	nop
9d0140d0:	0f404944 	jal	9d012510 <__pop_ptr>
9d0140d4:	00000000 	nop
9d0140d8:	0f4041e2 	jal	9d010788 <__pop_int>
9d0140dc:	00000000 	nop
9d0140e0:	8fbf0014 	lw	ra,20(sp)
9d0140e4:	03e00008 	jr	ra
9d0140e8:	27bd0018 	addiu	sp,sp,24

Disassembly of section .text.__string_out:

9d0140ec <__string_out>:
9d0140ec:	8c820010 	lw	v0,16(a0)
9d0140f0:	27bdffe0 	addiu	sp,sp,-32
9d0140f4:	afb00014 	sw	s0,20(sp)
9d0140f8:	00808025 	move	s0,a0
9d0140fc:	8c840014 	lw	a0,20(a0)
9d014100:	afb10018 	sw	s1,24(sp)
9d014104:	00c2882b 	sltu	s1,a2,v0
9d014108:	0051300a 	movz	a2,v0,s1
9d01410c:	afbf001c 	sw	ra,28(sp)
9d014110:	0f4052b1 	jal	9d014ac4 <memcpy>
9d014114:	00c08825 	move	s1,a2
9d014118:	8e020014 	lw	v0,20(s0)
9d01411c:	8e060010 	lw	a2,16(s0)
9d014120:	00511021 	addu	v0,v0,s1
9d014124:	00d18823 	subu	s1,a2,s1
9d014128:	ae110010 	sw	s1,16(s0)
9d01412c:	ae020014 	sw	v0,20(s0)
9d014130:	a0400000 	sb	zero,0(v0)
9d014134:	8fbf001c 	lw	ra,28(sp)
9d014138:	8fb10018 	lw	s1,24(sp)
9d01413c:	8fb00014 	lw	s0,20(sp)
9d014140:	03e00008 	jr	ra
9d014144:	27bd0020 	addiu	sp,sp,32

Disassembly of section .rodata:

9d014148 <debruijn32.1767>:
9d014148:	02170100 0313181d 0b191b1e 0d040814     ................
9d014158:	121c161f 0c070a1a 06091115 0e0f0510     ................

9d014168 <bin_tab>:
9d014168:	23222120 25252424 27272626 28282828      !"#$$%%&&''((((
9d014178:	29292929 2a2a2a2a 2b2b2b2b 2c2c2c2c     ))))****++++,,,,
9d014188:	2c2c2c2c 2d2d2d2d 2d2d2d2d 2e2e2e2e     ,,,,--------....
9d014198:	2e2e2e2e 2f2f2f2f 2f2f2f2f              ....////////

Disassembly of section .text.__fmt_state:

9d0141a4 <__fmt_state>:
9d0141a4:	3c069d01 	lui	a2,0x9d01
9d0141a8:	00001025 	move	v0,zero
9d0141ac:	24c64ff0 	addiu	a2,a2,20464
9d0141b0:	00021840 	sll	v1,v0,0x1
9d0141b4:	00661821 	addu	v1,v1,a2
9d0141b8:	80670000 	lb	a3,0(v1)
9d0141bc:	54e00003 	bnezl	a3,9d0141cc <__fmt_state+0x28>
9d0141c0:	8c850000 	lw	a1,0(a0)
9d0141c4:	03e00008 	jr	ra
9d0141c8:	90620001 	lbu	v0,1(v1)
9d0141cc:	24420001 	addiu	v0,v0,1
9d0141d0:	80a80000 	lb	t0,0(a1)
9d0141d4:	15070004 	bne	t0,a3,9d0141e8 <__fmt_state+0x44>
9d0141d8:	304200ff 	andi	v0,v0,0xff
9d0141dc:	90620001 	lbu	v0,1(v1)
9d0141e0:	24a50001 	addiu	a1,a1,1
9d0141e4:	ac850000 	sw	a1,0(a0)
9d0141e8:	2c43000b 	sltiu	v1,v0,11
9d0141ec:	1460fff1 	bnez	v1,9d0141b4 <__fmt_state+0x10>
9d0141f0:	00021840 	sll	v1,v0,0x1
9d0141f4:	03e00008 	jr	ra
9d0141f8:	00000000 	nop

Disassembly of section .text.adjust_size:

9d0141fc <adjust_size>:
9d0141fc:	3c03a001 	lui	v1,0xa001
9d014200:	8c66a338 	lw	a2,-23752(v1)
9d014204:	8c820000 	lw	v0,0(a0)
9d014208:	3c037fff 	lui	v1,0x7fff
9d01420c:	3463ffef 	ori	v1,v1,0xffef
9d014210:	2445ffff 	addiu	a1,v0,-1
9d014214:	00661823 	subu	v1,v1,a2
9d014218:	0065182b 	sltu	v1,v1,a1
9d01421c:	5060000b 	beqzl	v1,9d01424c <adjust_size+0x50>
9d014220:	24420017 	addiu	v0,v0,23
9d014224:	10400005 	beqz	v0,9d01423c <adjust_size+0x40>
9d014228:	2403000c 	li	v1,12
9d01422c:	3c02a001 	lui	v0,0xa001
9d014230:	ac43a378 	sw	v1,-23688(v0)
9d014234:	03e00008 	jr	ra
9d014238:	2402ffff 	li	v0,-1
9d01423c:	24020010 	li	v0,16
9d014240:	ac820000 	sw	v0,0(a0)
9d014244:	03e00008 	jr	ra
9d014248:	00001025 	move	v0,zero
9d01424c:	1000fffc 	b	9d014240 <adjust_size+0x44>
9d014250:	7c021804 	ins	v0,zero,0x0,0x4

Disassembly of section .text.trim:

9d014254 <trim>:
9d014254:	8c820004 	lw	v0,4(a0)
9d014258:	7c020004 	ins	v0,zero,0x0,0x1
9d01425c:	00451823 	subu	v1,v0,a1
9d014260:	2c660011 	sltiu	a2,v1,17
9d014264:	14c0000f 	bnez	a2,9d0142a4 <trim+0x50>
9d014268:	00853021 	addu	a2,a0,a1
9d01426c:	27bdffe8 	addiu	sp,sp,-24
9d014270:	34a50001 	ori	a1,a1,0x1
9d014274:	34630001 	ori	v1,v1,0x1
9d014278:	00821021 	addu	v0,a0,v0
9d01427c:	afbf0014 	sw	ra,20(sp)
9d014280:	acc50000 	sw	a1,0(a2)
9d014284:	acc30004 	sw	v1,4(a2)
9d014288:	ac430000 	sw	v1,0(v0)
9d01428c:	ac850004 	sw	a1,4(a0)
9d014290:	0f40417c 	jal	9d0105f0 <free>
9d014294:	24c40008 	addiu	a0,a2,8
9d014298:	8fbf0014 	lw	ra,20(sp)
9d01429c:	03e00008 	jr	ra
9d0142a0:	27bd0018 	addiu	sp,sp,24
9d0142a4:	03e00008 	jr	ra
9d0142a8:	00000000 	nop

Disassembly of section .text.main_entry:

9d0142ac <_main_entry>:
9d0142ac:	3c040000 	lui	a0,0x0
9d0142b0:	27bdffe8 	addiu	sp,sp,-24
9d0142b4:	24840000 	addiu	a0,a0,0
9d0142b8:	10800003 	beqz	a0,9d0142c8 <_main_entry+0x1c>
9d0142bc:	afbf0014 	sw	ra,20(sp)
9d0142c0:	0080f809 	jalr	a0
9d0142c4:	00000000 	nop
9d0142c8:	30840000 	andi	a0,a0,0x0
9d0142cc:	30a50000 	andi	a1,a1,0x0
9d0142d0:	3c089d01 	lui	t0,0x9d01
9d0142d4:	2508a244 	addiu	t0,t0,-23996
9d0142d8:	0100f809 	jalr	t0
9d0142dc:	00000000 	nop

9d0142e0 <__crt0_exit>:
9d0142e0:	3c020000 24420000 10400003 00000000     ...<..B$..@.....
9d0142f0:	0040f809 00000000 1000fff9 00000000     ..@.............

Disassembly of section .text.__uflow:

9d014300 <__uflow>:
9d014300:	27bdffe0 	addiu	sp,sp,-32
9d014304:	afb00018 	sw	s0,24(sp)
9d014308:	afbf001c 	sw	ra,28(sp)
9d01430c:	0f404cc4 	jal	9d013310 <__toread>
9d014310:	00808025 	move	s0,a0
9d014314:	50400006 	beqzl	v0,9d014330 <__uflow+0x30>
9d014318:	8e020044 	lw	v0,68(s0)
9d01431c:	2402ffff 	li	v0,-1
9d014320:	8fbf001c 	lw	ra,28(sp)
9d014324:	8fb00018 	lw	s0,24(sp)
9d014328:	03e00008 	jr	ra
9d01432c:	27bd0020 	addiu	sp,sp,32
9d014330:	24060001 	li	a2,1
9d014334:	27a50010 	addiu	a1,sp,16
9d014338:	0040f809 	jalr	v0
9d01433c:	02002025 	move	a0,s0
9d014340:	24030001 	li	v1,1
9d014344:	1443fff5 	bne	v0,v1,9d01431c <__uflow+0x1c>
9d014348:	93a20010 	lbu	v0,16(sp)
9d01434c:	1000fff5 	b	9d014324 <__uflow+0x24>
9d014350:	8fbf001c 	lw	ra,28(sp)

Disassembly of section .text.__pop_float:

9d014354 <__pop_float>:
9d014354:	28a30080 	slti	v1,a1,128
9d014358:	14600010 	bnez	v1,9d01439c <__pop_float+0x48>
9d01435c:	00001025 	move	v0,zero
9d014360:	28a30082 	slti	v1,a1,130
9d014364:	14600003 	bnez	v1,9d014374 <__pop_float+0x20>
9d014368:	24030083 	li	v1,131
9d01436c:	14a3000b 	bne	a1,v1,9d01439c <__pop_float+0x48>
9d014370:	00000000 	nop
9d014374:	8cc20000 	lw	v0,0(a2)
9d014378:	24420007 	addiu	v0,v0,7
9d01437c:	7c021004 	ins	v0,zero,0x0,0x3
9d014380:	24430008 	addiu	v1,v0,8
9d014384:	acc30000 	sw	v1,0(a2)
9d014388:	8c430004 	lw	v1,4(v0)
9d01438c:	8c420000 	lw	v0,0(v0)
9d014390:	ac830004 	sw	v1,4(a0)
9d014394:	ac820000 	sw	v0,0(a0)
9d014398:	24020001 	li	v0,1
9d01439c:	03e00008 	jr	ra
9d0143a0:	00000000 	nop

Disassembly of section .text.__malloc0:

9d0143a4 <__malloc0>:
9d0143a4:	27bdffe8 	addiu	sp,sp,-24
9d0143a8:	afb00010 	sw	s0,16(sp)
9d0143ac:	afbf0014 	sw	ra,20(sp)
9d0143b0:	0f403e5d 	jal	9d00f974 <malloc>
9d0143b4:	00808025 	move	s0,a0
9d0143b8:	10400006 	beqz	v0,9d0143d4 <__malloc0+0x30>
9d0143bc:	26100003 	addiu	s0,s0,3
9d0143c0:	7c100804 	ins	s0,zero,0x0,0x2
9d0143c4:	00508021 	addu	s0,v0,s0
9d0143c8:	00401825 	move	v1,v0
9d0143cc:	54700005 	bnel	v1,s0,9d0143e4 <__malloc0+0x40>
9d0143d0:	8c640000 	lw	a0,0(v1)
9d0143d4:	8fbf0014 	lw	ra,20(sp)
9d0143d8:	8fb00010 	lw	s0,16(sp)
9d0143dc:	03e00008 	jr	ra
9d0143e0:	27bd0018 	addiu	sp,sp,24
9d0143e4:	54800001 	bnezl	a0,9d0143ec <__malloc0+0x48>
9d0143e8:	ac600000 	sw	zero,0(v1)
9d0143ec:	1000fff7 	b	9d0143cc <__malloc0+0x28>
9d0143f0:	24630004 	addiu	v1,v1,4

Disassembly of section .text.__stdio_exit:

9d0143f4 <__stdio_exit>:
9d0143f4:	27bdffe8 	addiu	sp,sp,-24
9d0143f8:	afbf0014 	sw	ra,20(sp)
9d0143fc:	0f40542c 	jal	9d0150b0 <__stdio_exit_ofl>
9d014400:	00000000 	nop
9d014404:	3c02a001 	lui	v0,0xa001
9d014408:	8c44a08c 	lw	a0,-24436(v0)
9d01440c:	0f405238 	jal	9d0148e0 <__fclose>
9d014410:	00002825 	move	a1,zero
9d014414:	3c02a001 	lui	v0,0xa001
9d014418:	8c44a08c 	lw	a0,-24436(v0)
9d01441c:	0f405238 	jal	9d0148e0 <__fclose>
9d014420:	00002825 	move	a1,zero
9d014424:	3c02a001 	lui	v0,0xa001
9d014428:	8c44a08c 	lw	a0,-24436(v0)
9d01442c:	0f405238 	jal	9d0148e0 <__fclose>
9d014430:	00002825 	move	a1,zero
9d014434:	8fbf0014 	lw	ra,20(sp)
9d014438:	03e00008 	jr	ra
9d01443c:	27bd0018 	addiu	sp,sp,24

Disassembly of section .text.sbrk:

9d014440 <sbrk>:
9d014440:	27bdffe8 	addiu	sp,sp,-24
9d014444:	afb00010 	sw	s0,16(sp)
9d014448:	afbf0014 	sw	ra,20(sp)
9d01444c:	0f404afe 	jal	9d012bf8 <_sbrk>
9d014450:	00808025 	move	s0,a0
9d014454:	1a000008 	blez	s0,9d014478 <sbrk+0x38>
9d014458:	00401825 	move	v1,v0
9d01445c:	2402ffff 	li	v0,-1
9d014460:	10620005 	beq	v1,v0,9d014478 <sbrk+0x38>
9d014464:	00602025 	move	a0,v1
9d014468:	02003025 	move	a2,s0
9d01446c:	0f40533a 	jal	9d014ce8 <memset>
9d014470:	00002825 	move	a1,zero
9d014474:	00401825 	move	v1,v0
9d014478:	8fbf0014 	lw	ra,20(sp)
9d01447c:	00601025 	move	v0,v1
9d014480:	8fb00010 	lw	s0,16(sp)
9d014484:	03e00008 	jr	ra
9d014488:	27bd0018 	addiu	sp,sp,24

Disassembly of section .text._bootstrap_exception_handler:

9d01448c <_bootstrap_exception_handler>:
9d01448c:	3c020000 	lui	v0,0x0
9d014490:	24420000 	addiu	v0,v0,0
9d014494:	10400005 	beqz	v0,9d0144ac <_bootstrap_exception_handler+0x20>
9d014498:	3c020000 	lui	v0,0x0
9d01449c:	24420000 	addiu	v0,v0,0
9d0144a0:	10400003 	beqz	v0,9d0144b0 <_bootstrap_exception_handler+0x24>
9d0144a4:	3c029d01 	lui	v0,0x9d01
9d0144a8:	7000003f 	sdbbp
9d0144ac:	3c029d01 	lui	v0,0x9d01
9d0144b0:	244245f4 	addiu	v0,v0,17908
9d0144b4:	10400005 	beqz	v0,9d0144cc <_bootstrap_exception_handler+0x40>
9d0144b8:	00000000 	nop
9d0144bc:	27bdffe8 	addiu	sp,sp,-24
9d0144c0:	afbf0014 	sw	ra,20(sp)
9d0144c4:	0040f809 	jalr	v0
9d0144c8:	00000000 	nop
9d0144cc:	1000ffff 	b	9d0144cc <_bootstrap_exception_handler+0x40>
9d0144d0:	00000000 	nop

Disassembly of section .text._general_exception_handler:

9d0144d4 <_general_exception_handler>:
9d0144d4:	3c020000 	lui	v0,0x0
9d0144d8:	24420000 	addiu	v0,v0,0
9d0144dc:	10400005 	beqz	v0,9d0144f4 <_general_exception_handler+0x20>
9d0144e0:	3c020000 	lui	v0,0x0
9d0144e4:	24420000 	addiu	v0,v0,0
9d0144e8:	10400003 	beqz	v0,9d0144f8 <_general_exception_handler+0x24>
9d0144ec:	3c029d01 	lui	v0,0x9d01
9d0144f0:	7000003f 	sdbbp
9d0144f4:	3c029d01 	lui	v0,0x9d01
9d0144f8:	244245f4 	addiu	v0,v0,17908
9d0144fc:	10400005 	beqz	v0,9d014514 <_general_exception_handler+0x40>
9d014500:	00000000 	nop
9d014504:	27bdffe8 	addiu	sp,sp,-24
9d014508:	afbf0014 	sw	ra,20(sp)
9d01450c:	0040f809 	jalr	v0
9d014510:	00000000 	nop
9d014514:	1000ffff 	b	9d014514 <_general_exception_handler+0x40>
9d014518:	00000000 	nop

Disassembly of section .vector_default:

9d01451c <_DefaultInterrupt>:
9d01451c:	3c020000 	lui	v0,0x0
9d014520:	24420000 	addiu	v0,v0,0
9d014524:	10400007 	beqz	v0,9d014544 <_DefaultInterrupt+0x28>
9d014528:	3c020000 	lui	v0,0x0
9d01452c:	24420000 	addiu	v0,v0,0
9d014530:	50400005 	beqzl	v0,9d014548 <_DefaultInterrupt+0x2c>
9d014534:	3c029d01 	lui	v0,0x9d01
9d014538:	7000003f 	sdbbp
9d01453c:	03e00008 	jr	ra
9d014540:	00000000 	nop
9d014544:	3c029d01 	lui	v0,0x9d01
9d014548:	244245f4 	addiu	v0,v0,17908
9d01454c:	10400003 	beqz	v0,9d01455c <_DefaultInterrupt+0x40>
9d014550:	00000000 	nop
9d014554:	0040f809 	jalr	v0
9d014558:	00000000 	nop
9d01455c:	03e00008 	jr	ra
9d014560:	00000000 	nop

Disassembly of section .text.__ftello_adj_rw:

9d014564 <__ftello_adj_rw>:
9d014564:	8c820004 	lw	v0,4(a0)
9d014568:	30460002 	andi	a2,v0,0x2
9d01456c:	14c00004 	bnez	a2,9d014580 <__ftello_adj_rw+0x1c>
9d014570:	00001825 	move	v1,zero
9d014574:	8c830040 	lw	v1,64(a0)
9d014578:	8c86003c 	lw	a2,60(a0)
9d01457c:	00661823 	subu	v1,v1,a2
9d014580:	8c870014 	lw	a3,20(a0)
9d014584:	8c860018 	lw	a2,24(a0)
9d014588:	00e62023 	subu	a0,a3,a2
9d01458c:	00831821 	addu	v1,a0,v1
9d014590:	aca30000 	sw	v1,0(a1)
9d014594:	30430040 	andi	v1,v0,0x40
9d014598:	10600002 	beqz	v1,9d0145a4 <__ftello_adj_rw+0x40>
9d01459c:	00001025 	move	v0,zero
9d0145a0:	00c7102b 	sltu	v0,a2,a3
9d0145a4:	03e00008 	jr	ra
9d0145a8:	00000000 	nop

Disassembly of section .text.__stdio_seek_unbuffered:

9d0145ac <__stdio_seek_unbuffered>:
9d0145ac:	27bdffe8 	addiu	sp,sp,-24
9d0145b0:	afb00010 	sw	s0,16(sp)
9d0145b4:	00808025 	move	s0,a0
9d0145b8:	8c840000 	lw	a0,0(a0)
9d0145bc:	afbf0014 	sw	ra,20(sp)
9d0145c0:	0f40543a 	jal	9d0150e8 <lseek>
9d0145c4:	00000000 	nop
9d0145c8:	04400005 	bltz	v0,9d0145e0 <__stdio_seek_unbuffered+0x34>
9d0145cc:	2403ffff 	li	v1,-1
9d0145d0:	8e020004 	lw	v0,4(s0)
9d0145d4:	00001825 	move	v1,zero
9d0145d8:	7c0218c4 	ins	v0,zero,0x3,0x1
9d0145dc:	ae020004 	sw	v0,4(s0)
9d0145e0:	8fbf0014 	lw	ra,20(sp)
9d0145e4:	00601025 	move	v0,v1
9d0145e8:	8fb00010 	lw	s0,16(sp)
9d0145ec:	03e00008 	jr	ra
9d0145f0:	27bd0018 	addiu	sp,sp,24

Disassembly of section .text:

9d0145f4 <__pic32_software_reset>:
9d0145f4:	41606000 	di
9d0145f8:	000000c0 	ehb
9d0145fc:	3c03aa99 	lui	v1,0xaa99
9d014600:	3c02bf81 	lui	v0,0xbf81
9d014604:	24636655 	addiu	v1,v1,26197
9d014608:	ac40f230 	sw	zero,-3536(v0)
9d01460c:	ac43f230 	sw	v1,-3536(v0)
9d014610:	3c035566 	lui	v1,0x5566
9d014614:	346399aa 	ori	v1,v1,0x99aa
9d014618:	ac43f230 	sw	v1,-3536(v0)
9d01461c:	3c02bf81 	lui	v0,0xbf81
9d014620:	24030001 	li	v1,1
9d014624:	ac43f618 	sw	v1,-2536(v0)
9d014628:	3c02bf81 	lui	v0,0xbf81
9d01462c:	8c42f610 	lw	v0,-2544(v0)
9d014630:	0b40517f 	j	9d0145fc <__pic32_software_reset+0x8>
9d014634:	00000000 	nop

Disassembly of section .text.__sio_sscanf_dfoux:

9d014638 <__sio_sscanf_dfoux>:
9d014638:	27bdffe8 	addiu	sp,sp,-24
9d01463c:	afbf0014 	sw	ra,20(sp)
9d014640:	0f404f1a 	jal	9d013c68 <__scan_d>
9d014644:	00000000 	nop
9d014648:	0f4037c5 	jal	9d00df14 <__scan_fp>
9d01464c:	00000000 	nop
9d014650:	0f404469 	jal	9d0111a4 <__scan_o>
9d014654:	00000000 	nop
9d014658:	0f404f36 	jal	9d013cd8 <__scan_u>
9d01465c:	00000000 	nop
9d014660:	0f404021 	jal	9d010084 <__scan_x>
9d014664:	00000000 	nop
9d014668:	0f404413 	jal	9d01104c <__scan_s>
9d01466c:	00000000 	nop
9d014670:	8fbf0014 	lw	ra,20(sp)
9d014674:	03e00008 	jr	ra
9d014678:	27bd0018 	addiu	sp,sp,24

Disassembly of section .text.__towrite:

9d01467c <__towrite>:
9d01467c:	27bdffe8 	addiu	sp,sp,-24
9d014680:	afb00010 	sw	s0,16(sp)
9d014684:	afbf0014 	sw	ra,20(sp)
9d014688:	0f4051cf 	jal	9d01473c <__towrite_rw>
9d01468c:	00808025 	move	s0,a0
9d014690:	14400008 	bnez	v0,9d0146b4 <__towrite+0x38>
9d014694:	8fbf0014 	lw	ra,20(sp)
9d014698:	8e030008 	lw	v1,8(s0)
9d01469c:	8e04000c 	lw	a0,12(s0)
9d0146a0:	ae030018 	sw	v1,24(s0)
9d0146a4:	ae030014 	sw	v1,20(s0)
9d0146a8:	00641821 	addu	v1,v1,a0
9d0146ac:	ae030028 	sw	v1,40(s0)
9d0146b0:	8fbf0014 	lw	ra,20(sp)
9d0146b4:	8fb00010 	lw	s0,16(sp)
9d0146b8:	03e00008 	jr	ra
9d0146bc:	27bd0018 	addiu	sp,sp,24

Disassembly of section .text:

9d0146c0 <__floatunsidf>:
9d0146c0:	27bdffe8 	addiu	sp,sp,-24
9d0146c4:	afb00010 	sw	s0,16(sp)
9d0146c8:	afbf0014 	sw	ra,20(sp)
9d0146cc:	0f404ec2 	jal	9d013b08 <__floatsidf>
9d0146d0:	00808025 	move	s0,a0
9d0146d4:	06010006 	bgez	s0,9d0146f0 <__floatunsidf+0x30>
9d0146d8:	00602825 	move	a1,v1
9d0146dc:	3c049d00 	lui	a0,0x9d00
9d0146e0:	8c867650 	lw	a2,30288(a0)
9d0146e4:	8c877654 	lw	a3,30292(a0)
9d0146e8:	0f4036bb 	jal	9d00daec <__adddf3>
9d0146ec:	00402025 	move	a0,v0
9d0146f0:	8fbf0014 	lw	ra,20(sp)
9d0146f4:	8fb00010 	lw	s0,16(sp)
9d0146f8:	03e00008 	jr	ra
9d0146fc:	27bd0018 	addiu	sp,sp,24

Disassembly of section .text.__sio_sscanf_doux:

9d014700 <__sio_sscanf_doux>:
9d014700:	27bdffe8 	addiu	sp,sp,-24
9d014704:	afbf0014 	sw	ra,20(sp)
9d014708:	0f404f1a 	jal	9d013c68 <__scan_d>
9d01470c:	00000000 	nop
9d014710:	0f404469 	jal	9d0111a4 <__scan_o>
9d014714:	00000000 	nop
9d014718:	0f404f36 	jal	9d013cd8 <__scan_u>
9d01471c:	00000000 	nop
9d014720:	0f404021 	jal	9d010084 <__scan_x>
9d014724:	00000000 	nop
9d014728:	0f404413 	jal	9d01104c <__scan_s>
9d01472c:	00000000 	nop
9d014730:	8fbf0014 	lw	ra,20(sp)
9d014734:	03e00008 	jr	ra
9d014738:	27bd0018 	addiu	sp,sp,24

Disassembly of section .text.__towrite_rw:

9d01473c <__towrite_rw>:
9d01473c:	80820048 	lb	v0,72(a0)
9d014740:	2443ffff 	addiu	v1,v0,-1
9d014744:	00431025 	or	v0,v0,v1
9d014748:	a0820048 	sb	v0,72(a0)
9d01474c:	8c820004 	lw	v0,4(a0)
9d014750:	30430004 	andi	v1,v0,0x4
9d014754:	50600005 	beqzl	v1,9d01476c <__towrite_rw+0x30>
9d014758:	ac800040 	sw	zero,64(a0)
9d01475c:	34420010 	ori	v0,v0,0x10
9d014760:	ac820004 	sw	v0,4(a0)
9d014764:	03e00008 	jr	ra
9d014768:	2402ffff 	li	v0,-1
9d01476c:	ac80003c 	sw	zero,60(a0)
9d014770:	03e00008 	jr	ra
9d014774:	00001025 	move	v0,zero

Disassembly of section .text.__vfscanf:

9d014778 <__vfscanf>:
9d014778:	27bdffe0 	addiu	sp,sp,-32
9d01477c:	afb00018 	sw	s0,24(sp)
9d014780:	afa60010 	sw	a2,16(sp)
9d014784:	00808025 	move	s0,a0
9d014788:	afbf001c 	sw	ra,28(sp)
9d01478c:	0f402a68 	jal	9d00a9a0 <__scanf_core>
9d014790:	27a60010 	addiu	a2,sp,16
9d014794:	8e030004 	lw	v1,4(s0)
9d014798:	8fbf001c 	lw	ra,28(sp)
9d01479c:	2404ffff 	li	a0,-1
9d0147a0:	30630010 	andi	v1,v1,0x10
9d0147a4:	0083100b 	movn	v0,a0,v1
9d0147a8:	8fb00018 	lw	s0,24(sp)
9d0147ac:	03e00008 	jr	ra
9d0147b0:	27bd0020 	addiu	sp,sp,32

Disassembly of section .text.__expand_heap:

9d0147b4 <__expand_heap>:
9d0147b4:	8c840000 	lw	a0,0(a0)
9d0147b8:	04810003 	bgez	a0,9d0147c8 <__expand_heap+0x14>
9d0147bc:	00001025 	move	v0,zero
9d0147c0:	03e00008 	jr	ra
9d0147c4:	00000000 	nop
9d0147c8:	27bdffe8 	addiu	sp,sp,-24
9d0147cc:	afbf0014 	sw	ra,20(sp)
9d0147d0:	0f404afe 	jal	9d012bf8 <_sbrk>
9d0147d4:	00000000 	nop
9d0147d8:	2403ffff 	li	v1,-1
9d0147dc:	50430001 	beql	v0,v1,9d0147e4 <__expand_heap+0x30>
9d0147e0:	00001025 	move	v0,zero
9d0147e4:	8fbf0014 	lw	ra,20(sp)
9d0147e8:	03e00008 	jr	ra
9d0147ec:	27bd0018 	addiu	sp,sp,24

Disassembly of section .text.__vfprintf:

9d0147f0 <__vfprintf>:
9d0147f0:	27bdffe0 	addiu	sp,sp,-32
9d0147f4:	afb00018 	sw	s0,24(sp)
9d0147f8:	afa60010 	sw	a2,16(sp)
9d0147fc:	00808025 	move	s0,a0
9d014800:	afbf001c 	sw	ra,28(sp)
9d014804:	0f402fd6 	jal	9d00bf58 <__printf_core>
9d014808:	27a60010 	addiu	a2,sp,16
9d01480c:	8e030004 	lw	v1,4(s0)
9d014810:	8fbf001c 	lw	ra,28(sp)
9d014814:	2404ffff 	li	a0,-1
9d014818:	30630010 	andi	v1,v1,0x10
9d01481c:	0083100b 	movn	v0,a0,v1
9d014820:	8fb00018 	lw	s0,24(sp)
9d014824:	03e00008 	jr	ra
9d014828:	27bd0020 	addiu	sp,sp,32

Disassembly of section .text.logbf:

9d01482c <logbf>:
9d01482c:	27bdffe8 	addiu	sp,sp,-24
9d014830:	afbf0014 	sw	ra,20(sp)
9d014834:	0f40488b 	jal	9d01222c <__truncdfsf2>
9d014838:	00000000 	nop
9d01483c:	0f404b55 	jal	9d012d54 <__extendsfdf2>
9d014840:	00402025 	move	a0,v0
9d014844:	00402025 	move	a0,v0
9d014848:	0f404737 	jal	9d011cdc <logbl>
9d01484c:	00602825 	move	a1,v1
9d014850:	00402025 	move	a0,v0
9d014854:	0f40488b 	jal	9d01222c <__truncdfsf2>
9d014858:	00602825 	move	a1,v1
9d01485c:	8fbf0014 	lw	ra,20(sp)
9d014860:	03e00008 	jr	ra
9d014864:	27bd0018 	addiu	sp,sp,24

Disassembly of section .text:

9d014868 <__lshrdi3>:
9d014868:	10c00008 	beqz	a2,9d01488c <__lshrdi3+0x24>
9d01486c:	00801025 	move	v0,a0
9d014870:	24030020 	li	v1,32
9d014874:	00661823 	subu	v1,v1,a2
9d014878:	1c600006 	bgtz	v1,9d014894 <__lshrdi3+0x2c>
9d01487c:	00c52006 	srlv	a0,a1,a2
9d014880:	00002025 	move	a0,zero
9d014884:	00c51006 	srlv	v0,a1,a2
9d014888:	00802825 	move	a1,a0
9d01488c:	03e00008 	jr	ra
9d014890:	00a01825 	move	v1,a1
9d014894:	00c21006 	srlv	v0,v0,a2
9d014898:	00652804 	sllv	a1,a1,v1
9d01489c:	1000fffa 	b	9d014888 <__lshrdi3+0x20>
9d0148a0:	00451025 	or	v0,v0,a1

9d0148a4 <__ashldi3>:
9d0148a4:	10c00008 	beqz	a2,9d0148c8 <__ashldi3+0x24>
9d0148a8:	00801025 	move	v0,a0
9d0148ac:	24040020 	li	a0,32
9d0148b0:	00862023 	subu	a0,a0,a2
9d0148b4:	5c800006 	bgtzl	a0,9d0148d0 <__ashldi3+0x2c>
9d0148b8:	00c21804 	sllv	v1,v0,a2
9d0148bc:	00001825 	move	v1,zero
9d0148c0:	00c22804 	sllv	a1,v0,a2
9d0148c4:	00601025 	move	v0,v1
9d0148c8:	03e00008 	jr	ra
9d0148cc:	00a01825 	move	v1,a1
9d0148d0:	00c52804 	sllv	a1,a1,a2
9d0148d4:	00821006 	srlv	v0,v0,a0
9d0148d8:	1000fffa 	b	9d0148c4 <__ashldi3+0x20>
9d0148dc:	00a22825 	or	a1,a1,v0

Disassembly of section .text.__fclose:

9d0148e0 <__fclose>:
9d0148e0:	1080000b 	beqz	a0,9d014910 <__fclose+0x30>
9d0148e4:	00001025 	move	v0,zero
9d0148e8:	8c83001c 	lw	v1,28(a0)
9d0148ec:	10600008 	beqz	v1,9d014910 <__fclose+0x30>
9d0148f0:	00000000 	nop
9d0148f4:	27bdffe8 	addiu	sp,sp,-24
9d0148f8:	afbf0014 	sw	ra,20(sp)
9d0148fc:	0060f809 	jalr	v1
9d014900:	00000000 	nop
9d014904:	8fbf0014 	lw	ra,20(sp)
9d014908:	03e00008 	jr	ra
9d01490c:	27bd0018 	addiu	sp,sp,24
9d014910:	03e00008 	jr	ra
9d014914:	00000000 	nop

Disassembly of section .text.lock_bin:

9d014918 <lock_bin>:
9d014918:	24840001 	addiu	a0,a0,1
9d01491c:	000410c0 	sll	v0,a0,0x3
9d014920:	3c04a001 	lui	a0,0xa001
9d014924:	2484a098 	addiu	a0,a0,-24424
9d014928:	00441821 	addu	v1,v0,a0
9d01492c:	8c650000 	lw	a1,0(v1)
9d014930:	14a00004 	bnez	a1,9d014944 <lock_bin+0x2c>
9d014934:	2442fff8 	addiu	v0,v0,-8
9d014938:	00822021 	addu	a0,a0,v0
9d01493c:	ac640004 	sw	a0,4(v1)
9d014940:	ac640000 	sw	a0,0(v1)
9d014944:	03e00008 	jr	ra
9d014948:	00000000 	nop

Disassembly of section .text.__fwrite:

9d01494c <__fwrite>:
9d01494c:	8c83002c 	lw	v1,44(a0)
9d014950:	27bdffe8 	addiu	sp,sp,-24
9d014954:	10600006 	beqz	v1,9d014970 <__fwrite+0x24>
9d014958:	afbf0014 	sw	ra,20(sp)
9d01495c:	0060f809 	jalr	v1
9d014960:	00000000 	nop
9d014964:	8fbf0014 	lw	ra,20(sp)
9d014968:	03e00008 	jr	ra
9d01496c:	27bd0018 	addiu	sp,sp,24
9d014970:	0f404de2 	jal	9d013788 <write>
9d014974:	8c840000 	lw	a0,0(a0)
9d014978:	1000fffb 	b	9d014968 <__fwrite+0x1c>
9d01497c:	8fbf0014 	lw	ra,20(sp)

Disassembly of section .text.finitef:

9d014980 <finitef>:
9d014980:	27bdffe8 	addiu	sp,sp,-24
9d014984:	afbf0014 	sw	ra,20(sp)
9d014988:	0f40488b 	jal	9d01222c <__truncdfsf2>
9d01498c:	00000000 	nop
9d014990:	0f404b55 	jal	9d012d54 <__extendsfdf2>
9d014994:	00402025 	move	a0,v0
9d014998:	00031403 	sra	v0,v1,0x10
9d01499c:	8fbf0014 	lw	ra,20(sp)
9d0149a0:	30427ff0 	andi	v0,v0,0x7ff0
9d0149a4:	38427ff0 	xori	v0,v0,0x7ff0
9d0149a8:	0002102b 	sltu	v0,zero,v0
9d0149ac:	03e00008 	jr	ra
9d0149b0:	27bd0018 	addiu	sp,sp,24

Disassembly of section .text.memchr:

9d0149b4 <memchr>:
9d0149b4:	00801025 	move	v0,a0
9d0149b8:	30a500ff 	andi	a1,a1,0xff
9d0149bc:	00863021 	addu	a2,a0,a2
9d0149c0:	54460004 	bnel	v0,a2,9d0149d4 <memchr+0x20>
9d0149c4:	90430000 	lbu	v1,0(v0)
9d0149c8:	00001025 	move	v0,zero
9d0149cc:	03e00008 	jr	ra
9d0149d0:	00000000 	nop
9d0149d4:	1065fffd 	beq	v1,a1,9d0149cc <memchr+0x18>
9d0149d8:	00000000 	nop
9d0149dc:	1000fff8 	b	9d0149c0 <memchr+0xc>
9d0149e0:	24420001 	addiu	v0,v0,1

Disassembly of section .text.copysign:

9d0149e4 <copysign>:
9d0149e4:	00071c02 	srl	v1,a3,0x10
9d0149e8:	7c037004 	ins	v1,zero,0x0,0xf
9d0149ec:	7ca27400 	ext	v0,a1,0x10,0xf
9d0149f0:	27bdfff8 	addiu	sp,sp,-8
9d0149f4:	00431025 	or	v0,v0,v1
9d0149f8:	afa50004 	sw	a1,4(sp)
9d0149fc:	afa40000 	sw	a0,0(sp)
9d014a00:	a7a20006 	sh	v0,6(sp)
9d014a04:	8fa30004 	lw	v1,4(sp)
9d014a08:	8fa20000 	lw	v0,0(sp)
9d014a0c:	03e00008 	jr	ra
9d014a10:	27bd0008 	addiu	sp,sp,8

Disassembly of section .text.strtoull:

9d014a14 <strtoull>:
9d014a14:	27bdffe0 	addiu	sp,sp,-32
9d014a18:	2402ffff 	li	v0,-1
9d014a1c:	2403ffff 	li	v1,-1
9d014a20:	afa20010 	sw	v0,16(sp)
9d014a24:	afa30014 	sw	v1,20(sp)
9d014a28:	afbf001c 	sw	ra,28(sp)
9d014a2c:	0f404a77 	jal	9d0129dc <strtox>
9d014a30:	00000000 	nop
9d014a34:	8fbf001c 	lw	ra,28(sp)
9d014a38:	03e00008 	jr	ra
9d014a3c:	27bd0020 	addiu	sp,sp,32

Disassembly of section .text.strtoll:

9d014a40 <strtoll>:
9d014a40:	27bdffe0 	addiu	sp,sp,-32
9d014a44:	00001025 	move	v0,zero
9d014a48:	3c038000 	lui	v1,0x8000
9d014a4c:	afa20010 	sw	v0,16(sp)
9d014a50:	afa30014 	sw	v1,20(sp)
9d014a54:	afbf001c 	sw	ra,28(sp)
9d014a58:	0f404a77 	jal	9d0129dc <strtox>
9d014a5c:	00000000 	nop
9d014a60:	8fbf001c 	lw	ra,28(sp)
9d014a64:	03e00008 	jr	ra
9d014a68:	27bd0020 	addiu	sp,sp,32

Disassembly of section .text.strtoul:

9d014a6c <strtoul>:
9d014a6c:	27bdffe0 	addiu	sp,sp,-32
9d014a70:	2402ffff 	li	v0,-1
9d014a74:	00001825 	move	v1,zero
9d014a78:	afa20010 	sw	v0,16(sp)
9d014a7c:	afa30014 	sw	v1,20(sp)
9d014a80:	afbf001c 	sw	ra,28(sp)
9d014a84:	0f404a77 	jal	9d0129dc <strtox>
9d014a88:	00000000 	nop
9d014a8c:	8fbf001c 	lw	ra,28(sp)
9d014a90:	03e00008 	jr	ra
9d014a94:	27bd0020 	addiu	sp,sp,32

Disassembly of section .text.strtol:

9d014a98 <strtol>:
9d014a98:	27bdffe0 	addiu	sp,sp,-32
9d014a9c:	3c028000 	lui	v0,0x8000
9d014aa0:	00001825 	move	v1,zero
9d014aa4:	afa20010 	sw	v0,16(sp)
9d014aa8:	afa30014 	sw	v1,20(sp)
9d014aac:	afbf001c 	sw	ra,28(sp)
9d014ab0:	0f404a77 	jal	9d0129dc <strtox>
9d014ab4:	00000000 	nop
9d014ab8:	8fbf001c 	lw	ra,28(sp)
9d014abc:	03e00008 	jr	ra
9d014ac0:	27bd0020 	addiu	sp,sp,32

Disassembly of section .text.memcpy:

9d014ac4 <memcpy>:
9d014ac4:	00801025 	move	v0,a0
9d014ac8:	00001825 	move	v1,zero
9d014acc:	14c30003 	bne	a2,v1,9d014adc <memcpy+0x18>
9d014ad0:	00a33821 	addu	a3,a1,v1
9d014ad4:	03e00008 	jr	ra
9d014ad8:	00000000 	nop
9d014adc:	90e70000 	lbu	a3,0(a3)
9d014ae0:	00432021 	addu	a0,v0,v1
9d014ae4:	24630001 	addiu	v1,v1,1
9d014ae8:	1000fff8 	b	9d014acc <memcpy+0x8>
9d014aec:	a0870000 	sb	a3,0(a0)

Disassembly of section .rodata:

9d014af0 <CSWTCH.35>:
9d014af0:	fbceff6b 0000fbce                       k.......

9d014af8 <CSWTCH.34>:
9d014af8:	00353518                                .55.

9d014afc <p10s.2639>:
9d014afc:	0000000a 00000064 000003e8 00002710     ....d........'..
9d014b0c:	000186a0 000f4240 00989680 05f5e100     ....@B..........

Disassembly of section .text.__shlim:

9d014b1c <__shlim>:
9d014b1c:	8c830040 	lw	v1,64(a0)
9d014b20:	8c86003c 	lw	a2,60(a0)
9d014b24:	ac850050 	sw	a1,80(a0)
9d014b28:	00661023 	subu	v0,v1,a2
9d014b2c:	10a00004 	beqz	a1,9d014b40 <__shlim+0x24>
9d014b30:	ac820054 	sw	v0,84(a0)
9d014b34:	00a2102a 	slt	v0,a1,v0
9d014b38:	54400001 	bnezl	v0,9d014b40 <__shlim+0x24>
9d014b3c:	00c51821 	addu	v1,a2,a1
9d014b40:	03e00008 	jr	ra
9d014b44:	ac83004c 	sw	v1,76(a0)

Disassembly of section .text.__dummy:

9d014b48 <__dummy>:
9d014b48:	8c870014 	lw	a3,20(a0)
9d014b4c:	8c860018 	lw	a2,24(a0)
9d014b50:	8c830004 	lw	v1,4(a0)
9d014b54:	00e61023 	subu	v0,a3,a2
9d014b58:	30630040 	andi	v1,v1,0x40
9d014b5c:	aca20000 	sw	v0,0(a1)
9d014b60:	10600002 	beqz	v1,9d014b6c <__dummy+0x24>
9d014b64:	00001025 	move	v0,zero
9d014b68:	00c7102b 	sltu	v0,a2,a3
9d014b6c:	03e00008 	jr	ra
9d014b70:	00000000 	nop

Disassembly of section .text.__init_stdio:

9d014b74 <__init_stdio>:
9d014b74:	27bdffe8 	addiu	sp,sp,-24
9d014b78:	afbf0014 	sw	ra,20(sp)
9d014b7c:	0f405436 	jal	9d0150d8 <__init_stderr>
9d014b80:	00000000 	nop
9d014b84:	0f405436 	jal	9d0150d8 <__init_stderr>
9d014b88:	00000000 	nop
9d014b8c:	0f405436 	jal	9d0150d8 <__init_stderr>
9d014b90:	00000000 	nop
9d014b94:	8fbf0014 	lw	ra,20(sp)
9d014b98:	03e00008 	jr	ra
9d014b9c:	27bd0018 	addiu	sp,sp,24

Disassembly of section .text.copysignl:

9d014ba0 <copysignl>:
9d014ba0:	afa50004 	sw	a1,4(sp)
9d014ba4:	97a20006 	lhu	v0,6(sp)
9d014ba8:	00073c02 	srl	a3,a3,0x10
9d014bac:	7c077004 	ins	a3,zero,0x0,0xf
9d014bb0:	30427fff 	andi	v0,v0,0x7fff
9d014bb4:	00471025 	or	v0,v0,a3
9d014bb8:	a7a20006 	sh	v0,6(sp)
9d014bbc:	afa40000 	sw	a0,0(sp)
9d014bc0:	8fa20000 	lw	v0,0(sp)
9d014bc4:	03e00008 	jr	ra
9d014bc8:	8fa30004 	lw	v1,4(sp)

Disassembly of section .text._stub_sbd_memlayout:

9d014bcc <_stub_sbd_memlayout>:
9d014bcc:	3c04a001 	lui	a0,0xa001
9d014bd0:	2482a354 	addiu	v0,a0,-23724
9d014bd4:	24030001 	li	v1,1
9d014bd8:	ac430008 	sw	v1,8(v0)
9d014bdc:	3c03a001 	lui	v1,0xa001
9d014be0:	2463a380 	addiu	v1,v1,-23680
9d014be4:	ac83a354 	sw	v1,-23724(a0)
9d014be8:	3c030000 	lui	v1,0x0
9d014bec:	24630000 	addiu	v1,v1,0
9d014bf0:	03e00008 	jr	ra
9d014bf4:	ac430004 	sw	v1,4(v0)

Disassembly of section .text.__wrap_sprintf:

9d014bf8 <_dsprintf_cdeEfFgGnopuxX>:
9d014bf8:	27bdffe0 	addiu	sp,sp,-32
9d014bfc:	afa60028 	sw	a2,40(sp)
9d014c00:	27a60028 	addiu	a2,sp,40
9d014c04:	afbf001c 	sw	ra,28(sp)
9d014c08:	afa7002c 	sw	a3,44(sp)
9d014c0c:	0f405330 	jal	9d014cc0 <__vsprintf>
9d014c10:	afa60010 	sw	a2,16(sp)
9d014c14:	8fbf001c 	lw	ra,28(sp)
9d014c18:	03e00008 	jr	ra
9d014c1c:	27bd0020 	addiu	sp,sp,32

Disassembly of section .text.__wrap_sscanf:

9d014c20 <_dsscanf_cdeEfFgGnopuxX>:
9d014c20:	27bdffe0 	addiu	sp,sp,-32
9d014c24:	afa60028 	sw	a2,40(sp)
9d014c28:	27a60028 	addiu	a2,sp,40
9d014c2c:	afbf001c 	sw	ra,28(sp)
9d014c30:	afa7002c 	sw	a3,44(sp)
9d014c34:	0f404fa6 	jal	9d013e98 <__vsscanf>
9d014c38:	afa60010 	sw	a2,16(sp)
9d014c3c:	8fbf001c 	lw	ra,28(sp)
9d014c40:	03e00008 	jr	ra
9d014c44:	27bd0020 	addiu	sp,sp,32

9d014c48 <_dsscanf_cdnopuxX>:
9d014c48:	27bdffe0 	addiu	sp,sp,-32
9d014c4c:	afa60028 	sw	a2,40(sp)
9d014c50:	27a60028 	addiu	a2,sp,40
9d014c54:	afbf001c 	sw	ra,28(sp)
9d014c58:	afa7002c 	sw	a3,44(sp)
9d014c5c:	0f404fa6 	jal	9d013e98 <__vsscanf>
9d014c60:	afa60010 	sw	a2,16(sp)
9d014c64:	8fbf001c 	lw	ra,28(sp)
9d014c68:	03e00008 	jr	ra
9d014c6c:	27bd0020 	addiu	sp,sp,32

Disassembly of section .text.strtof:

9d014c70 <strtof>:
9d014c70:	27bdffe8 	addiu	sp,sp,-24
9d014c74:	afbf0014 	sw	ra,20(sp)
9d014c78:	0f404bfd 	jal	9d012ff4 <strtox>
9d014c7c:	00003025 	move	a2,zero
9d014c80:	00402025 	move	a0,v0
9d014c84:	0f40488b 	jal	9d01222c <__truncdfsf2>
9d014c88:	00602825 	move	a1,v1
9d014c8c:	8fbf0014 	lw	ra,20(sp)
9d014c90:	03e00008 	jr	ra
9d014c94:	27bd0018 	addiu	sp,sp,24

Disassembly of section .text.strcpy:

9d014c98 <strcpy>:
9d014c98:	27bdffe8 	addiu	sp,sp,-24
9d014c9c:	afb00010 	sw	s0,16(sp)
9d014ca0:	afbf0014 	sw	ra,20(sp)
9d014ca4:	0f405354 	jal	9d014d50 <stpcpy>
9d014ca8:	00808025 	move	s0,a0
9d014cac:	8fbf0014 	lw	ra,20(sp)
9d014cb0:	02001025 	move	v0,s0
9d014cb4:	8fb00010 	lw	s0,16(sp)
9d014cb8:	03e00008 	jr	ra
9d014cbc:	27bd0018 	addiu	sp,sp,24

Disassembly of section .text.__vsprintf:

9d014cc0 <__vsprintf>:
9d014cc0:	00c03825 	move	a3,a2
9d014cc4:	00a03025 	move	a2,a1
9d014cc8:	3c057fff 	lui	a1,0x7fff
9d014ccc:	27bdffe8 	addiu	sp,sp,-24
9d014cd0:	afbf0014 	sw	ra,20(sp)
9d014cd4:	0f404e24 	jal	9d013890 <__vsnprintf>
9d014cd8:	34a5ffff 	ori	a1,a1,0xffff
9d014cdc:	8fbf0014 	lw	ra,20(sp)
9d014ce0:	03e00008 	jr	ra
9d014ce4:	27bd0018 	addiu	sp,sp,24

Disassembly of section .text.memset:

9d014ce8 <memset>:
9d014ce8:	00801025 	move	v0,a0
9d014cec:	00863021 	addu	a2,a0,a2
9d014cf0:	00801825 	move	v1,a0
9d014cf4:	14660003 	bne	v1,a2,9d014d04 <memset+0x1c>
9d014cf8:	24630001 	addiu	v1,v1,1
9d014cfc:	03e00008 	jr	ra
9d014d00:	00000000 	nop
9d014d04:	1000fffb 	b	9d014cf4 <memset+0xc>
9d014d08:	a065ffff 	sb	a1,-1(v1)

Disassembly of section .text.isxdigit:

9d014d0c <isxdigit>:
9d014d0c:	2483ffd0 	addiu	v1,a0,-48
9d014d10:	2c63000a 	sltiu	v1,v1,10
9d014d14:	14600004 	bnez	v1,9d014d28 <isxdigit+0x1c>
9d014d18:	24020001 	li	v0,1
9d014d1c:	34840020 	ori	a0,a0,0x20
9d014d20:	2482ff9f 	addiu	v0,a0,-97
9d014d24:	2c420006 	sltiu	v0,v0,6
9d014d28:	03e00008 	jr	ra
9d014d2c:	00000000 	nop

Disassembly of section .text.dinit.startup:

9d014d30 <__pic32_data_init>:
9d014d30:	03e01825 	move	v1,ra
9d014d34:	3c089d01 	lui	t0,0x9d01
9d014d38:	25083810 	addiu	t0,t0,14352
9d014d3c:	0100f809 	jalr	t0
9d014d40:	00000000 	nop
9d014d44:	0060f825 	move	ra,v1
9d014d48:	03e00008 	jr	ra
9d014d4c:	00000000 	nop

Disassembly of section .text.stpcpy:

9d014d50 <stpcpy>:
9d014d50:	24a50001 	addiu	a1,a1,1
9d014d54:	80a3ffff 	lb	v1,-1(a1)
9d014d58:	00801025 	move	v0,a0
9d014d5c:	24840001 	addiu	a0,a0,1
9d014d60:	1460fffb 	bnez	v1,9d014d50 <stpcpy>
9d014d64:	a083ffff 	sb	v1,-1(a0)
9d014d68:	03e00008 	jr	ra
9d014d6c:	00000000 	nop

Disassembly of section .text.__fwrite_min:

9d014d70 <__stdio_write>:
9d014d70:	8c840000 	lw	a0,0(a0)
9d014d74:	27bdffe8 	addiu	sp,sp,-24
9d014d78:	afbf0014 	sw	ra,20(sp)
9d014d7c:	0f404de2 	jal	9d013788 <write>
9d014d80:	00000000 	nop
9d014d84:	8fbf0014 	lw	ra,20(sp)
9d014d88:	03e00008 	jr	ra
9d014d8c:	27bd0018 	addiu	sp,sp,24

Disassembly of section .text.__fseeko:

9d014d90 <__fseeko>:
9d014d90:	8c820030 	lw	v0,48(a0)
9d014d94:	27bdffe8 	addiu	sp,sp,-24
9d014d98:	afbf0014 	sw	ra,20(sp)
9d014d9c:	0040f809 	jalr	v0
9d014da0:	00000000 	nop
9d014da4:	8fbf0014 	lw	ra,20(sp)
9d014da8:	03e00008 	jr	ra
9d014dac:	27bd0018 	addiu	sp,sp,24

Disassembly of section .text.strtod:

9d014db0 <strtod>:
9d014db0:	27bdffe8 	addiu	sp,sp,-24
9d014db4:	afbf0014 	sw	ra,20(sp)
9d014db8:	0f404bfd 	jal	9d012ff4 <strtox>
9d014dbc:	24060001 	li	a2,1
9d014dc0:	8fbf0014 	lw	ra,20(sp)
9d014dc4:	03e00008 	jr	ra
9d014dc8:	27bd0018 	addiu	sp,sp,24

Disassembly of section .text.strtold:

9d014dcc <strtold>:
9d014dcc:	27bdffe8 	addiu	sp,sp,-24
9d014dd0:	afbf0014 	sw	ra,20(sp)
9d014dd4:	0f404bfd 	jal	9d012ff4 <strtox>
9d014dd8:	24060002 	li	a2,2
9d014ddc:	8fbf0014 	lw	ra,20(sp)
9d014de0:	03e00008 	jr	ra
9d014de4:	27bd0018 	addiu	sp,sp,24

Disassembly of section .text.strtoimax:

9d014de8 <strtoimax>:
9d014de8:	27bdffe8 	addiu	sp,sp,-24
9d014dec:	afbf0014 	sw	ra,20(sp)
9d014df0:	0f405290 	jal	9d014a40 <strtoll>
9d014df4:	00000000 	nop
9d014df8:	8fbf0014 	lw	ra,20(sp)
9d014dfc:	03e00008 	jr	ra
9d014e00:	27bd0018 	addiu	sp,sp,24

Disassembly of section .text.strtoumax:

9d014e04 <strtoumax>:
9d014e04:	27bdffe8 	addiu	sp,sp,-24
9d014e08:	afbf0014 	sw	ra,20(sp)
9d014e0c:	0f405285 	jal	9d014a14 <strtoull>
9d014e10:	00000000 	nop
9d014e14:	8fbf0014 	lw	ra,20(sp)
9d014e18:	03e00008 	jr	ra
9d014e1c:	27bd0018 	addiu	sp,sp,24

Disassembly of section .text.__isxdigit_l:

9d014e20 <__isxdigit_l>:
9d014e20:	27bdffe8 	addiu	sp,sp,-24
9d014e24:	afbf0014 	sw	ra,20(sp)
9d014e28:	0f405343 	jal	9d014d0c <isxdigit>
9d014e2c:	00000000 	nop
9d014e30:	8fbf0014 	lw	ra,20(sp)
9d014e34:	03e00008 	jr	ra
9d014e38:	27bd0018 	addiu	sp,sp,24

Disassembly of section .text.tolower:

9d014e3c <tolower>:
9d014e3c:	2483ffbf 	addiu	v1,a0,-65
9d014e40:	2c63001a 	sltiu	v1,v1,26
9d014e44:	10600002 	beqz	v1,9d014e50 <tolower+0x14>
9d014e48:	00801025 	move	v0,a0
9d014e4c:	34820020 	ori	v0,a0,0x20
9d014e50:	03e00008 	jr	ra
9d014e54:	00000000 	nop

Disassembly of section .text.__tolower_l:

9d014e58 <__tolower_l>:
9d014e58:	27bdffe8 	addiu	sp,sp,-24
9d014e5c:	afbf0014 	sw	ra,20(sp)
9d014e60:	0f40538f 	jal	9d014e3c <tolower>
9d014e64:	00000000 	nop
9d014e68:	8fbf0014 	lw	ra,20(sp)
9d014e6c:	03e00008 	jr	ra
9d014e70:	27bd0018 	addiu	sp,sp,24

Disassembly of section .text.toupper:

9d014e74 <toupper>:
9d014e74:	2483ff9f 	addiu	v1,a0,-97
9d014e78:	2c63001a 	sltiu	v1,v1,26
9d014e7c:	10600002 	beqz	v1,9d014e88 <toupper+0x14>
9d014e80:	00801025 	move	v0,a0
9d014e84:	3082005f 	andi	v0,a0,0x5f
9d014e88:	03e00008 	jr	ra
9d014e8c:	00000000 	nop

Disassembly of section .text.__toupper_l:

9d014e90 <__toupper_l>:
9d014e90:	27bdffe8 	addiu	sp,sp,-24
9d014e94:	afbf0014 	sw	ra,20(sp)
9d014e98:	0f40539d 	jal	9d014e74 <toupper>
9d014e9c:	00000000 	nop
9d014ea0:	8fbf0014 	lw	ra,20(sp)
9d014ea4:	03e00008 	jr	ra
9d014ea8:	27bd0018 	addiu	sp,sp,24

Disassembly of section .text.do_read:

9d014eac <do_read>:
9d014eac:	27bdffe8 	addiu	sp,sp,-24
9d014eb0:	afbf0014 	sw	ra,20(sp)
9d014eb4:	0f404c26 	jal	9d013098 <__string_read>
9d014eb8:	00000000 	nop
9d014ebc:	8fbf0014 	lw	ra,20(sp)
9d014ec0:	03e00008 	jr	ra
9d014ec4:	27bd0018 	addiu	sp,sp,24

Disassembly of section .text.__toread_needs_stdio_exit:

9d014ec8 <__toread_needs_stdio_exit>:
9d014ec8:	27bdffe8 	addiu	sp,sp,-24
9d014ecc:	afbf0014 	sw	ra,20(sp)
9d014ed0:	0f4050fd 	jal	9d0143f4 <__stdio_exit>
9d014ed4:	00000000 	nop
9d014ed8:	8fbf0014 	lw	ra,20(sp)
9d014edc:	03e00008 	jr	ra
9d014ee0:	27bd0018 	addiu	sp,sp,24

Disassembly of section .text.putc:

9d014ee4 <putc>:
9d014ee4:	27bdffe8 	addiu	sp,sp,-24
9d014ee8:	afbf0014 	sw	ra,20(sp)
9d014eec:	0f404f6e 	jal	9d013db8 <__putc>
9d014ef0:	00000000 	nop
9d014ef4:	8fbf0014 	lw	ra,20(sp)
9d014ef8:	03e00008 	jr	ra
9d014efc:	27bd0018 	addiu	sp,sp,24

Disassembly of section .text.__fopen:

9d014f00 <__fopen>:
9d014f00:	27bdffe8 	addiu	sp,sp,-24
9d014f04:	afbf0014 	sw	ra,20(sp)
9d014f08:	0f404dc0 	jal	9d013700 <__fopen_rw>
9d014f0c:	00000000 	nop
9d014f10:	8fbf0014 	lw	ra,20(sp)
9d014f14:	03e00008 	jr	ra
9d014f18:	27bd0018 	addiu	sp,sp,24

Disassembly of section .text.__ftello_adj:

9d014f1c <__ftello_adj>:
9d014f1c:	27bdffe8 	addiu	sp,sp,-24
9d014f20:	afbf0014 	sw	ra,20(sp)
9d014f24:	0f405159 	jal	9d014564 <__ftello_adj_rw>
9d014f28:	00000000 	nop
9d014f2c:	8fbf0014 	lw	ra,20(sp)
9d014f30:	03e00008 	jr	ra
9d014f34:	27bd0018 	addiu	sp,sp,24

Disassembly of section .text.logb:

9d014f38 <logb>:
9d014f38:	27bdffe8 	addiu	sp,sp,-24
9d014f3c:	afbf0014 	sw	ra,20(sp)
9d014f40:	0f404737 	jal	9d011cdc <logbl>
9d014f44:	00000000 	nop
9d014f48:	8fbf0014 	lw	ra,20(sp)
9d014f4c:	03e00008 	jr	ra
9d014f50:	27bd0018 	addiu	sp,sp,24

Disassembly of section .text.drem:

9d014f54 <drem>:
9d014f54:	27bdffe8 	addiu	sp,sp,-24
9d014f58:	afbf0014 	sw	ra,20(sp)
9d014f5c:	0f403386 	jal	9d00ce18 <dreml>
9d014f60:	00000000 	nop
9d014f64:	8fbf0014 	lw	ra,20(sp)
9d014f68:	03e00008 	jr	ra
9d014f6c:	27bd0018 	addiu	sp,sp,24

Disassembly of section .text.fabsl:

9d014f70 <fabsl>:
9d014f70:	27bdffe8 	addiu	sp,sp,-24
9d014f74:	afbf0014 	sw	ra,20(sp)
9d014f78:	0f405412 	jal	9d015048 <fabs>
9d014f7c:	00000000 	nop
9d014f80:	8fbf0014 	lw	ra,20(sp)
9d014f84:	03e00008 	jr	ra
9d014f88:	27bd0018 	addiu	sp,sp,24

Disassembly of section .text.scalbnl:

9d014f8c <scalbnl>:
9d014f8c:	27bdffe8 	addiu	sp,sp,-24
9d014f90:	afbf0014 	sw	ra,20(sp)
9d014f94:	0f404908 	jal	9d012420 <scalbn>
9d014f98:	00000000 	nop
9d014f9c:	8fbf0014 	lw	ra,20(sp)
9d014fa0:	03e00008 	jr	ra
9d014fa4:	27bd0018 	addiu	sp,sp,24

Disassembly of section .text:

9d014fc0 <get_mode>:

volatile enum mode_t mode;

// function content in the utilities c file:
volatile enum mode_t get_mode(void){
	return mode;
9d014fc0:	8f828078 	lw	v0,-32648(gp)
}
9d014fc4:	03e00008 	jr	ra
9d014fc8:	00000000 	nop

9d014fcc <set_mode>:
void set_mode(enum mode_t s){
	mode = s;
9d014fcc:	af848078 	sw	a0,-32648(gp)
}
9d014fd0:	03e00008 	jr	ra
9d014fd4:	00000000 	nop

9d014fd8 <_nmi_handler>:
9d014fd8:	401a6000 	mfc0	k0,c0_status
9d014fdc:	3c1bffbf 	lui	k1,0xffbf
9d014fe0:	377bffff 	ori	k1,k1,0xffff
9d014fe4:	035bd024 	and	k0,k0,k1
9d014fe8:	409a6000 	mtc0	k0,c0_status
9d014fec:	42000018 	eret

Disassembly of section .rodata:

9d014ff0 <state_table>:
9d014ff0:	096c0768 906a834c c07aa074 88688000     h.l.L.j.t.z...h.
9d015000:	826c8400 00008100                       ..l.....

Disassembly of section .text.strlen:

9d015008 <strlen>:
9d015008:	00801025 	move	v0,a0
9d01500c:	80430000 	lb	v1,0(v0)
9d015010:	5460fffe 	bnezl	v1,9d01500c <strlen+0x4>
9d015014:	24420001 	addiu	v0,v0,1
9d015018:	03e00008 	jr	ra
9d01501c:	00441023 	subu	v0,v0,a0

Disassembly of section .text.finitel:

9d015020 <finitel>:
9d015020:	00051403 	sra	v0,a1,0x10
9d015024:	30427ff0 	andi	v0,v0,0x7ff0
9d015028:	38427ff0 	xori	v0,v0,0x7ff0
9d01502c:	03e00008 	jr	ra
9d015030:	0002102b 	sltu	v0,zero,v0

Disassembly of section .text.finite:

9d015034 <finite>:
9d015034:	00051403 	sra	v0,a1,0x10
9d015038:	30427ff0 	andi	v0,v0,0x7ff0
9d01503c:	38427ff0 	xori	v0,v0,0x7ff0
9d015040:	03e00008 	jr	ra
9d015044:	0002102b 	sltu	v0,zero,v0

Disassembly of section .text.fabs:

9d015048 <fabs>:
9d015048:	7ca6f000 	ext	a2,a1,0x0,0x1f
9d01504c:	00801025 	move	v0,a0
9d015050:	03e00008 	jr	ra
9d015054:	00c01825 	move	v1,a2

Disassembly of section .text.__get_stderr:

9d015058 <__get_stderr>:
9d015058:	3c02a001 	lui	v0,0xa001
9d01505c:	03e00008 	jr	ra
9d015060:	24429fcc 	addiu	v0,v0,-24628

Disassembly of section .text.__get_stdout:

9d015064 <__get_stdout>:
9d015064:	3c02a001 	lui	v0,0xa001
9d015068:	03e00008 	jr	ra
9d01506c:	2442a02c 	addiu	v0,v0,-24532

Disassembly of section .text._on_reset:

9d015070 <_on_reset>:
9d015070:	03e00008 	jr	ra
9d015074:	00000000 	nop

Disassembly of section .text._on_bootstrap:

9d015078 <_on_bootstrap>:
9d015078:	03e00008 	jr	ra
9d01507c:	00000000 	nop

Disassembly of section .text.__dummy_fmt3:

9d015080 <__dummy_fmt3>:
9d015080:	03e00008 	jr	ra
9d015084:	00001025 	move	v0,zero

Disassembly of section .text.__dummy_fmt4:

9d015088 <__fmt_a>:
9d015088:	03e00008 	jr	ra
9d01508c:	00001025 	move	v0,zero

Disassembly of section .text.__dummy_fmts:

9d015090 <__dummy_fmts>:
9d015090:	03e00008 	jr	ra
9d015094:	00001025 	move	v0,zero

Disassembly of section .text.__dummy_scan:

9d015098 <__scan_a>:
9d015098:	03e00008 	jr	ra
9d01509c:	00001025 	move	v0,zero

Disassembly of section .text.__dummy_scan_s:

9d0150a0 <__dummy_scan_s>:
9d0150a0:	03e00008 	jr	ra
9d0150a4:	00001025 	move	v0,zero

Disassembly of section .text.__dummy:

9d0150a8 <__dummy>:
9d0150a8:	03e00008 	jr	ra
9d0150ac:	00000000 	nop

9d0150b0 <__stdio_exit_ofl>:
9d0150b0:	03e00008 	jr	ra
9d0150b4:	00000000 	nop

Disassembly of section .text.__dummy1:

9d0150b8 <__dummy1>:
9d0150b8:	03e00008 	jr	ra
9d0150bc:	00001025 	move	v0,zero

Disassembly of section .text.__dummy:

9d0150c0 <__dummy>:
9d0150c0:	03e00008 	jr	ra
9d0150c4:	00000000 	nop

9d0150c8 <__dummy>:
9d0150c8:	03e00008 	jr	ra
9d0150cc:	00001025 	move	v0,zero

Disassembly of section .text.__dummy:

9d0150d0 <__dummy>:
9d0150d0:	03e00008 	jr	ra
9d0150d4:	00001025 	move	v0,zero

9d0150d8 <__init_stderr>:
9d0150d8:	03e00008 	jr	ra
9d0150dc:	00000000 	nop

Disassembly of section .text.getpagesize:

9d0150e0 <getpagesize>:
9d0150e0:	03e00008 	jr	ra
9d0150e4:	24020080 	li	v0,128

Disassembly of section .text.lseek:

9d0150e8 <lseek>:
9d0150e8:	03e00008 	jr	ra
9d0150ec:	00001025 	move	v0,zero

Disassembly of section .text.close:

9d0150f0 <close>:
9d0150f0:	03e00008 	jr	ra
9d0150f4:	00001025 	move	v0,zero
